

Microchip Technology PIC18 LITE Macro Assembler V1.32 build 58300 
                                                                                               Wed Jul 08 15:46:28 2015

Microchip Technology Omniscient Code Generator (Lite mode) build 58300
     1                           	processor	18F2550
     2                           	fnconf	rparam,??,?,0
     3                           	opt	pw 120
     4                           	opt	lm
     5                           	psect	smallconst,global,reloc=2,class=SMALLCONST,delta=1
     6                           	psect	cinit,global,reloc=2,class=CODE,delta=1
     7                           	psect	bssCOMRAM,global,class=COMRAM,space=1,delta=1
     8                           	psect	bssBANK0,global,class=BANK0,space=1,delta=1
     9                           	psect	cstackBANK1,global,class=BANK1,space=1,delta=1
    10                           	psect	cstackBANK0,global,class=BANK0,space=1,delta=1
    11                           	psect	cstackCOMRAM,global,class=COMRAM,space=1,delta=1
    12                           	psect	text0,global,reloc=2,class=CODE,delta=1
    13                           	psect	text1,global,reloc=2,class=CODE,delta=1
    14                           	psect	text2,global,reloc=2,class=CODE,delta=1
    15                           	psect	text3,global,reloc=2,class=CODE,delta=1
    16                           	psect	text4,global,reloc=2,class=CODE,delta=1
    17                           	psect	text5,global,reloc=2,class=CODE,delta=1
    18                           	psect	text6,global,reloc=2,class=CODE,delta=1
    19                           	psect	text7,global,reloc=2,class=CODE,delta=1
    20                           	psect	text8,global,reloc=2,class=CODE,delta=1
    21                           	psect	text9,global,reloc=2,class=CODE,delta=1
    22                           	psect	text10,global,reloc=2,class=CODE,delta=1
    23                           	psect	text11,global,reloc=2,class=CODE,delta=1
    24                           	psect	text12,global,reloc=2,class=CODE,delta=1
    25                           	psect	text13,global,reloc=2,class=CODE,delta=1
    26                           	psect	text14,global,reloc=2,class=CODE,delta=1
    27                           	psect	text15,global,reloc=2,class=CODE,delta=1
    28                           	psect	text16,global,reloc=2,class=CODE,delta=1
    29                           	psect	text17,global,reloc=2,class=CODE,delta=1
    30                           	psect	text18,global,reloc=2,class=CODE,delta=1
    31                           	psect	text19,global,reloc=2,class=CODE,delta=1
    32                           	psect	text20,global,reloc=2,class=CODE,delta=1
    33                           	psect	text21,global,reloc=2,class=CODE,delta=1
    34                           	psect	text22,global,reloc=2,class=CODE,delta=1
    35                           	psect	text23,global,reloc=2,class=CODE,delta=1
    36                           	psect	text24,global,reloc=2,class=CODE,delta=1
    37                           	psect	intcodelo,global,reloc=2,class=CODE,delta=1
    38                           	psect	text26,global,reloc=2,class=CODE,delta=1
    39                           	psect	intcode,global,reloc=2,class=CODE,delta=1
    40                           	psect	intcode_body,global,reloc=2,class=CODE,delta=1
    41                           	psect	text28,global,reloc=2,class=CODE,delta=1
    42                           	psect	text29,global,reloc=2,class=CODE,delta=1
    43                           	psect	text30,global,reloc=2,class=CODE,delta=1
    44                           	psect	text31,global,reloc=2,class=CODE,delta=1
    45                           	psect	text32,global,reloc=2,class=CODE,delta=1
    46                           	psect	text33,global,reloc=2,class=CODE,delta=1
    47                           	psect	text34,global,reloc=2,class=CODE,delta=1
    48                           	psect	text35,global,reloc=2,class=CODE,delta=1
    49                           	psect	text36,global,reloc=2,class=CODE,delta=1
    50                           	psect	text37,global,reloc=2,class=CODE,delta=1
    51                           	psect	text38,global,reloc=2,class=CODE,delta=1
    52                           	psect	text39,global,reloc=2,class=CODE,delta=1
    53                           	psect	text40,global,reloc=2,class=CODE,delta=1
    54                           	psect	text41,global,reloc=2,class=CODE,delta=1
    55                           	psect	text42,global,reloc=2,class=CODE,delta=1
    56                           	psect	text43,global,reloc=2,class=CODE,delta=1
    57                           	psect	text44,global,reloc=2,class=CODE,delta=1
    58                           	psect	text45,global,reloc=2,class=CODE,delta=1
    59                           	psect	text46,global,reloc=2,class=CODE,delta=1
    60                           	psect	text47,global,reloc=2,class=CODE,delta=1
    61                           	psect	text48,global,reloc=2,class=CODE,delta=1
    62                           	psect	text49,global,reloc=2,class=CODE,delta=1
    63                           	psect	text50,global,reloc=2,class=CODE,delta=1
    64                           	psect	text51,global,reloc=2,class=CODE,delta=1
    65                           	psect	text52,global,reloc=2,class=CODE,delta=1
    66                           	psect	text53,global,reloc=2,class=CODE,delta=1
    67                           	psect	text54,global,reloc=2,class=CODE,delta=1
    68                           	psect	intsave_regs,global,class=BIGRAM,space=1,delta=1
    69                           	psect	rparam,global,class=COMRAM,space=1,delta=1
    70                           	dabs	1,0x400,32,_BDT
    71                           	dabs	1,0x500,64,_ReceivedDataBuffer
    72                           	dabs	1,0x540,64,_ToSendDataBuffer
    73                           	dabs	1,0x428,8,_CtrlTrfData
    74                           	dabs	1,0x420,8,_SetupPkt
    75  0000                     
    76                           	psect	smallconst
    77  000800                     __psmallconst:
    78                           	opt stack 0
    79  000800  00                 	db	0
    80  000801                     _USB_SD_Ptr:
    81                           	opt stack 0
    82  000801  08C3               	dw	_sd000& (0+65535)
    83  000803  0809               	dw	_sd001& (0+65535)
    84  000805  083D               	dw	_sd002& (0+65535)
    85  000807                     __end_of_USB_SD_Ptr:
    86                           	opt stack 0
    87  000807                     _USB_CD_Ptr:
    88                           	opt stack 0
    89  000807  086B               	dw	_configDescriptor1& (0+65535)
    90  000809                     __end_of_USB_CD_Ptr:
    91                           	opt stack 0
    92  000809                     _sd001:
    93                           	opt stack 0
    94  000809  34                 	db	52
    95  00080A  03                 	db	3
    96  00080B  004D               	dw	77
    97  00080D  0069               	dw	105
    98  00080F  0063               	dw	99
    99  000811  0072               	dw	114
   100  000813  006F               	dw	111
   101  000815  0063               	dw	99
   102  000817  0068               	dw	104
   103  000819  0069               	dw	105
   104  00081B  0070               	dw	112
   105  00081D  0020               	dw	32
   106  00081F  0054               	dw	84
   107  000821  0065               	dw	101
   108  000823  0063               	dw	99
   109  000825  0068               	dw	104
   110  000827  006E               	dw	110
   111  000829  006F               	dw	111
   112  00082B  006C               	dw	108
   113  00082D  006F               	dw	111
   114  00082F  0067               	dw	103
   115  000831  0079               	dw	121
   116  000833  0020               	dw	32
   117  000835  0049               	dw	73
   118  000837  006E               	dw	110
   119  000839  0063               	dw	99
   120  00083B  002E               	dw	46
   121  00083D                     __end_of_sd001:
   122                           	opt stack 0
   123  00083D                     _sd002:
   124                           	opt stack 0
   125  00083D  2E                 	db	46
   126  00083E  03                 	db	3
   127  00083F  0053               	dw	83
   128  000841  0069               	dw	105
   129  000843  006D               	dw	109
   130  000845  0070               	dw	112
   131  000847  006C               	dw	108
   132  000849  0065               	dw	101
   133  00084B  0020               	dw	32
   134  00084D  0048               	dw	72
   135  00084F  0049               	dw	73
   136  000851  0044               	dw	68
   137  000853  0020               	dw	32
   138  000855  0044               	dw	68
   139  000857  0065               	dw	101
   140  000859  0076               	dw	118
   141  00085B  0069               	dw	105
   142  00085D  0063               	dw	99
   143  00085F  0065               	dw	101
   144  000861  0020               	dw	32
   145  000863  0044               	dw	68
   146  000865  0065               	dw	101
   147  000867  006D               	dw	109
   148  000869  006F               	dw	111
   149  00086B                     __end_of_sd002:
   150                           	opt stack 0
   151  00086B                     _configDescriptor1:
   152                           	opt stack 0
   153  00086B  09                 	db	9
   154  00086C  02                 	db	2
   155  00086D  29                 	db	41
   156  00086E  00                 	db	0
   157  00086F  01                 	db	1
   158  000870  01                 	db	1
   159  000871  00                 	db	0
   160  000872  C0                 	db	192
   161  000873  32                 	db	50
   162  000874  09                 	db	9
   163  000875  04                 	db	4
   164  000876  00                 	db	0
   165  000877  00                 	db	0
   166  000878  02                 	db	2
   167  000879  03                 	db	3
   168  00087A  00                 	db	0
   169  00087B  00                 	db	0
   170  00087C  00                 	db	0
   171  00087D  09                 	db	9
   172  00087E  21                 	db	33
   173  00087F  11                 	db	17
   174  000880  01                 	db	1
   175  000881  00                 	db	0
   176  000882  01                 	db	1
   177  000883  22                 	db	34
   178  000884  1D                 	db	29
   179  000885  00                 	db	0
   180  000886  07                 	db	7
   181  000887  05                 	db	5
   182  000888  81                 	db	129
   183  000889  03                 	db	3
   184  00088A  40                 	db	64
   185  00088B  00                 	db	0
   186  00088C  01                 	db	1
   187  00088D  07                 	db	7
   188  00088E  05                 	db	5
   189  00088F  01                 	db	1
   190  000890  03                 	db	3
   191  000891  40                 	db	64
   192  000892  00                 	db	0
   193  000893  01                 	db	1
   194  000894                     __end_of_configDescriptor1:
   195                           	opt stack 0
   196  000894                     _hid_rpt01:
   197                           	opt stack 0
   198  000894  06                 	db	6
   199  000895  00                 	db	0
   200  000896  FF                 	db	255
   201  000897  09                 	db	9
   202  000898  01                 	db	1
   203  000899  A1                 	db	161
   204  00089A  01                 	db	1
   205  00089B  19                 	db	25
   206  00089C  01                 	db	1
   207  00089D  29                 	db	41
   208  00089E  40                 	db	64
   209  00089F  15                 	db	21
   210  0008A0  00                 	db	0
   211  0008A1  26                 	db	38
   212  0008A2  FF                 	db	255
   213  0008A3  00                 	db	0
   214  0008A4  75                 	db	117
   215  0008A5  08                 	db	8
   216  0008A6  95                 	db	149
   217  0008A7  40                 	db	64
   218  0008A8  81                 	db	129
   219  0008A9  00                 	db	0
   220  0008AA  19                 	db	25
   221  0008AB  01                 	db	1
   222  0008AC  29                 	db	41
   223  0008AD  40                 	db	64
   224  0008AE  91                 	db	145
   225  0008AF  00                 	db	0
   226  0008B0  C0                 	db	192
   227  0008B1                     __end_of_hid_rpt01:
   228                           	opt stack 0
   229  0008B1                     _device_dsc:
   230                           	opt stack 0
   231  0008B1  12                 	db	18
   232  0008B2  01                 	db	1
   233  0008B3  0200               	dw	512
   234  0008B5  00                 	db	0
   235  0008B6  00                 	db	0
   236  0008B7  00                 	db	0
   237  0008B8  08                 	db	8
   238  0008B9  04D8               	dw	1240
   239  0008BB  003F               	dw	63
   240  0008BD  0100               	dw	256
   241  0008BF  01                 	db	1
   242  0008C0  02                 	db	2
   243  0008C1  00                 	db	0
   244  0008C2  01                 	db	1
   245  0008C3                     __end_of_device_dsc:
   246                           	opt stack 0
   247  0008C3                     _sd000:
   248                           	opt stack 0
   249  0008C3  04                 	db	4
   250  0008C4  03                 	db	3
   251  0008C5  0409               	dw	1033
   252  0008C7                     __end_of_sd000:
   253                           	opt stack 0
   254  0000                     _ADCON0	set	4034
   255  0000                     _ADCON0bits	set	4034
   256  0000                     _ADCON1	set	4033
   257  0000                     _ADCON1bits	set	4033
   258  0000                     _ADCON2	set	4032
   259  0000                     _ADRESH	set	4036
   260  0000                     _ADRESL	set	4035
   261  0000                     _CCP1CON	set	4029
   262  0000                     _CCP2CON	set	4026
   263  0000                     _CCPR1L	set	4030
   264  0000                     _CCPR2L	set	4027
   265  0000                     _CMCON	set	4020
   266  0000                     _CMCONbits	set	4020
   267  0000                     _FSR0H	set	4074
   268  0000                     _FSR0L	set	4073
   269  0000                     _INDF0	set	4079
   270  0000                     _INTCONbits	set	4082
   271  0000                     _IPR1	set	3999
   272  0000                     _IPR2	set	4002
   273  0000                     _IPR2bits	set	4002
   274  0000                     _LATAbits	set	3977
   275  0000                     _LATBbits	set	3978
   276  0000                     _LATCbits	set	3979
   277  0000                     _PIE1bits	set	3997
   278  0000                     _PIE2bits	set	4000
   279  0000                     _PIR1bits	set	3998
   280  0000                     _PIR2bits	set	4001
   281  0000                     _POSTINC0	set	4078
   282  0000                     _PR2	set	4043
   283  0000                     _RCONbits	set	4048
   284  0000                     _RCREG	set	4014
   285  0000                     _RCSTAbits	set	4011
   286  0000                     _SSPADD	set	4040
   287  0000                     _SSPBUF	set	4041
   288  0000                     _SSPCON1	set	4038
   289  0000                     _SSPCON2bits	set	4037
   290  0000                     _SSPSTAT	set	4039
   291  0000                     _SSPSTATbits	set	4039
   292  0000                     _T2CONbits	set	4042
   293  0000                     _TRISA	set	3986
   294  0000                     _TRISAbits	set	3986
   295  0000                     _TRISB	set	3987
   296  0000                     _TRISBbits	set	3987
   297  0000                     _TRISCbits	set	3988
   298  0000                     _TXREG	set	4013
   299  0000                     _TXSTAbits	set	4012
   300  0000                     _UADDR	set	3950
   301  0000                     _UCFG	set	3951
   302  0000                     _UCON	set	3949
   303  0000                     _UCONbits	set	3949
   304  0000                     _UEIE	set	3947
   305  0000                     _UEIR	set	3946
   306  0000                     _UEP0bits	set	3952
   307  0000                     _UIE	set	3945
   308  0000                     _UIEbits	set	3945
   309  0000                     _UIR	set	3944
   310  0000                     _UIRbits	set	3944
   311  0000                     _USTAT	set	3948
   312  0000                     _UEP0	set	3952
   313  0000                     _UEP1	set	3953
   314                           
   315                           ; #config settings
   316  0008C7  00                 	db	0	; dummy byte at the end
   317  0000                     
   318                           	psect	cinit
   319  004044                     __pcinit:
   320                           	opt stack 0
   321  004044                     start_initialization:
   322                           	opt stack 0
   323  004044                     __initialization:
   324                           	opt stack 0
   325                           
   326                           ; Clear objects allocated to BANK0 (40 bytes)
   327  004044  EE00  F0A3         	lfsr	0,__pbssBANK0
   328  004048  0E28               	movlw	40
   329  00404A                     clear_0:
   330  00404A  6AEE               	clrf	postinc0,c
   331  00404C  06E8               	decf	wreg,f,c
   332  00404E  E1FD               	bnz	clear_0
   333                           
   334                           ; Clear objects allocated to COMRAM (31 bytes)
   335  004050  EE00  F025         	lfsr	0,__pbssCOMRAM
   336  004054  0E1F               	movlw	31
   337  004056                     clear_1:
   338  004056  6AEE               	clrf	postinc0,c
   339  004058  06E8               	decf	wreg,f,c
   340  00405A  E1FD               	bnz	clear_1
   341  00405C                     end_of_initialization:
   342                           	opt stack 0
   343  00405C                     __end_of__initialization:
   344                           	opt stack 0
   345  00405C  0E00               	movlw	low (__Lmediumconst shr (0+16))
   346  00405E  6EF8               	movwf	tblptru,c
   347  004060  0100               	movlb	0
   348  004062  EFC3  F01F         	goto	_main	;jump to C main() function
   349                           tblptru	equ	0xFF8
   350                           postinc0	equ	0xFEE
   351                           wreg	equ	0xFE8
   352                           
   353                           	psect	bssCOMRAM
   354  000025                     __pbssCOMRAM:
   355                           	opt stack 0
   356  000025                     _USB1msTickCount:
   357                           	opt stack 0
   358  000025                     	ds	4
   359  000029                     _BufferCounter:
   360                           	opt stack 0
   361  000029                     	ds	2
   362  00002B                     _USBInHandle:
   363                           	opt stack 0
   364  00002B                     	ds	2
   365  00002D                     _pBDTEntryEP0OutCurrent:
   366                           	opt stack 0
   367  00002D                     	ds	2
   368  00002F                     _pBDTEntryEP0OutNext:
   369                           	opt stack 0
   370  00002F                     	ds	2
   371  000031                     _BothEP0OutUOWNsSet:
   372                           	opt stack 0
   373  000031                     	ds	1
   374  000032                     _RemoteWakeup:
   375                           	opt stack 0
   376  000032                     	ds	1
   377  000033                     _USBBusIsSuspended:
   378                           	opt stack 0
   379  000033                     	ds	1
   380  000034                     _USBDeferINDataStagePackets:
   381                           	opt stack 0
   382  000034                     	ds	1
   383  000035                     _USBDeferOUTDataStagePackets:
   384                           	opt stack 0
   385  000035                     	ds	1
   386  000036                     _USBDeferStatusStagePacket:
   387                           	opt stack 0
   388  000036                     	ds	1
   389  000037                     _USBDeviceState:
   390                           	opt stack 0
   391  000037                     	ds	1
   392  000038                     _USBStatusStageEnabledFlag1:
   393                           	opt stack 0
   394  000038                     	ds	1
   395  000039                     _USBStatusStageEnabledFlag2:
   396                           	opt stack 0
   397  000039                     	ds	1
   398  00003A                     _USBStatusStageTimeoutCounter:
   399                           	opt stack 0
   400  00003A                     	ds	1
   401  00003B                     _USBTicksSinceSuspendEnd:
   402                           	opt stack 0
   403  00003B                     	ds	1
   404  00003C                     _controlTransferState:
   405                           	opt stack 0
   406  00003C                     	ds	1
   407  00003D                     _endpoint_number:
   408                           	opt stack 0
   409  00003D                     	ds	1
   410  00003E                     _shortPacketStatus:
   411                           	opt stack 0
   412  00003E                     	ds	1
   413  00003F                     _USBActiveConfiguration:
   414                           	opt stack 0
   415  00003F                     	ds	1
   416  000040                     _USBAlternateInterface:
   417                           	opt stack 0
   418  000040                     	ds	1
   419  000041                     _USTATcopy:
   420                           	opt stack 0
   421  000041                     	ds	1
   422  000042                     _active_protocol:
   423                           	opt stack 0
   424  000042                     	ds	1
   425  000043                     _idle_rate:
   426                           	opt stack 0
   427  000043                     	ds	1
   428                           tblptru	equ	0xFF8
   429                           postinc0	equ	0xFEE
   430                           wreg	equ	0xFE8
   431                           
   432                           	psect	bssBANK0
   433  0000A3                     __pbssBANK0:
   434                           	opt stack 0
   435  0000A3                     _outPipes:
   436                           	opt stack 0
   437  0000A3                     	ds	8
   438  0000AB                     _pBDTEntryIn:
   439                           	opt stack 0
   440  0000AB                     	ds	4
   441  0000AF                     _pBDTEntryOut:
   442                           	opt stack 0
   443  0000AF                     	ds	4
   444  0000B3                     _ADCON0Tmp:
   445                           	opt stack 0
   446  0000B3                     	ds	2
   447  0000B5                     _ADCON2Tmp:
   448                           	opt stack 0
   449  0000B5                     	ds	2
   450  0000B7                     _BufferPingPong:
   451                           	opt stack 0
   452  0000B7                     	ds	2
   453  0000B9                     _FSR0Htemp:
   454                           	opt stack 0
   455  0000B9                     	ds	2
   456  0000BB                     _FSR0Ltemp:
   457                           	opt stack 0
   458  0000BB                     	ds	2
   459  0000BD                     _USBOutHandle:
   460                           	opt stack 0
   461  0000BD                     	ds	2
   462  0000BF                     _ep_data_in:
   463                           	opt stack 0
   464  0000BF                     	ds	2
   465  0000C1                     _ep_data_out:
   466                           	opt stack 0
   467  0000C1                     	ds	2
   468  0000C3                     _pDst:
   469                           	opt stack 0
   470  0000C3                     	ds	2
   471  0000C5                     _inPipes:
   472                           	opt stack 0
   473  0000C5                     	ds	6
   474                           tblptru	equ	0xFF8
   475                           postinc0	equ	0xFEE
   476                           wreg	equ	0xFE8
   477                           
   478                           	psect	cstackBANK1
   479  000100                     __pcstackBANK1:
   480                           	opt stack 0
   481  000100                     _Test$3472:
   482                           	opt stack 0
   483                           
   484                           ; 2 bytes @ 0x0
   485  000100                     	ds	2
   486  000102                     _Test$3473:
   487                           	opt stack 0
   488                           
   489                           ; 2 bytes @ 0x2
   490  000102                     	ds	2
   491  000104                     _Test$3474:
   492                           	opt stack 0
   493                           
   494                           ; 2 bytes @ 0x4
   495  000104                     	ds	2
   496  000106                     _Test$3475:
   497                           	opt stack 0
   498                           
   499                           ; 2 bytes @ 0x6
   500  000106                     	ds	2
   501  000108                     _Test$3476:
   502                           	opt stack 0
   503                           
   504                           ; 2 bytes @ 0x8
   505  000108                     	ds	2
   506  00010A                     _Test$3477:
   507                           	opt stack 0
   508                           
   509                           ; 2 bytes @ 0xA
   510  00010A                     	ds	2
   511  00010C                     _Test$3478:
   512                           	opt stack 0
   513                           
   514                           ; 2 bytes @ 0xC
   515  00010C                     	ds	2
   516  00010E                     _Test$3479:
   517                           	opt stack 0
   518                           
   519                           ; 2 bytes @ 0xE
   520  00010E                     	ds	2
   521  000110                     _Test$3480:
   522                           	opt stack 0
   523                           
   524                           ; 2 bytes @ 0x10
   525  000110                     	ds	2
   526  000112                     _Test$3481:
   527                           	opt stack 0
   528                           
   529                           ; 2 bytes @ 0x12
   530  000112                     	ds	2
   531  000114                     _Test$3482:
   532                           	opt stack 0
   533                           
   534                           ; 2 bytes @ 0x14
   535  000114                     	ds	2
   536  000116                     _Test$3483:
   537                           	opt stack 0
   538                           
   539                           ; 2 bytes @ 0x16
   540  000116                     	ds	2
   541  000118                     _Test$3484:
   542                           	opt stack 0
   543                           
   544                           ; 2 bytes @ 0x18
   545  000118                     	ds	2
   546  00011A                     _Test$3485:
   547                           	opt stack 0
   548                           
   549                           ; 2 bytes @ 0x1A
   550  00011A                     	ds	2
   551  00011C                     _Test$3486:
   552                           	opt stack 0
   553                           
   554                           ; 2 bytes @ 0x1C
   555  00011C                     	ds	2
   556  00011E                     _Test$3487:
   557                           	opt stack 0
   558                           
   559                           ; 2 bytes @ 0x1E
   560  00011E                     	ds	2
   561  000120                     _Test$3488:
   562                           	opt stack 0
   563                           
   564                           ; 2 bytes @ 0x20
   565  000120                     	ds	2
   566  000122                     _Test$3489:
   567                           	opt stack 0
   568                           
   569                           ; 2 bytes @ 0x22
   570  000122                     	ds	2
   571  000124                     _Test$3490:
   572                           	opt stack 0
   573                           
   574                           ; 2 bytes @ 0x24
   575  000124                     	ds	2
   576                           tblptru	equ	0xFF8
   577                           postinc0	equ	0xFEE
   578                           wreg	equ	0xFE8
   579                           
   580                           	psect	cstackBANK0
   581  000060                     __pcstackBANK0:
   582                           	opt stack 0
   583  000060                     USBEnableEndpoint@options:
   584                           	opt stack 0
   585  000060                     i2USBDeviceInit@i:
   586                           	opt stack 0
   587                           
   588                           ; 1 bytes @ 0x0
   589  000060                     	ds	1
   590  000061                     ??_USBEnableEndpoint:
   591                           
   592                           ; 0 bytes @ 0x1
   593  000061                     	ds	2
   594  000063                     USBEnableEndpoint@p:
   595                           	opt stack 0
   596                           
   597                           ; 2 bytes @ 0x3
   598  000063                     	ds	2
   599  000065                     USBEnableEndpoint@ep:
   600                           	opt stack 0
   601                           
   602                           ; 1 bytes @ 0x5
   603  000065                     	ds	1
   604  000066                     USER_USB_CALLBACK_EVENT_HANDLER@event:
   605                           	opt stack 0
   606                           
   607                           ; 2 bytes @ 0x6
   608  000066                     	ds	2
   609  000068                     USER_USB_CALLBACK_EVENT_HANDLER@pdata:
   610                           	opt stack 0
   611                           
   612                           ; 2 bytes @ 0x8
   613  000068                     	ds	2
   614  00006A                     USER_USB_CALLBACK_EVENT_HANDLER@size:
   615                           	opt stack 0
   616                           
   617                           ; 2 bytes @ 0xA
   618  00006A                     	ds	2
   619  00006C                     ??_USER_USB_CALLBACK_EVENT_HANDLER:
   620                           
   621                           ; 0 bytes @ 0xC
   622  00006C                     	ds	2
   623  00006E                     ??_USBStdFeatureReqHandler:
   624  00006E                     USBStdSetCfgHandler@i:
   625                           	opt stack 0
   626                           
   627                           ; 1 bytes @ 0xE
   628  00006E                     	ds	3
   629  000071                     USBStdFeatureReqHandler@pUEP:
   630                           	opt stack 0
   631                           
   632                           ; 2 bytes @ 0x11
   633  000071                     	ds	2
   634  000073                     USBStdFeatureReqHandler@current_ep_data:
   635                           	opt stack 0
   636                           
   637                           ; 1 bytes @ 0x13
   638  000073                     	ds	1
   639  000074                     USBStdFeatureReqHandler@p:
   640                           	opt stack 0
   641                           
   642                           ; 2 bytes @ 0x14
   643  000074                     	ds	2
   644  000076                     ??_USBCheckStdRequest:
   645                           
   646                           ; 0 bytes @ 0x16
   647  000076                     	ds	2
   648  000078                     ??_USBCtrlEPService:
   649                           
   650                           ; 0 bytes @ 0x18
   651  000078                     	ds	2
   652  00007A                     USBCtrlEPService@setup_cnt:
   653                           	opt stack 0
   654                           
   655                           ; 1 bytes @ 0x1A
   656  00007A                     	ds	1
   657  00007B                     USBDeviceTasks@i:
   658                           	opt stack 0
   659                           
   660                           ; 1 bytes @ 0x1B
   661  00007B                     	ds	1
   662  00007C                     ??_SYS_InterruptHigh:
   663                           
   664                           ; 0 bytes @ 0x1C
   665  00007C                     	ds	14
   666  00008A                     ??_AdcCfg:
   667  00008A                     ??_AnalogCmpCfg:
   668  00008A                     ??_SpiCfg:
   669  00008A                     ??_EusartTx:
   670  00008A                     ??_EusartRx:
   671  00008A                     ?_USBTransferOnePacket:
   672                           	opt stack 0
   673  00008A                     USBTransferOnePacket@dir:
   674                           	opt stack 0
   675  00008A                     SYSTEM_Initialize@state:
   676                           	opt stack 0
   677  00008A                     memset@p1:
   678                           	opt stack 0
   679                           
   680                           ; 2 bytes @ 0x2A
   681  00008A                     	ds	1
   682  00008B                     USBTransferOnePacket@data:
   683                           	opt stack 0
   684                           
   685                           ; 2 bytes @ 0x2B
   686  00008B                     	ds	1
   687  00008C                     memset@c:
   688                           	opt stack 0
   689                           
   690                           ; 2 bytes @ 0x2C
   691  00008C                     	ds	1
   692  00008D                     USBTransferOnePacket@len:
   693                           	opt stack 0
   694  00008D                     EusartRx@n:
   695                           	opt stack 0
   696  00008D                     EusartTx@n:
   697                           	opt stack 0
   698                           
   699                           ; 2 bytes @ 0x2D
   700  00008D                     	ds	1
   701  00008E                     USBTransferOnePacket@ep:
   702                           	opt stack 0
   703  00008E                     memset@n:
   704                           	opt stack 0
   705                           
   706                           ; 2 bytes @ 0x2E
   707  00008E                     	ds	1
   708  00008F                     USBTransferOnePacket@handle:
   709                           	opt stack 0
   710                           
   711                           ; 2 bytes @ 0x2F
   712  00008F                     	ds	1
   713  000090                     memset@p:
   714                           	opt stack 0
   715                           
   716                           ; 2 bytes @ 0x30
   717  000090                     	ds	1
   718  000091                     ??_ReadSfr:
   719  000091                     ??_WriteSfr:
   720  000091                     ??_AdcValue:
   721  000091                     ??_SpiTransference:
   722  000091                     ??_I2cTransference:
   723  000091                     ??_Test:
   724                           
   725                           ; 0 bytes @ 0x31
   726  000091                     	ds	1
   727  000092                     USBDeviceInit@i:
   728                           	opt stack 0
   729  000092                     ReadSfr@FSR0Ltemp:
   730                           	opt stack 0
   731  000092                     WriteSfr@FSR0Ltemp:
   732                           	opt stack 0
   733  000092                     _AdcValue$3344:
   734                           	opt stack 0
   735                           
   736                           ; 2 bytes @ 0x32
   737  000092                     	ds	2
   738  000094                     ReadSfr@FSR0Htemp:
   739                           	opt stack 0
   740  000094                     WriteSfr@FSR0Htemp:
   741                           	opt stack 0
   742  000094                     _AdcValue$3345:
   743                           	opt stack 0
   744  000094                     _SpiTransference$3367:
   745                           	opt stack 0
   746                           
   747                           ; 2 bytes @ 0x34
   748  000094                     	ds	2
   749  000096                     _ReadSfr$3335:
   750                           	opt stack 0
   751  000096                     _WriteSfr$3339:
   752                           	opt stack 0
   753  000096                     _AdcValue$3346:
   754                           	opt stack 0
   755  000096                     _SpiTransference$3368:
   756                           	opt stack 0
   757  000096                     _I2cTransference$3420:
   758                           	opt stack 0
   759                           
   760                           ; 2 bytes @ 0x36
   761  000096                     	ds	2
   762  000098                     _SpiTransference$3369:
   763                           	opt stack 0
   764  000098                     _I2cTransference$3421:
   765                           	opt stack 0
   766                           
   767                           ; 2 bytes @ 0x38
   768  000098                     	ds	2
   769  00009A                     SpiTransference@counter:
   770                           	opt stack 0
   771  00009A                     _I2cTransference$3422:
   772                           	opt stack 0
   773                           
   774                           ; 2 bytes @ 0x3A
   775  00009A                     	ds	2
   776  00009C                     SpiTransference@i:
   777                           	opt stack 0
   778  00009C                     I2cTransference@i:
   779                           	opt stack 0
   780                           
   781                           ; 2 bytes @ 0x3C
   782  00009C                     	ds	2
   783  00009E                     I2cTransference@i_3432:
   784                           	opt stack 0
   785                           
   786                           ; 2 bytes @ 0x3E
   787  00009E                     	ds	2
   788  0000A0                     ??_APP_DeviceCustomHIDTasks:
   789                           
   790                           ; 0 bytes @ 0x40
   791  0000A0                     	ds	1
   792  0000A1                     _APP_DeviceCustomHIDTasks$2368:
   793                           	opt stack 0
   794                           
   795                           ; 2 bytes @ 0x41
   796  0000A1                     	ds	2
   797  0000A3                     tblptru	equ	0xFF8
   798                           postinc0	equ	0xFEE
   799                           wreg	equ	0xFE8
   800                           
   801                           ; 0 bytes @ 0x43
   802                           
   803                           	psect	cstackCOMRAM
   804  000001                     __pcstackCOMRAM:
   805                           	opt stack 0
   806  000001                     ?i1_USBTransferOnePacket:
   807                           	opt stack 0
   808  000001                     i1USBTransferOnePacket@dir:
   809                           	opt stack 0
   810                           
   811                           ; 1 bytes @ 0x0
   812  000001                     	ds	1
   813  000002                     i1USBTransferOnePacket@data:
   814                           	opt stack 0
   815                           
   816                           ; 2 bytes @ 0x1
   817  000002                     	ds	2
   818  000004                     i1USBTransferOnePacket@len:
   819                           	opt stack 0
   820                           
   821                           ; 1 bytes @ 0x3
   822  000004                     	ds	1
   823  000005                     i1USBTransferOnePacket@ep:
   824                           	opt stack 0
   825                           
   826                           ; 1 bytes @ 0x4
   827  000005                     	ds	1
   828  000006                     i1USBTransferOnePacket@handle:
   829                           	opt stack 0
   830                           
   831                           ; 2 bytes @ 0x5
   832  000006                     	ds	2
   833  000008                     ??_ISRLowPriority:
   834                           
   835                           ; 0 bytes @ 0x7
   836  000008                     	ds	19
   837  00001B                     _ISRLowPriority$1906:
   838                           	opt stack 0
   839                           
   840                           ; 2 bytes @ 0x1A
   841  00001B                     	ds	2
   842  00001D                     ??_USBStdGetDscHandler:
   843  00001D                     ??_USBStdGetStatusHandler:
   844  00001D                     ??_USBCheckHIDRequest:
   845  00001D                     ?i2_USBTransferOnePacket:
   846                           	opt stack 0
   847  00001D                     USBConfigureEndpoint@direction:
   848                           	opt stack 0
   849  00001D                     USBCtrlTrfTxService@byteToSend:
   850                           	opt stack 0
   851  00001D                     USBCtrlTrfRxService@i:
   852                           	opt stack 0
   853  00001D                     i2USBTransferOnePacket@dir:
   854                           	opt stack 0
   855  00001D                     i2memset@p1:
   856                           	opt stack 0
   857                           
   858                           ; 2 bytes @ 0x1C
   859  00001D                     	ds	1
   860  00001E                     ??_USBConfigureEndpoint:
   861  00001E                     USBCtrlTrfRxService@byteToRead:
   862                           	opt stack 0
   863  00001E                     USBCtrlTrfInHandler@lastDTS:
   864                           	opt stack 0
   865  00001E                     USBStdGetStatusHandler@p:
   866                           	opt stack 0
   867  00001E                     i2USBTransferOnePacket@data:
   868                           	opt stack 0
   869                           
   870                           ; 2 bytes @ 0x1D
   871  00001E                     	ds	1
   872  00001F                     i2memset@c:
   873                           	opt stack 0
   874                           
   875                           ; 2 bytes @ 0x1E
   876  00001F                     	ds	1
   877  000020                     i2USBTransferOnePacket@len:
   878                           	opt stack 0
   879                           
   880                           ; 1 bytes @ 0x1F
   881  000020                     	ds	1
   882  000021                     i2USBTransferOnePacket@ep:
   883                           	opt stack 0
   884  000021                     i2memset@n:
   885                           	opt stack 0
   886                           
   887                           ; 2 bytes @ 0x20
   888  000021                     	ds	1
   889  000022                     USBConfigureEndpoint@EPNum:
   890                           	opt stack 0
   891  000022                     i2USBTransferOnePacket@handle:
   892                           	opt stack 0
   893                           
   894                           ; 2 bytes @ 0x21
   895  000022                     	ds	1
   896  000023                     USBConfigureEndpoint@handle:
   897                           	opt stack 0
   898  000023                     i2memset@p:
   899                           	opt stack 0
   900                           
   901                           ; 2 bytes @ 0x22
   902  000023                     	ds	2
   903  000025                     tblptru	equ	0xFF8
   904                           postinc0	equ	0xFEE
   905                           wreg	equ	0xFE8
   906                           
   907                           ; 0 bytes @ 0x24
   908 ;;
   909 ;;Main: autosize = 0, tempsize = 0, incstack = 0, save=0
   910 ;;
   911 ;; *************** function _main *****************
   912 ;; Defined at:
   913 ;;		line 33 in file "main.c"
   914 ;; Parameters:    Size  Location     Type
   915 ;;		None
   916 ;; Auto vars:     Size  Location     Type
   917 ;;		None
   918 ;; Return value:  Size  Location     Type
   919 ;;		None               void
   920 ;; Registers used:
   921 ;;		wreg, fsr2l, fsr2h, status,2, status,0, prodl, prodh, cstack
   922 ;; Tracked objects:
   923 ;;		On entry : 0/0
   924 ;;		On exit  : 0/0
   925 ;;		Unchanged: 0/0
   926 ;; Data sizes:     COMRAM   BANK0   BANK1   BANK2   BANK3   BANK4  BANK5h   BANK6   BANK7
   927 ;;      Params:         0       0       0       0       0       0       0       0       0
   928 ;;      Locals:         0       0       0       0       0       0       0       0       0
   929 ;;      Temps:          0       0       0       0       0       0       0       0       0
   930 ;;      Totals:         0       0       0       0       0       0       0       0       0
   931 ;;Total ram usage:        0 bytes
   932 ;; Hardware stack levels required when called:   15
   933 ;; This function calls:
   934 ;;		_APP_DeviceCustomHIDTasks
   935 ;;		_SYSTEM_Initialize
   936 ;;		_USBDeviceAttach
   937 ;;		_USBDeviceInit
   938 ;; This function is called by:
   939 ;;		Startup code after reset
   940 ;; This function uses a non-reentrant model
   941 ;;
   942                           
   943                           	psect	text0
   944  003F86                     __ptext0:
   945                           	opt stack 0
   946  003F86                     _main:
   947                           	opt stack 16
   948                           
   949                           ;main.c: 35: SYSTEM_Initialize(SYSTEM_STATE_USB_START);
   950                           
   951                           ; BSR set to: 0
   952                           ;incstack = 0
   953  003F86  0E00               	movlw	0
   954  003F88  EC40  F020         	call	_SYSTEM_Initialize
   955                           
   956                           ;main.c: 37: USBDeviceInit();
   957  003F8C  EC93  F00F         	call	_USBDeviceInit	;wreg free
   958                           
   959                           ;main.c: 38: USBDeviceAttach();
   960  003F90  ECDE  F01F         	call	_USBDeviceAttach	;wreg free
   961                           
   962                           ;main.c: 40: IPR1 = 0;
   963  003F94  0E00               	movlw	0
   964  003F96  6E9F               	movwf	3999,c	;volatile
   965                           
   966                           ;main.c: 41: IPR2 = 32;
   967  003F98  0E20               	movlw	32
   968  003F9A  6EA2               	movwf	4002,c	;volatile
   969                           
   970                           ;main.c: 42: RCONbits.IPEN = 1;
   971  003F9C  8ED0               	bsf	4048,7,c	;volatile
   972                           
   973                           ;main.c: 43: ADCON1bits.PCFG = 0x0F;
   974  003F9E  80C1               	bsf	4033,0,c	;volatile
   975  003FA0  82C1               	bsf	4033,1,c	;volatile
   976  003FA2  84C1               	bsf	4033,2,c	;volatile
   977  003FA4  86C1               	bsf	4033,3,c	;volatile
   978                           
   979                           ;main.c: 44: CMCONbits.CM = 7;
   980  003FA6  80B4               	bsf	4020,0,c	;volatile
   981  003FA8  82B4               	bsf	4020,1,c	;volatile
   982  003FAA  84B4               	bsf	4020,2,c	;volatile
   983  003FAC                     l8139:
   984                           
   985                           ;main.c: 47: {
   986                           ;main.c: 48: ;
   987                           ;main.c: 69: if( USBDeviceState < CONFIGURED_STATE )
   988  003FAC  0E20               	movlw	32
   989  003FAE  5C37               	subwf	_USBDeviceState,w,c	;volatile
   990  003FB0  B0D8               	btfsc	status,0,c
   991                           
   992                           ;main.c: 73: }
   993                           ;main.c: 79: if( UCONbits.SUSPND == 1 )
   994                           
   995                           ;main.c: 70: {
   996                           ;main.c: 72: continue;
   997  003FB2  B26D               	btfsc	3949,1,c	;volatile
   998  003FB4  D7FB               	goto	l8139
   999                           
  1000                           ;main.c: 83: }
  1001                           ;main.c: 86: APP_DeviceCustomHIDTasks();
  1002                           
  1003                           ;main.c: 80: {
  1004                           ;main.c: 82: continue;
  1005  003FB6  EC25  F013         	call	_APP_DeviceCustomHIDTasks	;wreg free
  1006  003FBA  D7F8               	goto	l8139
  1007  003FBC                     __end_of_main:
  1008                           	opt stack 0
  1009                           tblptru	equ	0xFF8
  1010                           postinc0	equ	0xFEE
  1011                           wreg	equ	0xFE8
  1012                           status	equ	0xFD8
  1013                           
  1014 ;; *************** function _USBDeviceInit *****************
  1015 ;; Defined at:
  1016 ;;		line 295 in file "usb_device.c"
  1017 ;; Parameters:    Size  Location     Type
  1018 ;;		None
  1019 ;; Auto vars:     Size  Location     Type
  1020 ;;  i               1   50[BANK0 ] unsigned char 
  1021 ;; Return value:  Size  Location     Type
  1022 ;;		None               void
  1023 ;; Registers used:
  1024 ;;		wreg, fsr2l, fsr2h, status,2, status,0, prodl, prodh, cstack
  1025 ;; Tracked objects:
  1026 ;;		On entry : 0/0
  1027 ;;		On exit  : 0/0
  1028 ;;		Unchanged: 0/0
  1029 ;; Data sizes:     COMRAM   BANK0   BANK1   BANK2   BANK3   BANK4  BANK5h   BANK6   BANK7
  1030 ;;      Params:         0       0       0       0       0       0       0       0       0
  1031 ;;      Locals:         0       1       0       0       0       0       0       0       0
  1032 ;;      Temps:          0       0       0       0       0       0       0       0       0
  1033 ;;      Totals:         0       1       0       0       0       0       0       0       0
  1034 ;;Total ram usage:        1 bytes
  1035 ;; Hardware stack levels used:    1
  1036 ;; Hardware stack levels required when called:   13
  1037 ;; This function calls:
  1038 ;;		_memset
  1039 ;; This function is called by:
  1040 ;;		_main
  1041 ;; This function uses a non-reentrant model
  1042 ;;
  1043                           
  1044                           	psect	text1
  1045  001F26                     __ptext1:
  1046                           	opt stack 0
  1047  001F26                     _USBDeviceInit:
  1048                           	opt stack 17
  1049                           
  1050                           ;usb_device.c: 297: uint8_t i;
  1051                           ;usb_device.c: 299: {PIE2bits.USBIE = 0;};
  1052                           
  1053                           ;incstack = 0
  1054  001F26  9AA0               	bcf	4000,5,c	;volatile
  1055                           
  1056                           ;usb_device.c: 302: {UEIR = 0;};
  1057  001F28  0E00               	movlw	0
  1058  001F2A  6E6A               	movwf	3946,c	;volatile
  1059                           
  1060                           ;usb_device.c: 305: {UIR = 0;};
  1061  001F2C  0E00               	movlw	0
  1062  001F2E  6E68               	movwf	3944,c	;volatile
  1063                           
  1064                           ;usb_device.c: 308: UEP0 = 0;
  1065  001F30  0E00               	movlw	0
  1066  001F32  6E70               	movwf	3952,c	;volatile
  1067                           
  1068                           ;usb_device.c: 310: memset((void*)&UEP1,0x00,(1));;
  1069  001F34  0E0F               	movlw	15	;volatile
  1070  001F36  0100               	movlb	0	; () banked
  1071  001F38  6F8B               	movwf	(memset@p1+1)& (0+255),b
  1072  001F3A  0E71               	movlw	113	;volatile
  1073  001F3C  0100               	movlb	0	; () banked
  1074  001F3E  6F8A               	movwf	memset@p1& (0+255),b
  1075  001F40  0E00               	movlw	0
  1076  001F42  0100               	movlb	0	; () banked
  1077  001F44  6F8D               	movwf	(memset@c+1)& (0+255),b
  1078  001F46  0E00               	movlw	0
  1079  001F48  0100               	movlb	0	; () banked
  1080  001F4A  6F8C               	movwf	memset@c& (0+255),b
  1081  001F4C  0E00               	movlw	0
  1082  001F4E  0100               	movlb	0	; () banked
  1083  001F50  6F8F               	movwf	(memset@n+1)& (0+255),b
  1084  001F52  0E01               	movlw	1
  1085  001F54  0100               	movlb	0	; () banked
  1086  001F56  6F8E               	movwf	memset@n& (0+255),b
  1087  001F58  EC6F  F01F         	call	_memset	;wreg free
  1088                           
  1089                           ;usb_device.c: 312: { UCFG = 0x10 | 0x00 | 0x04 | 0x02; UEIE = 0x9F; UIE = 0x39 | 0x40 |
      +                           0x02; };
  1090  001F5C  0E16               	movlw	22
  1091  001F5E  6E6F               	movwf	3951,c	;volatile
  1092  001F60  0E9F               	movlw	159
  1093  001F62  6E6B               	movwf	3947,c	;volatile
  1094  001F64  0E7B               	movlw	123
  1095  001F66  6E69               	movwf	3945,c	;volatile
  1096                           
  1097                           ;usb_device.c: 315: ;
  1098                           ;usb_device.c: 318: ;
  1099                           ;usb_device.c: 321: for(i = 0; i < (sizeof(BDT)/sizeof(BDT_ENTRY)); i++)
  1100  001F68  0E00               	movlw	0
  1101  001F6A  0100               	movlb	0	; () banked
  1102  001F6C  6F92               	movwf	USBDeviceInit@i& (0+255),b
  1103  001F6E  D011               	goto	L1
  1104  001F70                     l5913:
  1105                           
  1106                           ; BSR set to: 0
  1107                           ;usb_device.c: 322: {
  1108                           ;usb_device.c: 323: BDT[i].Val = 0x00;
  1109  001F70  0100               	movlb	0	; () banked
  1110  001F72  5192               	movf	USBDeviceInit@i& (0+255),w,b
  1111  001F74  0D04               	mullw	4
  1112  001F76  0104               	movlb	4	; () banked
  1113  001F78  0E00               	movlw	0	;volatile
  1114  001F7A  24F3               	addwf	prodl,w,c
  1115  001F7C  6ED9               	movwf	fsr2l,c
  1116  001F7E  0104               	movlb	4	; () banked
  1117  001F80  0E04               	movlw	4	;volatile
  1118  001F82  20F4               	addwfc	prodh,w,c
  1119  001F84  6EDA               	movwf	fsr2h,c
  1120  001F86  6ADE               	clrf	postinc2,c
  1121  001F88  6ADE               	clrf	postinc2,c
  1122  001F8A  6ADE               	clrf	postinc2,c
  1123  001F8C  6ADD               	clrf	postdec2,c
  1124                           
  1125                           ; BSR set to: 4
  1126  001F8E  0100               	movlb	0	; () banked
  1127  001F90  2B92               	incf	USBDeviceInit@i& (0+255),f,b
  1128  001F92                     L1:
  1129                           
  1130                           ; BSR set to: 0
  1131  001F92  0E07               	movlw	7
  1132  001F94  0100               	movlb	0	; () banked
  1133  001F96  6592               	cpfsgt	USBDeviceInit@i& (0+255),b
  1134  001F98  D7EB               	goto	l5913
  1135                           
  1136                           ; BSR set to: 0
  1137                           ;usb_device.c: 324: }
  1138                           ;usb_device.c: 327: UCONbits.PPBRST = 1;
  1139  001F9A  8C6D               	bsf	3949,6,c	;volatile
  1140                           
  1141                           ; BSR set to: 0
  1142                           ;usb_device.c: 330: UADDR = 0x00;
  1143  001F9C  0E00               	movlw	0
  1144  001F9E  6E6E               	movwf	3950,c	;volatile
  1145                           
  1146                           ; BSR set to: 0
  1147                           ;usb_device.c: 333: UCONbits.PKTDIS = 0;
  1148  001FA0  986D               	bcf	3949,4,c	;volatile
  1149                           
  1150                           ; BSR set to: 0
  1151                           ;usb_device.c: 336: UCONbits.PPBRST = 0;
  1152  001FA2  9C6D               	bcf	3949,6,c	;volatile
  1153  001FA4                     l5925:
  1154                           
  1155                           ; BSR set to: 0
  1156                           ;usb_device.c: 340: {
  1157                           ;usb_device.c: 341: (UIR &= 0xF7);
  1158  001FA4  9668               	bcf	3944,3,c	;volatile
  1159                           
  1160                           ; BSR set to: 0
  1161                           ;usb_device.c: 343: inPipes[0].info.Val = 0;
  1162  001FA6  0E00               	movlw	0
  1163  001FA8  0100               	movlb	0	; () banked
  1164  001FAA  6FC8               	movwf	(_inPipes+3)& (0+255),b	;volatile
  1165                           
  1166                           ; BSR set to: 0
  1167                           ;usb_device.c: 344: outPipes[0].info.Val = 0;
  1168  001FAC  0E00               	movlw	0
  1169  001FAE  0100               	movlb	0	; () banked
  1170  001FB0  6FA6               	movwf	(_outPipes+3)& (0+255),b	;volatile
  1171                           
  1172                           ; BSR set to: 0
  1173                           ;usb_device.c: 345: outPipes[0].wCount.Val = 0;
  1174  001FB2  0E00               	movlw	0
  1175  001FB4  0100               	movlb	0	; () banked
  1176  001FB6  6FA8               	movwf	(_outPipes+5)& (0+255),b	;volatile
  1177  001FB8  0E00               	movlw	0
  1178  001FBA  0100               	movlb	0	; () banked
  1179  001FBC  6FA7               	movwf	(_outPipes+4)& (0+255),b	;volatile
  1180                           
  1181                           ; BSR set to: 0
  1182                           ;usb_device.c: 346: }while(UIRbits.TRNIF == 1);
  1183  001FBE  B668               	btfsc	3944,3,c	;volatile
  1184  001FC0  D7F1               	goto	l5925
  1185                           
  1186                           ; BSR set to: 0
  1187                           ;usb_device.c: 350: USBStatusStageEnabledFlag1 = 1;
  1188                           
  1189                           ; BSR set to: 0
  1190  001FC2  0E01               	movlw	1
  1191  001FC4  6E38               	movwf	_USBStatusStageEnabledFlag1,c	;volatile
  1192                           
  1193                           ;usb_device.c: 351: USBStatusStageEnabledFlag2 = 1;
  1194  001FC6  0E01               	movlw	1
  1195  001FC8  6E39               	movwf	_USBStatusStageEnabledFlag2,c	;volatile
  1196                           
  1197                           ;usb_device.c: 353: USBDeferINDataStagePackets = 0;
  1198  001FCA  0E00               	movlw	0
  1199  001FCC  6E34               	movwf	_USBDeferINDataStagePackets,c	;volatile
  1200                           
  1201                           ;usb_device.c: 354: USBDeferOUTDataStagePackets = 0;
  1202  001FCE  0E00               	movlw	0
  1203  001FD0  6E35               	movwf	_USBDeferOUTDataStagePackets,c	;volatile
  1204                           
  1205                           ;usb_device.c: 355: USBBusIsSuspended = 0;
  1206  001FD2  0E00               	movlw	0
  1207  001FD4  6E33               	movwf	_USBBusIsSuspended,c	;volatile
  1208                           
  1209                           ;usb_device.c: 359: for(i = 0; i < (uint8_t)(1+1u); i++)
  1210  001FD6  0E00               	movlw	0
  1211  001FD8  0100               	movlb	0	; () banked
  1212  001FDA  6F92               	movwf	USBDeviceInit@i& (0+255),b
  1213  001FDC  D03A               	goto	L2
  1214  001FDE                     l5941:
  1215                           
  1216                           ; BSR set to: 0
  1217                           ;usb_device.c: 360: {
  1218                           ;usb_device.c: 361: pBDTEntryIn[i] = 0u;
  1219  001FDE  0100               	movlb	0	; () banked
  1220  001FE0  5192               	movf	USBDeviceInit@i& (0+255),w,b
  1221  001FE2  0D02               	mullw	2
  1222  001FE4  0100               	movlb	0	; () banked
  1223  001FE6  0EAB               	movlw	low _pBDTEntryIn
  1224  001FE8  24F3               	addwf	prodl,w,c
  1225  001FEA  6ED9               	movwf	fsr2l,c
  1226  001FEC  0100               	movlb	0	; () banked
  1227  001FEE  0E00               	movlw	high _pBDTEntryIn
  1228  001FF0  20F4               	addwfc	prodh,w,c
  1229  001FF2  6EDA               	movwf	fsr2h,c
  1230  001FF4  0E00               	movlw	0
  1231  001FF6  6EDE               	movwf	postinc2,c
  1232  001FF8  0E00               	movlw	0
  1233  001FFA  6EDD               	movwf	postdec2,c
  1234                           
  1235                           ;usb_device.c: 362: pBDTEntryOut[i] = 0u;
  1236  001FFC  0100               	movlb	0	; () banked
  1237  001FFE  5192               	movf	USBDeviceInit@i& (0+255),w,b
  1238  002000  0D02               	mullw	2
  1239  002002  0100               	movlb	0	; () banked
  1240  002004  0EAF               	movlw	low _pBDTEntryOut
  1241  002006  24F3               	addwf	prodl,w,c
  1242  002008  6ED9               	movwf	fsr2l,c
  1243  00200A  0100               	movlb	0	; () banked
  1244  00200C  0E00               	movlw	high _pBDTEntryOut
  1245  00200E  20F4               	addwfc	prodh,w,c
  1246  002010  6EDA               	movwf	fsr2h,c
  1247  002012  0E00               	movlw	0
  1248  002014  6EDE               	movwf	postinc2,c
  1249  002016  0E00               	movlw	0
  1250  002018  6EDD               	movwf	postdec2,c
  1251                           
  1252                           ;usb_device.c: 363: ep_data_in[i].Val = 0u;
  1253  00201A  0100               	movlb	0	; () banked
  1254  00201C  5192               	movf	USBDeviceInit@i& (0+255),w,b
  1255  00201E  0D01               	mullw	1
  1256  002020  0100               	movlb	0	; () banked
  1257  002022  0EBF               	movlw	low _ep_data_in	;volatile
  1258  002024  24F3               	addwf	prodl,w,c
  1259  002026  6ED9               	movwf	fsr2l,c
  1260  002028  0100               	movlb	0	; () banked
  1261  00202A  0E00               	movlw	high _ep_data_in	;volatile
  1262  00202C  20F4               	addwfc	prodh,w,c
  1263  00202E  6EDA               	movwf	fsr2h,c
  1264  002030  0E00               	movlw	0
  1265  002032  6EDF               	movwf	indf2,c
  1266                           
  1267                           ;usb_device.c: 364: ep_data_out[i].Val = 0u;
  1268  002034  0100               	movlb	0	; () banked
  1269  002036  5192               	movf	USBDeviceInit@i& (0+255),w,b
  1270  002038  0D01               	mullw	1
  1271  00203A  0100               	movlb	0	; () banked
  1272  00203C  0EC1               	movlw	low _ep_data_out	;volatile
  1273  00203E  24F3               	addwf	prodl,w,c
  1274  002040  6ED9               	movwf	fsr2l,c
  1275  002042  0100               	movlb	0	; () banked
  1276  002044  0E00               	movlw	high _ep_data_out	;volatile
  1277  002046  20F4               	addwfc	prodh,w,c
  1278  002048  6EDA               	movwf	fsr2h,c
  1279  00204A  0E00               	movlw	0
  1280  00204C  6EDF               	movwf	indf2,c
  1281                           
  1282                           ; BSR set to: 0
  1283  00204E  0100               	movlb	0	; () banked
  1284  002050  2B92               	incf	USBDeviceInit@i& (0+255),f,b
  1285  002052                     L2:
  1286                           
  1287                           ; BSR set to: 0
  1288  002052  0E01               	movlw	1
  1289  002054  0100               	movlb	0	; () banked
  1290  002056  6592               	cpfsgt	USBDeviceInit@i& (0+255),b
  1291  002058  D7C2               	goto	l5941
  1292                           
  1293                           ; BSR set to: 0
  1294                           ;usb_device.c: 365: }
  1295                           ;usb_device.c: 368: pBDTEntryIn[0] = (volatile BDT_ENTRY*)&BDT[2];
  1296                           
  1297                           ; BSR set to: 0
  1298  00205A  0104               	movlb	4	; () banked
  1299  00205C  0E04               	movlw	4	;volatile
  1300  00205E  0100               	movlb	0	; () banked
  1301  002060  6FAC               	movwf	(_pBDTEntryIn+1)& (0+255),b
  1302  002062  0104               	movlb	4	; () banked
  1303  002064  0E08               	movlw	8	;volatile
  1304  002066  0100               	movlb	0	; () banked
  1305  002068  6FAB               	movwf	_pBDTEntryIn& (0+255),b
  1306                           
  1307                           ; BSR set to: 0
  1308                           ;usb_device.c: 370: UEP0 = 0x06|0x10;
  1309  00206A  0E16               	movlw	22
  1310  00206C  6E70               	movwf	3952,c	;volatile
  1311                           
  1312                           ; BSR set to: 0
  1313                           ;usb_device.c: 372: BDT[0].ADR = ((uint16_t)(&SetupPkt));
  1314  00206E  0E04               	movlw	4
  1315  002070  0104               	movlb	4	; () banked
  1316  002072  6F03               	movwf	3,b	;volatile
  1317  002074  0E20               	movlw	32
  1318  002076  0104               	movlb	4	; () banked
  1319  002078  6F02               	movwf	2,b	;volatile
  1320                           
  1321                           ; BSR set to: 4
  1322                           ;usb_device.c: 373: BDT[0].CNT = 8;
  1323  00207A  0E08               	movlw	8
  1324  00207C  0104               	movlb	4	; () banked
  1325  00207E  6F01               	movwf	1,b	;volatile
  1326                           
  1327                           ; BSR set to: 4
  1328                           ;usb_device.c: 374: BDT[0].STAT.Val = 0x00|0x04;
  1329  002080  0E04               	movlw	4
  1330  002082  0104               	movlb	4	; () banked
  1331  002084  6F00               	movwf	0,b	;volatile
  1332                           
  1333                           ; BSR set to: 4
  1334                           ;usb_device.c: 375: BDT[0].STAT.Val |= 0x80;
  1335  002086  0104               	movlb	4	; () banked
  1336  002088  8F00               	bsf	0,7,b	;volatile
  1337                           
  1338                           ; BSR set to: 4
  1339                           ;usb_device.c: 378: USBActiveConfiguration = 0;
  1340  00208A  0E00               	movlw	0
  1341  00208C  6E3F               	movwf	_USBActiveConfiguration,c	;volatile
  1342                           
  1343                           ; BSR set to: 4
  1344                           ;usb_device.c: 380: USB1msTickCount = 0;
  1345  00208E  0E00               	movlw	0
  1346  002090  6E25               	movwf	_USB1msTickCount,c	;volatile
  1347  002092  0E00               	movlw	0
  1348  002094  6E26               	movwf	_USB1msTickCount+1,c	;volatile
  1349  002096  0E00               	movlw	0
  1350  002098  6E27               	movwf	_USB1msTickCount+2,c	;volatile
  1351  00209A  0E00               	movlw	0
  1352  00209C  6E28               	movwf	_USB1msTickCount+3,c	;volatile
  1353                           
  1354                           ; BSR set to: 4
  1355                           ;usb_device.c: 381: USBTicksSinceSuspendEnd = 0;
  1356  00209E  0E00               	movlw	0
  1357  0020A0  6E3B               	movwf	_USBTicksSinceSuspendEnd,c	;volatile
  1358                           
  1359                           ; BSR set to: 4
  1360                           ;usb_device.c: 384: USBDeviceState = DETACHED_STATE;
  1361  0020A2  0E00               	movlw	0
  1362  0020A4  6E37               	movwf	_USBDeviceState,c	;volatile
  1363                           
  1364                           ; BSR set to: 4
  1365  0020A6  0012               	return	
  1366  0020A8                     __end_of_USBDeviceInit:
  1367                           	opt stack 0
  1368                           tblptru	equ	0xFF8
  1369                           prodh	equ	0xFF4
  1370                           prodl	equ	0xFF3
  1371                           postinc0	equ	0xFEE
  1372                           wreg	equ	0xFE8
  1373                           indf2	equ	0xFDF
  1374                           postinc2	equ	0xFDE
  1375                           postdec2	equ	0xFDD
  1376                           fsr2h	equ	0xFDA
  1377                           fsr2l	equ	0xFD9
  1378                           status	equ	0xFD8
  1379                           
  1380 ;; *************** function _memset *****************
  1381 ;; Defined at:
  1382 ;;		line 8 in file "C:\Program Files (x86)\Microchip\xc8\v1.32\sources\common\memset.c"
  1383 ;; Parameters:    Size  Location     Type
  1384 ;;  p1              2   42[BANK0 ] PTR void 
  1385 ;;		 -> USBAlternateInterface(1), BDT(32), UEP1(1), 
  1386 ;;  c               2   44[BANK0 ] int 
  1387 ;;  n               2   46[BANK0 ] unsigned int 
  1388 ;; Auto vars:     Size  Location     Type
  1389 ;;  p               2   48[BANK0 ] PTR unsigned char 
  1390 ;;		 -> USBAlternateInterface(1), BDT(32), UEP1(1), 
  1391 ;; Return value:  Size  Location     Type
  1392 ;;                  2   42[BANK0 ] PTR void 
  1393 ;; Registers used:
  1394 ;;		wreg, fsr2l, fsr2h, status,2, status,0
  1395 ;; Tracked objects:
  1396 ;;		On entry : 0/0
  1397 ;;		On exit  : 0/0
  1398 ;;		Unchanged: 0/0
  1399 ;; Data sizes:     COMRAM   BANK0   BANK1   BANK2   BANK3   BANK4  BANK5h   BANK6   BANK7
  1400 ;;      Params:         0       6       0       0       0       0       0       0       0
  1401 ;;      Locals:         0       2       0       0       0       0       0       0       0
  1402 ;;      Temps:          0       0       0       0       0       0       0       0       0
  1403 ;;      Totals:         0       8       0       0       0       0       0       0       0
  1404 ;;Total ram usage:        8 bytes
  1405 ;; Hardware stack levels used:    1
  1406 ;; Hardware stack levels required when called:   12
  1407 ;; This function calls:
  1408 ;;		Nothing
  1409 ;; This function is called by:
  1410 ;;		_USBDeviceInit
  1411 ;; This function uses a non-reentrant model
  1412 ;;
  1413                           
  1414                           	psect	text2
  1415  003EDE                     __ptext2:
  1416                           	opt stack 0
  1417  003EDE                     _memset:
  1418                           	opt stack 17
  1419                           
  1420                           ; BSR set to: 4
  1421                           ;incstack = 0
  1422  003EDE  0100               	movlb	0	; () banked
  1423  003EE0  C08B  F091         	movff	memset@p1+1,memset@p+1
  1424  003EE4  0100               	movlb	0	; () banked
  1425  003EE6  C08A  F090         	movff	memset@p1,memset@p
  1426  003EEA  D00A               	goto	l4797
  1427  003EEC                     l4793:
  1428                           
  1429                           ; BSR set to: 0
  1430  003EEC  C090  FFD9         	movff	memset@p,fsr2l
  1431  003EF0  C091  FFDA         	movff	memset@p+1,fsr2h
  1432  003EF4  0100               	movlb	0	; () banked
  1433  003EF6  C08C  FFDF         	movff	memset@c,indf2
  1434                           
  1435                           ; BSR set to: 0
  1436  003EFA  0100               	movlb	0	; () banked
  1437  003EFC  4B90               	infsnz	memset@p& (0+255),f,b
  1438  003EFE  2B91               	incf	(memset@p+1)& (0+255),f,b
  1439  003F00                     l4797:
  1440                           
  1441                           ; BSR set to: 0
  1442  003F00  0100               	movlb	0	; () banked
  1443  003F02  078E               	decf	memset@n& (0+255),f,b
  1444  003F04  A0D8               	btfss	status,0,c
  1445  003F06  078F               	decf	(memset@n+1)& (0+255),f,b
  1446  003F08  0100               	movlb	0	; () banked
  1447  003F0A  298E               	incf	memset@n& (0+255),w,b
  1448  003F0C  B4D8               	btfsc	status,2,c
  1449  003F0E  298F               	incf	(memset@n+1)& (0+255),w,b
  1450  003F10  B4D8               	btfsc	status,2,c
  1451                           
  1452                           ; BSR set to: 0
  1453                           
  1454                           ; BSR set to: 0
  1455                           ;	Return value of _memset is never used
  1456  003F12  0012               	return	
  1457  003F14  D7EB               	goto	l4793
  1458  003F16                     __end_of_memset:
  1459                           	opt stack 0
  1460                           tblptru	equ	0xFF8
  1461                           prodh	equ	0xFF4
  1462                           prodl	equ	0xFF3
  1463                           postinc0	equ	0xFEE
  1464                           wreg	equ	0xFE8
  1465                           indf2	equ	0xFDF
  1466                           postinc2	equ	0xFDE
  1467                           postdec2	equ	0xFDD
  1468                           fsr2h	equ	0xFDA
  1469                           fsr2l	equ	0xFD9
  1470                           status	equ	0xFD8
  1471                           
  1472 ;; *************** function _USBDeviceAttach *****************
  1473 ;; Defined at:
  1474 ;;		line 1366 in file "usb_device.c"
  1475 ;; Parameters:    Size  Location     Type
  1476 ;;		None
  1477 ;; Auto vars:     Size  Location     Type
  1478 ;;		None
  1479 ;; Return value:  Size  Location     Type
  1480 ;;		None               void
  1481 ;; Registers used:
  1482 ;;		wreg, status,2
  1483 ;; Tracked objects:
  1484 ;;		On entry : 0/0
  1485 ;;		On exit  : 0/0
  1486 ;;		Unchanged: 0/0
  1487 ;; Data sizes:     COMRAM   BANK0   BANK1   BANK2   BANK3   BANK4  BANK5h   BANK6   BANK7
  1488 ;;      Params:         0       0       0       0       0       0       0       0       0
  1489 ;;      Locals:         0       0       0       0       0       0       0       0       0
  1490 ;;      Temps:          0       0       0       0       0       0       0       0       0
  1491 ;;      Totals:         0       0       0       0       0       0       0       0       0
  1492 ;;Total ram usage:        0 bytes
  1493 ;; Hardware stack levels used:    1
  1494 ;; Hardware stack levels required when called:   12
  1495 ;; This function calls:
  1496 ;;		Nothing
  1497 ;; This function is called by:
  1498 ;;		_main
  1499 ;; This function uses a non-reentrant model
  1500 ;;
  1501                           
  1502                           	psect	text3
  1503  003FBC                     __ptext3:
  1504                           	opt stack 0
  1505  003FBC                     _USBDeviceAttach:
  1506                           	opt stack 18
  1507                           
  1508                           ;usb_device.c: 1370: {
  1509                           ;usb_device.c: 1371: if(1 == 1)
  1510                           
  1511                           ; BSR set to: 0
  1512                           ;incstack = 0
  1513  003FBC  6637               	tstfsz	_USBDeviceState,c	;volatile
  1514  003FBE  D014               	goto	l201
  1515                           
  1516                           ;usb_device.c: 1372: {
  1517                           ;usb_device.c: 1374: UCON = 0;
  1518  003FC0  0E00               	movlw	0
  1519  003FC2  6E6D               	movwf	3949,c	;volatile
  1520                           
  1521                           ;usb_device.c: 1377: UIE = 0;
  1522  003FC4  0E00               	movlw	0
  1523  003FC6  6E69               	movwf	3945,c	;volatile
  1524                           
  1525                           ;usb_device.c: 1381: { UCFG = 0x10 | 0x00 | 0x04 | 0x02; UEIE = 0x9F; UIE = 0x39 | 0x40 
      +                          | 0x02; };
  1526  003FC8  0E16               	movlw	22
  1527  003FCA  6E6F               	movwf	3951,c	;volatile
  1528  003FCC  0E9F               	movlw	159
  1529  003FCE  6E6B               	movwf	3947,c	;volatile
  1530  003FD0  0E7B               	movlw	123
  1531  003FD2  6E69               	movwf	3945,c	;volatile
  1532                           
  1533                           ;usb_device.c: 1383: {RCONbits.IPEN = 1;IPR2bits.USBIP = 1;PIE2bits.USBIE = 1;INTCONbits
      +                          .GIEH = 1;};
  1534  003FD4  8ED0               	bsf	4048,7,c	;volatile
  1535  003FD6  8AA2               	bsf	4002,5,c	;volatile
  1536  003FD8  8AA0               	bsf	4000,5,c	;volatile
  1537  003FDA  8EF2               	bsf	intcon,7,c	;volatile
  1538                           
  1539                           ;usb_device.c: 1386: while(!UCONbits.USBEN){UCONbits.USBEN = 1;}
  1540  003FDC  D001               	goto	l198
  1541  003FDE                     l199:
  1542  003FDE  866D               	bsf	3949,3,c	;volatile
  1543  003FE0                     l198:
  1544  003FE0  A66D               	btfss	3949,3,c	;volatile
  1545  003FE2  D7FD               	goto	l199
  1546                           
  1547                           ;usb_device.c: 1389: USBDeviceState = ATTACHED_STATE;
  1548  003FE4  0E01               	movlw	1
  1549  003FE6  6E37               	movwf	_USBDeviceState,c	;volatile
  1550  003FE8                     l201:
  1551  003FE8  0012               	return	
  1552  003FEA                     __end_of_USBDeviceAttach:
  1553                           	opt stack 0
  1554                           tblptru	equ	0xFF8
  1555                           prodh	equ	0xFF4
  1556                           prodl	equ	0xFF3
  1557                           intcon	equ	0xFF2
  1558                           postinc0	equ	0xFEE
  1559                           wreg	equ	0xFE8
  1560                           indf2	equ	0xFDF
  1561                           postinc2	equ	0xFDE
  1562                           postdec2	equ	0xFDD
  1563                           fsr2h	equ	0xFDA
  1564                           fsr2l	equ	0xFD9
  1565                           status	equ	0xFD8
  1566                           
  1567 ;; *************** function _SYSTEM_Initialize *****************
  1568 ;; Defined at:
  1569 ;;		line 81 in file "system.c"
  1570 ;; Parameters:    Size  Location     Type
  1571 ;;  state           1    wreg     enum E4775
  1572 ;; Auto vars:     Size  Location     Type
  1573 ;;  state           1   42[BANK0 ] enum E4775
  1574 ;; Return value:  Size  Location     Type
  1575 ;;		None               void
  1576 ;; Registers used:
  1577 ;;		wreg, status,2, status,0
  1578 ;; Tracked objects:
  1579 ;;		On entry : 0/0
  1580 ;;		On exit  : 0/0
  1581 ;;		Unchanged: 0/0
  1582 ;; Data sizes:     COMRAM   BANK0   BANK1   BANK2   BANK3   BANK4  BANK5h   BANK6   BANK7
  1583 ;;      Params:         0       0       0       0       0       0       0       0       0
  1584 ;;      Locals:         0       1       0       0       0       0       0       0       0
  1585 ;;      Temps:          0       0       0       0       0       0       0       0       0
  1586 ;;      Totals:         0       1       0       0       0       0       0       0       0
  1587 ;;Total ram usage:        1 bytes
  1588 ;; Hardware stack levels used:    1
  1589 ;; Hardware stack levels required when called:   12
  1590 ;; This function calls:
  1591 ;;		Nothing
  1592 ;; This function is called by:
  1593 ;;		_main
  1594 ;; This function uses a non-reentrant model
  1595 ;;
  1596                           
  1597                           	psect	text4
  1598  004080                     __ptext4:
  1599                           	opt stack 0
  1600  004080                     _SYSTEM_Initialize:
  1601                           	opt stack 18
  1602                           
  1603                           ;incstack = 0
  1604                           ;SYSTEM_Initialize@state stored from wreg
  1605  004080  0100               	movlb	0	; () banked
  1606  004082  6F8A               	movwf	SYSTEM_Initialize@state& (0+255),b
  1607                           
  1608                           ; BSR set to: 0
  1609                           
  1610                           ; BSR set to: 0
  1611                           
  1612                           ; BSR set to: 0
  1613                           ;system.c: 93: }
  1614                           
  1615                           ; BSR set to: 0
  1616                           ;system.c: 92: break;
  1617                           
  1618                           ;system.c: 91: case SYSTEM_STATE_USB_RESUME:
  1619                           
  1620                           ; BSR set to: 0
  1621                           ;system.c: 89: break;
  1622                           
  1623                           ;system.c: 88: case SYSTEM_STATE_USB_SUSPEND:
  1624                           
  1625                           ; BSR set to: 0
  1626                           ;system.c: 86: break;
  1627                           
  1628                           ;system.c: 84: {
  1629                           ;system.c: 85: case SYSTEM_STATE_USB_START:
  1630                           
  1631                           ; BSR set to: 0
  1632                           ;system.c: 83: switch(state)
  1633  004084  0100               	movlb	0	; () banked
  1634  004086  518A               	movf	SYSTEM_Initialize@state& (0+255),w,b
  1635                           
  1636                           ; Switch size 1, requested type "space"
  1637                           ; Number of cases is 3, Range of values is 0 to 2
  1638                           ; switch strategies available:
  1639                           ; Name         Instructions Cycles
  1640                           ; simple_byte           10     6 (average)
  1641                           ;	Chosen strategy is simple_byte
  1642  004088  0A00               	xorlw	0	; case 0
  1643  00408A  B4D8               	btfsc	status,2,c
  1644  00408C  D003               	goto	l459
  1645  00408E  0A01               	xorlw	1	; case 1
  1646  004090  A4D8               	btfss	status,2,c
  1647  004092  0A03               	xorlw	3	; case 2
  1648  004094                     l459:
  1649                           
  1650                           ; BSR set to: 0
  1651  004094  0012               	return	
  1652  004096                     __end_of_SYSTEM_Initialize:
  1653                           	opt stack 0
  1654                           tblptru	equ	0xFF8
  1655                           prodh	equ	0xFF4
  1656                           prodl	equ	0xFF3
  1657                           intcon	equ	0xFF2
  1658                           postinc0	equ	0xFEE
  1659                           wreg	equ	0xFE8
  1660                           indf2	equ	0xFDF
  1661                           postinc2	equ	0xFDE
  1662                           postdec2	equ	0xFDD
  1663                           fsr2h	equ	0xFDA
  1664                           fsr2l	equ	0xFD9
  1665                           status	equ	0xFD8
  1666                           
  1667 ;; *************** function _APP_DeviceCustomHIDTasks *****************
  1668 ;; Defined at:
  1669 ;;		line 126 in file "app_device_custom_hid.c"
  1670 ;; Parameters:    Size  Location     Type
  1671 ;;		None
  1672 ;; Auto vars:     Size  Location     Type
  1673 ;;		None
  1674 ;; Return value:  Size  Location     Type
  1675 ;;		None               void
  1676 ;; Registers used:
  1677 ;;		wreg, fsr2l, fsr2h, status,2, status,0, prodl, prodh, cstack
  1678 ;; Tracked objects:
  1679 ;;		On entry : 0/0
  1680 ;;		On exit  : 0/0
  1681 ;;		Unchanged: 0/0
  1682 ;; Data sizes:     COMRAM   BANK0   BANK1   BANK2   BANK3   BANK4  BANK5h   BANK6   BANK7
  1683 ;;      Params:         0       0       0       0       0       0       0       0       0
  1684 ;;      Locals:         0       2       0       0       0       0       0       0       0
  1685 ;;      Temps:          0       1       0       0       0       0       0       0       0
  1686 ;;      Totals:         0       3       0       0       0       0       0       0       0
  1687 ;;Total ram usage:        3 bytes
  1688 ;; Hardware stack levels used:    1
  1689 ;; Hardware stack levels required when called:   14
  1690 ;; This function calls:
  1691 ;;		_AdcBufferedRead
  1692 ;;		_AdcCfg
  1693 ;;		_AdcValue
  1694 ;;		_AnalogCmpCfg
  1695 ;;		_CcpCfg
  1696 ;;		_EusartRx
  1697 ;;		_EusartTx
  1698 ;;		_I2cCfg
  1699 ;;		_I2cTransference
  1700 ;;		_PwmDc
  1701 ;;		_PwmFpwm
  1702 ;;		_ReadSfr
  1703 ;;		_SfrChangeBitValue
  1704 ;;		_SfrReadBitValue
  1705 ;;		_SpiCfg
  1706 ;;		_SpiTransference
  1707 ;;		_Test
  1708 ;;		_USBTransferOnePacket
  1709 ;;		_WriteSfr
  1710 ;; This function is called by:
  1711 ;;		_main
  1712 ;; This function uses a non-reentrant model
  1713 ;;
  1714                           
  1715                           	psect	text5
  1716  00264A                     __ptext5:
  1717                           	opt stack 0
  1718  00264A                     _APP_DeviceCustomHIDTasks:
  1719                           	opt stack 16
  1720                           
  1721                           ;app_device_custom_hid.c: 129: if((USBOutHandle==0?0:((volatile BDT_ENTRY*)USBOutHandle)
      +                          ->STAT.UOWN) == 0)
  1722                           
  1723                           ; BSR set to: 0
  1724                           ;incstack = 0
  1725  00264A  0100               	movlb	0	; () banked
  1726  00264C  51BE               	movf	(_USBOutHandle+1)& (0+255),w,b
  1727  00264E  11BD               	iorwf	_USBOutHandle& (0+255),w,b
  1728  002650  B4D8               	btfsc	status,2,c
  1729  002652  D013               	goto	l8073
  1730                           
  1731                           ; BSR set to: 0
  1732  002654  C0BD  FFD9         	movff	_USBOutHandle,fsr2l
  1733  002658  C0BE  FFDA         	movff	_USBOutHandle+1,fsr2h
  1734  00265C  AEDF               	btfss	indf2,7,c
  1735  00265E  D004               	goto	u10260
  1736  002660  0100               	movlb	0	; () banked
  1737  002662  6BA0               	clrf	??_APP_DeviceCustomHIDTasks& (0+255),b
  1738  002664  2BA0               	incf	??_APP_DeviceCustomHIDTasks& (0+255),f,b
  1739  002666  D002               	goto	u10268
  1740  002668                     u10260:
  1741  002668  0100               	movlb	0	; () banked
  1742  00266A  6BA0               	clrf	??_APP_DeviceCustomHIDTasks& (0+255),b
  1743  00266C                     u10268:
  1744  00266C  0100               	movlb	0	; () banked
  1745  00266E  51A0               	movf	??_APP_DeviceCustomHIDTasks& (0+255),w,b
  1746  002670  0100               	movlb	0	; () banked
  1747  002672  6FA1               	movwf	_APP_DeviceCustomHIDTasks$2368& (0+255),b
  1748  002674  0100               	movlb	0	; () banked
  1749  002676  6BA2               	clrf	(_APP_DeviceCustomHIDTasks$2368+1)& (0+255),b
  1750  002678  D006               	goto	l8075
  1751  00267A                     l8073:
  1752                           
  1753                           ; BSR set to: 0
  1754  00267A  0E00               	movlw	0
  1755  00267C  0100               	movlb	0	; () banked
  1756  00267E  6FA2               	movwf	(_APP_DeviceCustomHIDTasks$2368+1)& (0+255),b
  1757  002680  0E00               	movlw	0
  1758  002682  0100               	movlb	0	; () banked
  1759  002684  6FA1               	movwf	_APP_DeviceCustomHIDTasks$2368& (0+255),b
  1760  002686                     l8075:
  1761                           
  1762                           ; BSR set to: 0
  1763  002686  0100               	movlb	0	; () banked
  1764  002688  51A2               	movf	(_APP_DeviceCustomHIDTasks$2368+1)& (0+255),w,b
  1765  00268A  11A1               	iorwf	_APP_DeviceCustomHIDTasks$2368& (0+255),w,b
  1766  00268C  B4D8               	btfsc	status,2,c
  1767  00268E  D037               	goto	l8117
  1768  002690  D085               	goto	l622
  1769  002692                     l8079:
  1770                           
  1771                           ;app_device_custom_hid.c: 138: ReadSfr();
  1772  002692  EC0F  F011         	call	_ReadSfr	;wreg free
  1773                           
  1774                           ;app_device_custom_hid.c: 139: break;
  1775  002696  D06B               	goto	l8119
  1776  002698                     l8081:
  1777                           
  1778                           ;app_device_custom_hid.c: 143: WriteSfr();
  1779  002698  ECC4  F011         	call	_WriteSfr	;wreg free
  1780                           
  1781                           ;app_device_custom_hid.c: 144: break;
  1782  00269C  D068               	goto	l8119
  1783  00269E                     l8083:
  1784                           
  1785                           ;app_device_custom_hid.c: 148: AdcCfg();
  1786  00269E  ECEA  F019         	call	_AdcCfg	;wreg free
  1787                           
  1788                           ;app_device_custom_hid.c: 149: break;
  1789  0026A2  D065               	goto	l8119
  1790  0026A4                     l8085:
  1791                           
  1792                           ;app_device_custom_hid.c: 153: AdcValue();
  1793  0026A4  EC76  F012         	call	_AdcValue	;wreg free
  1794                           
  1795                           ;app_device_custom_hid.c: 154: break;
  1796  0026A8  D062               	goto	l8119
  1797  0026AA                     l8087:
  1798                           
  1799                           ;app_device_custom_hid.c: 158: AnalogCmpCfg();
  1800  0026AA  EC5D  F01E         	call	_AnalogCmpCfg	;wreg free
  1801                           
  1802                           ;app_device_custom_hid.c: 159: break;
  1803  0026AE  D05F               	goto	l8119
  1804  0026B0                     l8089:
  1805                           
  1806                           ;app_device_custom_hid.c: 163: SpiCfg();
  1807  0026B0  EC12  F01F         	call	_SpiCfg	;wreg free
  1808                           
  1809                           ;app_device_custom_hid.c: 164: break;
  1810  0026B4  D05C               	goto	l8119
  1811  0026B6                     l8091:
  1812                           
  1813                           ;app_device_custom_hid.c: 168: SpiTransference();
  1814  0026B6  EC85  F00B         	call	_SpiTransference	;wreg free
  1815                           
  1816                           ;app_device_custom_hid.c: 169: break;
  1817  0026BA  D059               	goto	l8119
  1818  0026BC                     l8093:
  1819                           
  1820                           ;app_device_custom_hid.c: 173: SfrChangeBitValue();
  1821  0026BC  EC22  F016         	call	_SfrChangeBitValue	;wreg free
  1822                           
  1823                           ;app_device_custom_hid.c: 174: break;
  1824  0026C0  D056               	goto	l8119
  1825  0026C2                     l8095:
  1826                           
  1827                           ;app_device_custom_hid.c: 178: I2cCfg();
  1828  0026C2  EC55  F020         	call	_I2cCfg	;wreg free
  1829                           
  1830                           ;app_device_custom_hid.c: 179: break;
  1831  0026C6  D053               	goto	l8119
  1832  0026C8                     l8097:
  1833                           
  1834                           ;app_device_custom_hid.c: 183: I2cTransference();
  1835  0026C8  ECF3  F008         	call	_I2cTransference	;wreg free
  1836                           
  1837                           ;app_device_custom_hid.c: 184: break;
  1838  0026CC  D050               	goto	l8119
  1839  0026CE                     l8099:
  1840                           
  1841                           ;app_device_custom_hid.c: 188: CcpCfg();
  1842  0026CE  ECE9  F01E         	call	_CcpCfg	;wreg free
  1843                           
  1844                           ;app_device_custom_hid.c: 189: break;
  1845  0026D2  D04D               	goto	l8119
  1846  0026D4                     l8101:
  1847                           
  1848                           ;app_device_custom_hid.c: 193: PwmFpwm();
  1849  0026D4  EC4B  F020         	call	_PwmFpwm	;wreg free
  1850                           
  1851                           ;app_device_custom_hid.c: 194: break;
  1852  0026D8  D04A               	goto	l8119
  1853  0026DA                     l8103:
  1854                           
  1855                           ;app_device_custom_hid.c: 198: PwmDc();
  1856  0026DA  ECF5  F01F         	call	_PwmDc	;wreg free
  1857                           
  1858                           ;app_device_custom_hid.c: 199: break;
  1859  0026DE  D047               	goto	l8119
  1860  0026E0                     l8105:
  1861                           
  1862                           ;app_device_custom_hid.c: 203: SfrReadBitValue();
  1863  0026E0  EC1B  F01B         	call	_SfrReadBitValue	;wreg free
  1864                           
  1865                           ;app_device_custom_hid.c: 204: break;
  1866  0026E4  D044               	goto	l8119
  1867  0026E6                     l8107:
  1868                           
  1869                           ;app_device_custom_hid.c: 208: EusartTx();
  1870  0026E6  ECBD  F01D         	call	_EusartTx	;wreg free
  1871                           
  1872                           ;app_device_custom_hid.c: 209: break;
  1873  0026EA  D041               	goto	l8119
  1874  0026EC                     l8109:
  1875                           
  1876                           ;app_device_custom_hid.c: 213: EusartRx();
  1877  0026EC  EC84  F01D         	call	_EusartRx	;wreg free
  1878                           
  1879                           ;app_device_custom_hid.c: 214: break;
  1880  0026F0  D03E               	goto	l8119
  1881  0026F2                     l8111:
  1882                           
  1883                           ;app_device_custom_hid.c: 218: AdcBufferedRead();
  1884  0026F2  EC80  F019         	call	_AdcBufferedRead	;wreg free
  1885                           
  1886                           ;app_device_custom_hid.c: 219: break;
  1887  0026F6  D03B               	goto	l8119
  1888  0026F8                     l8113:
  1889                           
  1890                           ;app_device_custom_hid.c: 223: Test();
  1891  0026F8  EC64  F004         	call	_Test	;wreg free
  1892                           
  1893                           ;app_device_custom_hid.c: 224: break;
  1894  0026FC  D038               	goto	l8119
  1895  0026FE                     l8117:
  1896  0026FE  0105               	movlb	5	; () banked
  1897  002700  5100               	movf	0,w,b
  1898                           
  1899                           ; Switch size 1, requested type "space"
  1900                           ; Number of cases is 18, Range of values is 1 to 255
  1901                           ; switch strategies available:
  1902                           ; Name         Instructions Cycles
  1903                           ; simple_byte           55    28 (average)
  1904                           ;	Chosen strategy is simple_byte
  1905  002702  0A01               	xorlw	1	; case 1
  1906  002704  B4D8               	btfsc	status,2,c
  1907  002706  D7C5               	goto	l8079
  1908  002708  0A03               	xorlw	3	; case 2
  1909  00270A  B4D8               	btfsc	status,2,c
  1910  00270C  D7C5               	goto	l8081
  1911  00270E  0A04               	xorlw	4	; case 6
  1912  002710  B4D8               	btfsc	status,2,c
  1913  002712  D7C5               	goto	l8083
  1914  002714  0A01               	xorlw	1	; case 7
  1915  002716  B4D8               	btfsc	status,2,c
  1916  002718  D7C5               	goto	l8085
  1917  00271A  0A0F               	xorlw	15	; case 8
  1918  00271C  B4D8               	btfsc	status,2,c
  1919  00271E  D7C5               	goto	l8087
  1920  002720  0A02               	xorlw	2	; case 10
  1921  002722  B4D8               	btfsc	status,2,c
  1922  002724  D7C5               	goto	l8089
  1923  002726  0A06               	xorlw	6	; case 12
  1924  002728  B4D8               	btfsc	status,2,c
  1925  00272A  D7C5               	goto	l8091
  1926  00272C  0A01               	xorlw	1	; case 13
  1927  00272E  B4D8               	btfsc	status,2,c
  1928  002730  D7C5               	goto	l8093
  1929  002732  0A03               	xorlw	3	; case 14
  1930  002734  B4D8               	btfsc	status,2,c
  1931  002736  D7C5               	goto	l8095
  1932  002738  0A1E               	xorlw	30	; case 16
  1933  00273A  B4D8               	btfsc	status,2,c
  1934  00273C  D7C5               	goto	l8097
  1935  00273E  0A01               	xorlw	1	; case 17
  1936  002740  B4D8               	btfsc	status,2,c
  1937  002742  D7C5               	goto	l8099
  1938  002744  0A03               	xorlw	3	; case 18
  1939  002746  B4D8               	btfsc	status,2,c
  1940  002748  D7C5               	goto	l8101
  1941  00274A  0A01               	xorlw	1	; case 19
  1942  00274C  B4D8               	btfsc	status,2,c
  1943  00274E  D7C5               	goto	l8103
  1944  002750  0A07               	xorlw	7	; case 20
  1945  002752  B4D8               	btfsc	status,2,c
  1946  002754  D7C8               	goto	l8107
  1947  002756  0A01               	xorlw	1	; case 21
  1948  002758  B4D8               	btfsc	status,2,c
  1949  00275A  D7C8               	goto	l8109
  1950  00275C  0A03               	xorlw	3	; case 22
  1951  00275E  B4D8               	btfsc	status,2,c
  1952  002760  D7BF               	goto	l8105
  1953  002762  0A01               	xorlw	1	; case 23
  1954  002764  B4D8               	btfsc	status,2,c
  1955  002766  D7C5               	goto	l8111
  1956  002768  0AE8               	xorlw	232	; case 255
  1957  00276A  B4D8               	btfsc	status,2,c
  1958  00276C  D7C5               	goto	l8113
  1959  00276E                     l8119:
  1960                           
  1961                           ;app_device_custom_hid.c: 228: USBOutHandle = USBTransferOnePacket(1,0,(uint8_t*)&Receiv
      +                          edDataBuffer,64);
  1962  00276E  0E00               	movlw	0
  1963  002770  0100               	movlb	0	; () banked
  1964  002772  6F8A               	movwf	USBTransferOnePacket@dir& (0+255),b
  1965  002774  0105               	movlb	5	; () banked
  1966  002776  0E05               	movlw	5
  1967  002778  0100               	movlb	0	; () banked
  1968  00277A  6F8C               	movwf	(USBTransferOnePacket@data+1)& (0+255),b
  1969  00277C  0105               	movlb	5	; () banked
  1970  00277E  0E00               	movlw	0
  1971  002780  0100               	movlb	0	; () banked
  1972  002782  6F8B               	movwf	USBTransferOnePacket@data& (0+255),b
  1973  002784  0E40               	movlw	64
  1974  002786  0100               	movlb	0	; () banked
  1975  002788  6F8D               	movwf	USBTransferOnePacket@len& (0+255),b
  1976  00278A  0E01               	movlw	1
  1977  00278C  ECA2  F017         	call	_USBTransferOnePacket
  1978  002790  0100               	movlb	0	; () banked
  1979  002792  C08A  F0BD         	movff	?_USBTransferOnePacket,_USBOutHandle
  1980  002796  0100               	movlb	0	; () banked
  1981  002798  C08B  F0BE         	movff	?_USBTransferOnePacket+1,_USBOutHandle+1
  1982  00279C                     l622:
  1983                           
  1984                           ; BSR set to: 0
  1985  00279C  0012               	return	
  1986  00279E                     __end_of_APP_DeviceCustomHIDTasks:
  1987                           	opt stack 0
  1988                           tblptru	equ	0xFF8
  1989                           prodh	equ	0xFF4
  1990                           prodl	equ	0xFF3
  1991                           intcon	equ	0xFF2
  1992                           postinc0	equ	0xFEE
  1993                           wreg	equ	0xFE8
  1994                           indf2	equ	0xFDF
  1995                           postinc2	equ	0xFDE
  1996                           postdec2	equ	0xFDD
  1997                           fsr2h	equ	0xFDA
  1998                           fsr2l	equ	0xFD9
  1999                           status	equ	0xFD8
  2000                           
  2001 ;; *************** function _WriteSfr *****************
  2002 ;; Defined at:
  2003 ;;		line 148 in file "AccessB.c"
  2004 ;; Parameters:    Size  Location     Type
  2005 ;;		None
  2006 ;; Auto vars:     Size  Location     Type
  2007 ;;  FSR0Htemp       2   52[BANK0 ] int 
  2008 ;;  FSR0Ltemp       2   50[BANK0 ] int 
  2009 ;; Return value:  Size  Location     Type
  2010 ;;		None               void
  2011 ;; Registers used:
  2012 ;;		wreg, fsr2l, fsr2h, status,2, status,0, prodl, prodh, cstack
  2013 ;; Tracked objects:
  2014 ;;		On entry : 0/0
  2015 ;;		On exit  : 0/0
  2016 ;;		Unchanged: 0/0
  2017 ;; Data sizes:     COMRAM   BANK0   BANK1   BANK2   BANK3   BANK4  BANK5h   BANK6   BANK7
  2018 ;;      Params:         0       0       0       0       0       0       0       0       0
  2019 ;;      Locals:         0       6       0       0       0       0       0       0       0
  2020 ;;      Temps:          0       1       0       0       0       0       0       0       0
  2021 ;;      Totals:         0       7       0       0       0       0       0       0       0
  2022 ;;Total ram usage:        7 bytes
  2023 ;; Hardware stack levels used:    1
  2024 ;; Hardware stack levels required when called:   13
  2025 ;; This function calls:
  2026 ;;		_USBTransferOnePacket
  2027 ;; This function is called by:
  2028 ;;		_APP_DeviceCustomHIDTasks
  2029 ;; This function uses a non-reentrant model
  2030 ;;
  2031                           
  2032                           	psect	text6
  2033  002388                     __ptext6:
  2034                           	opt stack 0
  2035  002388                     _WriteSfr:
  2036                           	opt stack 16
  2037                           
  2038                           ;AccessB.c: 150: if (!(USBInHandle==0?0:((volatile BDT_ENTRY*)USBInHandle)->STAT.UOWN))
  2039                           
  2040                           ; BSR set to: 0
  2041                           ;incstack = 0
  2042  002388  502C               	movf	_USBInHandle+1,w,c
  2043  00238A  102B               	iorwf	_USBInHandle,w,c
  2044  00238C  B4D8               	btfsc	status,2,c
  2045  00238E  D013               	goto	l7207
  2046  002390  C02B  FFD9         	movff	_USBInHandle,fsr2l
  2047  002394  C02C  FFDA         	movff	_USBInHandle+1,fsr2h
  2048  002398  AEDF               	btfss	indf2,7,c
  2049  00239A  D004               	goto	u8210
  2050  00239C  0100               	movlb	0	; () banked
  2051  00239E  6B91               	clrf	??_WriteSfr& (0+255),b
  2052  0023A0  2B91               	incf	??_WriteSfr& (0+255),f,b
  2053  0023A2  D002               	goto	u8218
  2054  0023A4                     u8210:
  2055  0023A4  0100               	movlb	0	; () banked
  2056  0023A6  6B91               	clrf	??_WriteSfr& (0+255),b
  2057  0023A8                     u8218:
  2058  0023A8  0100               	movlb	0	; () banked
  2059  0023AA  5191               	movf	??_WriteSfr& (0+255),w,b
  2060  0023AC  0100               	movlb	0	; () banked
  2061  0023AE  6F96               	movwf	_WriteSfr$3339& (0+255),b
  2062  0023B0  0100               	movlb	0	; () banked
  2063  0023B2  6B97               	clrf	(_WriteSfr$3339+1)& (0+255),b
  2064  0023B4  D006               	goto	l7209
  2065  0023B6                     l7207:
  2066  0023B6  0E00               	movlw	0
  2067  0023B8  0100               	movlb	0	; () banked
  2068  0023BA  6F97               	movwf	(_WriteSfr$3339+1)& (0+255),b
  2069  0023BC  0E00               	movlw	0
  2070  0023BE  0100               	movlb	0	; () banked
  2071  0023C0  6F96               	movwf	_WriteSfr$3339& (0+255),b
  2072  0023C2                     l7209:
  2073                           
  2074                           ; BSR set to: 0
  2075  0023C2  0100               	movlb	0	; () banked
  2076  0023C4  5197               	movf	(_WriteSfr$3339+1)& (0+255),w,b
  2077  0023C6  1196               	iorwf	_WriteSfr$3339& (0+255),w,b
  2078  0023C8  A4D8               	btfss	status,2,c
  2079  0023CA  D08F               	goto	l744
  2080                           
  2081                           ; BSR set to: 0
  2082                           ;AccessB.c: 151: {
  2083                           ;AccessB.c: 153: int FSR0Ltemp;
  2084                           ;AccessB.c: 154: int FSR0Htemp;
  2085                           ;AccessB.c: 155: if ((ReceivedDataBuffer[2] == 0x66) || (ReceivedDataBuffer[2] == 0xAF) 
      +                          || (ReceivedDataBuffer[2] == 0xB2) || (ReceivedDataBuffer[2] == 0xBB) || (ReceivedDataBu
      +                          ffer[2] == 0xBE) || (ReceivedDataBuffer[2] == 0xC3) || (ReceivedDataBuffer[2] == 0xCE) |
      +                          | (
  2086  0023CC  0105               	movlb	5	; () banked
  2087  0023CE  5102               	movf	2,w,b
  2088  0023D0  0A66               	xorlw	102
  2089  0023D2  B4D8               	btfsc	status,2,c
  2090  0023D4  D037               	goto	l742
  2091                           
  2092                           ; BSR set to: 5
  2093  0023D6  0105               	movlb	5	; () banked
  2094  0023D8  5102               	movf	2,w,b
  2095  0023DA  0AAF               	xorlw	175
  2096  0023DC  B4D8               	btfsc	status,2,c
  2097  0023DE  D032               	goto	l742
  2098                           
  2099                           ; BSR set to: 5
  2100  0023E0  0105               	movlb	5	; () banked
  2101  0023E2  5102               	movf	2,w,b
  2102  0023E4  0AB2               	xorlw	178
  2103  0023E6  B4D8               	btfsc	status,2,c
  2104  0023E8  D02D               	goto	l742
  2105                           
  2106                           ; BSR set to: 5
  2107  0023EA  0105               	movlb	5	; () banked
  2108  0023EC  5102               	movf	2,w,b
  2109  0023EE  0ABB               	xorlw	187
  2110  0023F0  B4D8               	btfsc	status,2,c
  2111  0023F2  D028               	goto	l742
  2112                           
  2113                           ; BSR set to: 5
  2114  0023F4  0105               	movlb	5	; () banked
  2115  0023F6  5102               	movf	2,w,b
  2116  0023F8  0ABE               	xorlw	190
  2117  0023FA  B4D8               	btfsc	status,2,c
  2118  0023FC  D023               	goto	l742
  2119                           
  2120                           ; BSR set to: 5
  2121  0023FE  0105               	movlb	5	; () banked
  2122  002400  5102               	movf	2,w,b
  2123  002402  0AC3               	xorlw	195
  2124  002404  B4D8               	btfsc	status,2,c
  2125  002406  D01E               	goto	l742
  2126                           
  2127                           ; BSR set to: 5
  2128  002408  0105               	movlb	5	; () banked
  2129  00240A  5102               	movf	2,w,b
  2130  00240C  0ACE               	xorlw	206
  2131  00240E  B4D8               	btfsc	status,2,c
  2132  002410  D019               	goto	l742
  2133                           
  2134                           ; BSR set to: 5
  2135  002412  0105               	movlb	5	; () banked
  2136  002414  5102               	movf	2,w,b
  2137  002416  0AD6               	xorlw	214
  2138  002418  B4D8               	btfsc	status,2,c
  2139  00241A  D014               	goto	l742
  2140                           
  2141                           ; BSR set to: 5
  2142  00241C  0105               	movlb	5	; () banked
  2143  00241E  5102               	movf	2,w,b
  2144  002420  0AD9               	xorlw	217
  2145  002422  B4D8               	btfsc	status,2,c
  2146  002424  D00F               	goto	l742
  2147                           
  2148                           ; BSR set to: 5
  2149  002426  0105               	movlb	5	; () banked
  2150  002428  5102               	movf	2,w,b
  2151  00242A  0AE1               	xorlw	225
  2152  00242C  B4D8               	btfsc	status,2,c
  2153  00242E  D00A               	goto	l742
  2154                           
  2155                           ; BSR set to: 5
  2156  002430  0105               	movlb	5	; () banked
  2157  002432  5102               	movf	2,w,b
  2158  002434  0AE9               	xorlw	233
  2159  002436  B4D8               	btfsc	status,2,c
  2160  002438  D005               	goto	l742
  2161                           
  2162                           ; BSR set to: 5
  2163  00243A  0105               	movlb	5	; () banked
  2164  00243C  5102               	movf	2,w,b
  2165  00243E  0AF3               	xorlw	243
  2166  002440  A4D8               	btfss	status,2,c
  2167  002442  D02B               	goto	l7249
  2168  002444                     l742:
  2169                           
  2170                           ; BSR set to: 5
  2171                           ;AccessB.c: 156: FSR0Ltemp = FSR0L;
  2172  002444  0100               	movlb	0	; () banked
  2173  002446  CFE9 F092          	movff	fsr0l,WriteSfr@FSR0Ltemp	;volatile
  2174  00244A  0100               	movlb	0	; () banked
  2175  00244C  6B93               	clrf	(WriteSfr@FSR0Ltemp+1)& (0+255),b
  2176                           
  2177                           ;AccessB.c: 157: FSR0Htemp = FSR0H;
  2178  00244E  0100               	movlb	0	; () banked
  2179  002450  CFEA F094          	movff	fsr0h,WriteSfr@FSR0Htemp	;volatile
  2180  002454  0100               	movlb	0	; () banked
  2181  002456  6B95               	clrf	(WriteSfr@FSR0Htemp+1)& (0+255),b
  2182                           
  2183                           ; BSR set to: 0
  2184                           ;AccessB.c: 159: FSR0H = 0x0F;
  2185  002458  0E0F               	movlw	15
  2186  00245A  6EEA               	movwf	fsr0h,c	;volatile
  2187                           
  2188                           ; BSR set to: 0
  2189                           ;AccessB.c: 160: FSR0L = ReceivedDataBuffer[2];
  2190  00245C  C502 FFE9          	movff	1282,fsr0l	;volatile
  2191                           
  2192                           ; BSR set to: 0
  2193                           ;AccessB.c: 161: POSTINC0 = ReceivedDataBuffer[3];
  2194  002460  C503 FFEE          	movff	1283,postinc0	;volatile
  2195                           
  2196                           ; BSR set to: 0
  2197                           ;AccessB.c: 162: INDF0 = ReceivedDataBuffer[4];
  2198  002464  C504 FFEF          	movff	1284,indf0	;volatile
  2199                           
  2200                           ;AccessB.c: 164: ToSendDataBuffer[0] = WRITE_SFR;
  2201  002468  0E02               	movlw	2
  2202  00246A  0105               	movlb	5	; () banked
  2203  00246C  6F40               	movwf	64,b
  2204                           
  2205                           ; BSR set to: 5
  2206                           ;AccessB.c: 165: ToSendDataBuffer[1] = ReceivedDataBuffer[1];
  2207  00246E  C501 F541          	movff	1281,1345
  2208                           
  2209                           ; BSR set to: 5
  2210                           ;AccessB.c: 166: ToSendDataBuffer[2] = ReceivedDataBuffer[2];
  2211  002472  C502 F542          	movff	1282,1346
  2212                           
  2213                           ; BSR set to: 5
  2214                           ;AccessB.c: 168: USBInHandle = USBTransferOnePacket(1,1,(uint8_t*) & ToSendDataBuffer[0]
      +                          ,64);
  2215  002476  0E01               	movlw	1
  2216  002478  0100               	movlb	0	; () banked
  2217  00247A  6F8A               	movwf	USBTransferOnePacket@dir& (0+255),b
  2218  00247C  0105               	movlb	5	; () banked
  2219  00247E  0E05               	movlw	5
  2220  002480  0100               	movlb	0	; () banked
  2221  002482  6F8C               	movwf	(USBTransferOnePacket@data+1)& (0+255),b
  2222  002484  0105               	movlb	5	; () banked
  2223  002486  0E40               	movlw	64
  2224  002488  0100               	movlb	0	; () banked
  2225  00248A  6F8B               	movwf	USBTransferOnePacket@data& (0+255),b
  2226  00248C  0E40               	movlw	64
  2227  00248E  0100               	movlb	0	; () banked
  2228  002490  6F8D               	movwf	USBTransferOnePacket@len& (0+255),b
  2229  002492  0E01               	movlw	1
  2230  002494  ECA2  F017         	call	_USBTransferOnePacket
  2231  002498  D01E               	goto	L3
  2232  00249A                     l7249:
  2233                           
  2234                           ;AccessB.c: 170: {
  2235                           ;AccessB.c: 171: FSR0H = 0x0F;
  2236  00249A  0E0F               	movlw	15
  2237  00249C  6EEA               	movwf	fsr0h,c	;volatile
  2238                           
  2239                           ;AccessB.c: 172: FSR0L = ReceivedDataBuffer[2];
  2240  00249E  C502 FFE9          	movff	1282,fsr0l	;volatile
  2241                           
  2242                           ;AccessB.c: 173: INDF0 = ReceivedDataBuffer[3];
  2243  0024A2  C503 FFEF          	movff	1283,indf0	;volatile
  2244                           
  2245                           ;AccessB.c: 175: ToSendDataBuffer[0] = WRITE_SFR;
  2246  0024A6  0E02               	movlw	2
  2247  0024A8  0105               	movlb	5	; () banked
  2248  0024AA  6F40               	movwf	64,b
  2249                           
  2250                           ; BSR set to: 5
  2251                           ;AccessB.c: 176: ToSendDataBuffer[1] = ReceivedDataBuffer[1];
  2252  0024AC  C501 F541          	movff	1281,1345
  2253                           
  2254                           ; BSR set to: 5
  2255                           ;AccessB.c: 177: ToSendDataBuffer[2] = ReceivedDataBuffer[2];
  2256  0024B0  C502 F542          	movff	1282,1346
  2257                           
  2258                           ; BSR set to: 5
  2259                           ;AccessB.c: 180: USBInHandle = USBTransferOnePacket(1,1,(uint8_t*) & ToSendDataBuffer[0]
      +                          ,64);
  2260  0024B4  0E01               	movlw	1
  2261  0024B6  0100               	movlb	0	; () banked
  2262  0024B8  6F8A               	movwf	USBTransferOnePacket@dir& (0+255),b
  2263  0024BA  0105               	movlb	5	; () banked
  2264  0024BC  0E05               	movlw	5
  2265  0024BE  0100               	movlb	0	; () banked
  2266  0024C0  6F8C               	movwf	(USBTransferOnePacket@data+1)& (0+255),b
  2267  0024C2  0105               	movlb	5	; () banked
  2268  0024C4  0E40               	movlw	64
  2269  0024C6  0100               	movlb	0	; () banked
  2270  0024C8  6F8B               	movwf	USBTransferOnePacket@data& (0+255),b
  2271  0024CA  0E40               	movlw	64
  2272  0024CC  0100               	movlb	0	; () banked
  2273  0024CE  6F8D               	movwf	USBTransferOnePacket@len& (0+255),b
  2274  0024D0  0E01               	movlw	1
  2275  0024D2  ECA2  F017         	call	_USBTransferOnePacket
  2276  0024D6                     L3:
  2277  0024D6  0100               	movlb	0	; () banked
  2278  0024D8  C08A  F02B         	movff	?_USBTransferOnePacket,_USBInHandle
  2279  0024DC  0100               	movlb	0	; () banked
  2280  0024DE  C08B  F02C         	movff	?_USBTransferOnePacket+1,_USBInHandle+1
  2281                           
  2282                           ; BSR set to: 0
  2283                           ;AccessB.c: 181: }
  2284                           ;AccessB.c: 182: FSR0L = FSR0Ltemp;
  2285                           
  2286                           ; BSR set to: 0
  2287  0024E2  C092  FFE9         	movff	WriteSfr@FSR0Ltemp,fsr0l	;volatile
  2288                           
  2289                           ; BSR set to: 0
  2290                           ;AccessB.c: 183: FSR0H = FSR0Htemp;
  2291  0024E6  C094  FFEA         	movff	WriteSfr@FSR0Htemp,fsr0h	;volatile
  2292  0024EA                     l744:
  2293                           
  2294                           ; BSR set to: 0
  2295  0024EA  0012               	return	
  2296  0024EC                     __end_of_WriteSfr:
  2297                           	opt stack 0
  2298                           tblptru	equ	0xFF8
  2299                           prodh	equ	0xFF4
  2300                           prodl	equ	0xFF3
  2301                           intcon	equ	0xFF2
  2302                           indf0	equ	0xFEF
  2303                           postinc0	equ	0xFEE
  2304                           fsr0h	equ	0xFEA
  2305                           fsr0l	equ	0xFE9
  2306                           wreg	equ	0xFE8
  2307                           indf2	equ	0xFDF
  2308                           postinc2	equ	0xFDE
  2309                           postdec2	equ	0xFDD
  2310                           fsr2h	equ	0xFDA
  2311                           fsr2l	equ	0xFD9
  2312                           status	equ	0xFD8
  2313                           
  2314 ;; *************** function _Test *****************
  2315 ;; Defined at:
  2316 ;;		line 1153 in file "AccessB.c"
  2317 ;; Parameters:    Size  Location     Type
  2318 ;;		None
  2319 ;; Auto vars:     Size  Location     Type
  2320 ;;		None
  2321 ;; Return value:  Size  Location     Type
  2322 ;;		None               void
  2323 ;; Registers used:
  2324 ;;		wreg, fsr2l, fsr2h, status,2, status,0, prodl, prodh, cstack
  2325 ;; Tracked objects:
  2326 ;;		On entry : 0/0
  2327 ;;		On exit  : 0/0
  2328 ;;		Unchanged: 0/0
  2329 ;; Data sizes:     COMRAM   BANK0   BANK1   BANK2   BANK3   BANK4  BANK5h   BANK6   BANK7
  2330 ;;      Params:         0       0       0       0       0       0       0       0       0
  2331 ;;      Locals:         0       0      38       0       0       0       0       0       0
  2332 ;;      Temps:          0       1       0       0       0       0       0       0       0
  2333 ;;      Totals:         0       1      38       0       0       0       0       0       0
  2334 ;;Total ram usage:       39 bytes
  2335 ;; Hardware stack levels used:    1
  2336 ;; Hardware stack levels required when called:   13
  2337 ;; This function calls:
  2338 ;;		_USBTransferOnePacket
  2339 ;; This function is called by:
  2340 ;;		_APP_DeviceCustomHIDTasks
  2341 ;; This function uses a non-reentrant model
  2342 ;;
  2343                           
  2344                           	psect	text7
  2345  0008C8                     __ptext7:
  2346                           	opt stack 0
  2347  0008C8                     _Test:
  2348                           	opt stack 16
  2349                           
  2350                           ;AccessB.c: 1155: ToSendDataBuffer[0] = 1;
  2351                           
  2352                           ; BSR set to: 0
  2353                           ;incstack = 0
  2354  0008C8  0E01               	movlw	1
  2355  0008CA  0105               	movlb	5	; () banked
  2356  0008CC  6F40               	movwf	64,b
  2357                           
  2358                           ; BSR set to: 5
  2359                           ;AccessB.c: 1156: USBInHandle = USBTransferOnePacket(1,1,(uint8_t*) & ToSendDataBuffer[0
      +                          ],64);
  2360  0008CE  0E01               	movlw	1
  2361  0008D0  0100               	movlb	0	; () banked
  2362  0008D2  6F8A               	movwf	USBTransferOnePacket@dir& (0+255),b
  2363  0008D4  0105               	movlb	5	; () banked
  2364  0008D6  0E05               	movlw	5
  2365  0008D8  0100               	movlb	0	; () banked
  2366  0008DA  6F8C               	movwf	(USBTransferOnePacket@data+1)& (0+255),b
  2367  0008DC  0105               	movlb	5	; () banked
  2368  0008DE  0E40               	movlw	64
  2369  0008E0  0100               	movlb	0	; () banked
  2370  0008E2  6F8B               	movwf	USBTransferOnePacket@data& (0+255),b
  2371  0008E4  0E40               	movlw	64
  2372  0008E6  0100               	movlb	0	; () banked
  2373  0008E8  6F8D               	movwf	USBTransferOnePacket@len& (0+255),b
  2374  0008EA  0E01               	movlw	1
  2375  0008EC  ECA2  F017         	call	_USBTransferOnePacket
  2376  0008F0  0100               	movlb	0	; () banked
  2377  0008F2  C08A  F02B         	movff	?_USBTransferOnePacket,_USBInHandle
  2378  0008F6  0100               	movlb	0	; () banked
  2379  0008F8  C08B  F02C         	movff	?_USBTransferOnePacket+1,_USBInHandle+1
  2380  0008FC                     l7667:
  2381  0008FC  502C               	movf	_USBInHandle+1,w,c
  2382  0008FE  102B               	iorwf	_USBInHandle,w,c
  2383  000900  B4D8               	btfsc	status,2,c
  2384  000902  D013               	goto	l7671
  2385  000904  C02B  FFD9         	movff	_USBInHandle,fsr2l
  2386  000908  C02C  FFDA         	movff	_USBInHandle+1,fsr2h
  2387  00090C  AEDF               	btfss	indf2,7,c
  2388  00090E  D004               	goto	u9400
  2389  000910  0100               	movlb	0	; () banked
  2390  000912  6B91               	clrf	??_Test& (0+255),b
  2391  000914  2B91               	incf	??_Test& (0+255),f,b
  2392  000916  D002               	goto	u9408
  2393  000918                     u9400:
  2394  000918  0100               	movlb	0	; () banked
  2395  00091A  6B91               	clrf	??_Test& (0+255),b
  2396  00091C                     u9408:
  2397  00091C  0100               	movlb	0	; () banked
  2398  00091E  5191               	movf	??_Test& (0+255),w,b
  2399  000920  0101               	movlb	1	; () banked
  2400  000922  6F00               	movwf	_Test$3472& (0+255),b
  2401  000924  0101               	movlb	1	; () banked
  2402  000926  6B01               	clrf	(_Test$3472+1)& (0+255),b
  2403  000928  D006               	goto	l7673
  2404  00092A                     l7671:
  2405  00092A  0E00               	movlw	0
  2406  00092C  0101               	movlb	1	; () banked
  2407  00092E  6F01               	movwf	(_Test$3472+1)& (0+255),b
  2408  000930  0E00               	movlw	0
  2409  000932  0101               	movlb	1	; () banked
  2410  000934  6F00               	movwf	_Test$3472& (0+255),b
  2411  000936                     l7673:
  2412                           
  2413                           ; BSR set to: 1
  2414  000936  0101               	movlb	1	; () banked
  2415  000938  5101               	movf	(_Test$3472+1)& (0+255),w,b
  2416  00093A  1100               	iorwf	_Test$3472& (0+255),w,b
  2417  00093C  A4D8               	btfss	status,2,c
  2418  00093E  D7DE               	goto	l7667
  2419                           
  2420                           ; BSR set to: 1
  2421                           ;AccessB.c: 1158: ToSendDataBuffer[0] = 2;
  2422                           
  2423                           ; BSR set to: 1
  2424  000940  0E02               	movlw	2
  2425  000942  0105               	movlb	5	; () banked
  2426  000944  6F40               	movwf	64,b
  2427                           
  2428                           ; BSR set to: 5
  2429                           ;AccessB.c: 1159: USBInHandle = USBTransferOnePacket(1,1,(uint8_t*) & ToSendDataBuffer[0
      +                          ],64);
  2430  000946  0E01               	movlw	1
  2431  000948  0100               	movlb	0	; () banked
  2432  00094A  6F8A               	movwf	USBTransferOnePacket@dir& (0+255),b
  2433  00094C  0105               	movlb	5	; () banked
  2434  00094E  0E05               	movlw	5
  2435  000950  0100               	movlb	0	; () banked
  2436  000952  6F8C               	movwf	(USBTransferOnePacket@data+1)& (0+255),b
  2437  000954  0105               	movlb	5	; () banked
  2438  000956  0E40               	movlw	64
  2439  000958  0100               	movlb	0	; () banked
  2440  00095A  6F8B               	movwf	USBTransferOnePacket@data& (0+255),b
  2441  00095C  0E40               	movlw	64
  2442  00095E  0100               	movlb	0	; () banked
  2443  000960  6F8D               	movwf	USBTransferOnePacket@len& (0+255),b
  2444  000962  0E01               	movlw	1
  2445  000964  ECA2  F017         	call	_USBTransferOnePacket
  2446  000968  0100               	movlb	0	; () banked
  2447  00096A  C08A  F02B         	movff	?_USBTransferOnePacket,_USBInHandle
  2448  00096E  0100               	movlb	0	; () banked
  2449  000970  C08B  F02C         	movff	?_USBTransferOnePacket+1,_USBInHandle+1
  2450  000974                     l7679:
  2451  000974  502C               	movf	_USBInHandle+1,w,c
  2452  000976  102B               	iorwf	_USBInHandle,w,c
  2453  000978  B4D8               	btfsc	status,2,c
  2454  00097A  D013               	goto	l7683
  2455  00097C  C02B  FFD9         	movff	_USBInHandle,fsr2l
  2456  000980  C02C  FFDA         	movff	_USBInHandle+1,fsr2h
  2457  000984  AEDF               	btfss	indf2,7,c
  2458  000986  D004               	goto	u9430
  2459  000988  0100               	movlb	0	; () banked
  2460  00098A  6B91               	clrf	??_Test& (0+255),b
  2461  00098C  2B91               	incf	??_Test& (0+255),f,b
  2462  00098E  D002               	goto	u9438
  2463  000990                     u9430:
  2464  000990  0100               	movlb	0	; () banked
  2465  000992  6B91               	clrf	??_Test& (0+255),b
  2466  000994                     u9438:
  2467  000994  0100               	movlb	0	; () banked
  2468  000996  5191               	movf	??_Test& (0+255),w,b
  2469  000998  0101               	movlb	1	; () banked
  2470  00099A  6F02               	movwf	_Test$3473& (0+255),b
  2471  00099C  0101               	movlb	1	; () banked
  2472  00099E  6B03               	clrf	(_Test$3473+1)& (0+255),b
  2473  0009A0  D006               	goto	l7685
  2474  0009A2                     l7683:
  2475  0009A2  0E00               	movlw	0
  2476  0009A4  0101               	movlb	1	; () banked
  2477  0009A6  6F03               	movwf	(_Test$3473+1)& (0+255),b
  2478  0009A8  0E00               	movlw	0
  2479  0009AA  0101               	movlb	1	; () banked
  2480  0009AC  6F02               	movwf	_Test$3473& (0+255),b
  2481  0009AE                     l7685:
  2482                           
  2483                           ; BSR set to: 1
  2484  0009AE  0101               	movlb	1	; () banked
  2485  0009B0  5103               	movf	(_Test$3473+1)& (0+255),w,b
  2486  0009B2  1102               	iorwf	_Test$3473& (0+255),w,b
  2487  0009B4  A4D8               	btfss	status,2,c
  2488  0009B6  D7DE               	goto	l7679
  2489                           
  2490                           ; BSR set to: 1
  2491                           ;AccessB.c: 1161: ToSendDataBuffer[0] = 3;
  2492                           
  2493                           ; BSR set to: 1
  2494  0009B8  0E03               	movlw	3
  2495  0009BA  0105               	movlb	5	; () banked
  2496  0009BC  6F40               	movwf	64,b
  2497                           
  2498                           ; BSR set to: 5
  2499                           ;AccessB.c: 1162: USBInHandle = USBTransferOnePacket(1,1,(uint8_t*) & ToSendDataBuffer[0
      +                          ],64);
  2500  0009BE  0E01               	movlw	1
  2501  0009C0  0100               	movlb	0	; () banked
  2502  0009C2  6F8A               	movwf	USBTransferOnePacket@dir& (0+255),b
  2503  0009C4  0105               	movlb	5	; () banked
  2504  0009C6  0E05               	movlw	5
  2505  0009C8  0100               	movlb	0	; () banked
  2506  0009CA  6F8C               	movwf	(USBTransferOnePacket@data+1)& (0+255),b
  2507  0009CC  0105               	movlb	5	; () banked
  2508  0009CE  0E40               	movlw	64
  2509  0009D0  0100               	movlb	0	; () banked
  2510  0009D2  6F8B               	movwf	USBTransferOnePacket@data& (0+255),b
  2511  0009D4  0E40               	movlw	64
  2512  0009D6  0100               	movlb	0	; () banked
  2513  0009D8  6F8D               	movwf	USBTransferOnePacket@len& (0+255),b
  2514  0009DA  0E01               	movlw	1
  2515  0009DC  ECA2  F017         	call	_USBTransferOnePacket
  2516  0009E0  0100               	movlb	0	; () banked
  2517  0009E2  C08A  F02B         	movff	?_USBTransferOnePacket,_USBInHandle
  2518  0009E6  0100               	movlb	0	; () banked
  2519  0009E8  C08B  F02C         	movff	?_USBTransferOnePacket+1,_USBInHandle+1
  2520  0009EC                     l7691:
  2521  0009EC  502C               	movf	_USBInHandle+1,w,c
  2522  0009EE  102B               	iorwf	_USBInHandle,w,c
  2523  0009F0  B4D8               	btfsc	status,2,c
  2524  0009F2  D013               	goto	l7695
  2525  0009F4  C02B  FFD9         	movff	_USBInHandle,fsr2l
  2526  0009F8  C02C  FFDA         	movff	_USBInHandle+1,fsr2h
  2527  0009FC  AEDF               	btfss	indf2,7,c
  2528  0009FE  D004               	goto	u9460
  2529  000A00  0100               	movlb	0	; () banked
  2530  000A02  6B91               	clrf	??_Test& (0+255),b
  2531  000A04  2B91               	incf	??_Test& (0+255),f,b
  2532  000A06  D002               	goto	u9468
  2533  000A08                     u9460:
  2534  000A08  0100               	movlb	0	; () banked
  2535  000A0A  6B91               	clrf	??_Test& (0+255),b
  2536  000A0C                     u9468:
  2537  000A0C  0100               	movlb	0	; () banked
  2538  000A0E  5191               	movf	??_Test& (0+255),w,b
  2539  000A10  0101               	movlb	1	; () banked
  2540  000A12  6F04               	movwf	_Test$3474& (0+255),b
  2541  000A14  0101               	movlb	1	; () banked
  2542  000A16  6B05               	clrf	(_Test$3474+1)& (0+255),b
  2543  000A18  D006               	goto	l7697
  2544  000A1A                     l7695:
  2545  000A1A  0E00               	movlw	0
  2546  000A1C  0101               	movlb	1	; () banked
  2547  000A1E  6F05               	movwf	(_Test$3474+1)& (0+255),b
  2548  000A20  0E00               	movlw	0
  2549  000A22  0101               	movlb	1	; () banked
  2550  000A24  6F04               	movwf	_Test$3474& (0+255),b
  2551  000A26                     l7697:
  2552                           
  2553                           ; BSR set to: 1
  2554  000A26  0101               	movlb	1	; () banked
  2555  000A28  5105               	movf	(_Test$3474+1)& (0+255),w,b
  2556  000A2A  1104               	iorwf	_Test$3474& (0+255),w,b
  2557  000A2C  A4D8               	btfss	status,2,c
  2558  000A2E  D7DE               	goto	l7691
  2559                           
  2560                           ; BSR set to: 1
  2561                           ;AccessB.c: 1164: ToSendDataBuffer[0] = 4;
  2562                           
  2563                           ; BSR set to: 1
  2564  000A30  0E04               	movlw	4
  2565  000A32  0105               	movlb	5	; () banked
  2566  000A34  6F40               	movwf	64,b
  2567                           
  2568                           ; BSR set to: 5
  2569                           ;AccessB.c: 1165: USBInHandle = USBTransferOnePacket(1,1,(uint8_t*) & ToSendDataBuffer[0
      +                          ],64);
  2570  000A36  0E01               	movlw	1
  2571  000A38  0100               	movlb	0	; () banked
  2572  000A3A  6F8A               	movwf	USBTransferOnePacket@dir& (0+255),b
  2573  000A3C  0105               	movlb	5	; () banked
  2574  000A3E  0E05               	movlw	5
  2575  000A40  0100               	movlb	0	; () banked
  2576  000A42  6F8C               	movwf	(USBTransferOnePacket@data+1)& (0+255),b
  2577  000A44  0105               	movlb	5	; () banked
  2578  000A46  0E40               	movlw	64
  2579  000A48  0100               	movlb	0	; () banked
  2580  000A4A  6F8B               	movwf	USBTransferOnePacket@data& (0+255),b
  2581  000A4C  0E40               	movlw	64
  2582  000A4E  0100               	movlb	0	; () banked
  2583  000A50  6F8D               	movwf	USBTransferOnePacket@len& (0+255),b
  2584  000A52  0E01               	movlw	1
  2585  000A54  ECA2  F017         	call	_USBTransferOnePacket
  2586  000A58  0100               	movlb	0	; () banked
  2587  000A5A  C08A  F02B         	movff	?_USBTransferOnePacket,_USBInHandle
  2588  000A5E  0100               	movlb	0	; () banked
  2589  000A60  C08B  F02C         	movff	?_USBTransferOnePacket+1,_USBInHandle+1
  2590  000A64                     l7703:
  2591  000A64  502C               	movf	_USBInHandle+1,w,c
  2592  000A66  102B               	iorwf	_USBInHandle,w,c
  2593  000A68  B4D8               	btfsc	status,2,c
  2594  000A6A  D013               	goto	l7707
  2595  000A6C  C02B  FFD9         	movff	_USBInHandle,fsr2l
  2596  000A70  C02C  FFDA         	movff	_USBInHandle+1,fsr2h
  2597  000A74  AEDF               	btfss	indf2,7,c
  2598  000A76  D004               	goto	u9490
  2599  000A78  0100               	movlb	0	; () banked
  2600  000A7A  6B91               	clrf	??_Test& (0+255),b
  2601  000A7C  2B91               	incf	??_Test& (0+255),f,b
  2602  000A7E  D002               	goto	u9498
  2603  000A80                     u9490:
  2604  000A80  0100               	movlb	0	; () banked
  2605  000A82  6B91               	clrf	??_Test& (0+255),b
  2606  000A84                     u9498:
  2607  000A84  0100               	movlb	0	; () banked
  2608  000A86  5191               	movf	??_Test& (0+255),w,b
  2609  000A88  0101               	movlb	1	; () banked
  2610  000A8A  6F06               	movwf	_Test$3475& (0+255),b
  2611  000A8C  0101               	movlb	1	; () banked
  2612  000A8E  6B07               	clrf	(_Test$3475+1)& (0+255),b
  2613  000A90  D006               	goto	l7709
  2614  000A92                     l7707:
  2615  000A92  0E00               	movlw	0
  2616  000A94  0101               	movlb	1	; () banked
  2617  000A96  6F07               	movwf	(_Test$3475+1)& (0+255),b
  2618  000A98  0E00               	movlw	0
  2619  000A9A  0101               	movlb	1	; () banked
  2620  000A9C  6F06               	movwf	_Test$3475& (0+255),b
  2621  000A9E                     l7709:
  2622                           
  2623                           ; BSR set to: 1
  2624  000A9E  0101               	movlb	1	; () banked
  2625  000AA0  5107               	movf	(_Test$3475+1)& (0+255),w,b
  2626  000AA2  1106               	iorwf	_Test$3475& (0+255),w,b
  2627  000AA4  A4D8               	btfss	status,2,c
  2628  000AA6  D7DE               	goto	l7703
  2629                           
  2630                           ; BSR set to: 1
  2631                           ;AccessB.c: 1167: ToSendDataBuffer[0] = 5;
  2632                           
  2633                           ; BSR set to: 1
  2634  000AA8  0E05               	movlw	5
  2635  000AAA  0105               	movlb	5	; () banked
  2636  000AAC  6F40               	movwf	64,b
  2637                           
  2638                           ; BSR set to: 5
  2639                           ;AccessB.c: 1168: USBInHandle = USBTransferOnePacket(1,1,(uint8_t*) & ToSendDataBuffer[0
      +                          ],64);
  2640  000AAE  0E01               	movlw	1
  2641  000AB0  0100               	movlb	0	; () banked
  2642  000AB2  6F8A               	movwf	USBTransferOnePacket@dir& (0+255),b
  2643  000AB4  0105               	movlb	5	; () banked
  2644  000AB6  0E05               	movlw	5
  2645  000AB8  0100               	movlb	0	; () banked
  2646  000ABA  6F8C               	movwf	(USBTransferOnePacket@data+1)& (0+255),b
  2647  000ABC  0105               	movlb	5	; () banked
  2648  000ABE  0E40               	movlw	64
  2649  000AC0  0100               	movlb	0	; () banked
  2650  000AC2  6F8B               	movwf	USBTransferOnePacket@data& (0+255),b
  2651  000AC4  0E40               	movlw	64
  2652  000AC6  0100               	movlb	0	; () banked
  2653  000AC8  6F8D               	movwf	USBTransferOnePacket@len& (0+255),b
  2654  000ACA  0E01               	movlw	1
  2655  000ACC  ECA2  F017         	call	_USBTransferOnePacket
  2656  000AD0  0100               	movlb	0	; () banked
  2657  000AD2  C08A  F02B         	movff	?_USBTransferOnePacket,_USBInHandle
  2658  000AD6  0100               	movlb	0	; () banked
  2659  000AD8  C08B  F02C         	movff	?_USBTransferOnePacket+1,_USBInHandle+1
  2660  000ADC                     l7715:
  2661  000ADC  502C               	movf	_USBInHandle+1,w,c
  2662  000ADE  102B               	iorwf	_USBInHandle,w,c
  2663  000AE0  B4D8               	btfsc	status,2,c
  2664  000AE2  D013               	goto	l7719
  2665  000AE4  C02B  FFD9         	movff	_USBInHandle,fsr2l
  2666  000AE8  C02C  FFDA         	movff	_USBInHandle+1,fsr2h
  2667  000AEC  AEDF               	btfss	indf2,7,c
  2668  000AEE  D004               	goto	u9520
  2669  000AF0  0100               	movlb	0	; () banked
  2670  000AF2  6B91               	clrf	??_Test& (0+255),b
  2671  000AF4  2B91               	incf	??_Test& (0+255),f,b
  2672  000AF6  D002               	goto	u9528
  2673  000AF8                     u9520:
  2674  000AF8  0100               	movlb	0	; () banked
  2675  000AFA  6B91               	clrf	??_Test& (0+255),b
  2676  000AFC                     u9528:
  2677  000AFC  0100               	movlb	0	; () banked
  2678  000AFE  5191               	movf	??_Test& (0+255),w,b
  2679  000B00  0101               	movlb	1	; () banked
  2680  000B02  6F08               	movwf	_Test$3476& (0+255),b
  2681  000B04  0101               	movlb	1	; () banked
  2682  000B06  6B09               	clrf	(_Test$3476+1)& (0+255),b
  2683  000B08  D006               	goto	l7721
  2684  000B0A                     l7719:
  2685  000B0A  0E00               	movlw	0
  2686  000B0C  0101               	movlb	1	; () banked
  2687  000B0E  6F09               	movwf	(_Test$3476+1)& (0+255),b
  2688  000B10  0E00               	movlw	0
  2689  000B12  0101               	movlb	1	; () banked
  2690  000B14  6F08               	movwf	_Test$3476& (0+255),b
  2691  000B16                     l7721:
  2692                           
  2693                           ; BSR set to: 1
  2694  000B16  0101               	movlb	1	; () banked
  2695  000B18  5109               	movf	(_Test$3476+1)& (0+255),w,b
  2696  000B1A  1108               	iorwf	_Test$3476& (0+255),w,b
  2697  000B1C  A4D8               	btfss	status,2,c
  2698  000B1E  D7DE               	goto	l7715
  2699                           
  2700                           ; BSR set to: 1
  2701                           ;AccessB.c: 1170: ToSendDataBuffer[0] = 6;
  2702                           
  2703                           ; BSR set to: 1
  2704  000B20  0E06               	movlw	6
  2705  000B22  0105               	movlb	5	; () banked
  2706  000B24  6F40               	movwf	64,b
  2707                           
  2708                           ; BSR set to: 5
  2709                           ;AccessB.c: 1171: USBInHandle = USBTransferOnePacket(1,1,(uint8_t*) & ToSendDataBuffer[0
      +                          ],64);
  2710  000B26  0E01               	movlw	1
  2711  000B28  0100               	movlb	0	; () banked
  2712  000B2A  6F8A               	movwf	USBTransferOnePacket@dir& (0+255),b
  2713  000B2C  0105               	movlb	5	; () banked
  2714  000B2E  0E05               	movlw	5
  2715  000B30  0100               	movlb	0	; () banked
  2716  000B32  6F8C               	movwf	(USBTransferOnePacket@data+1)& (0+255),b
  2717  000B34  0105               	movlb	5	; () banked
  2718  000B36  0E40               	movlw	64
  2719  000B38  0100               	movlb	0	; () banked
  2720  000B3A  6F8B               	movwf	USBTransferOnePacket@data& (0+255),b
  2721  000B3C  0E40               	movlw	64
  2722  000B3E  0100               	movlb	0	; () banked
  2723  000B40  6F8D               	movwf	USBTransferOnePacket@len& (0+255),b
  2724  000B42  0E01               	movlw	1
  2725  000B44  ECA2  F017         	call	_USBTransferOnePacket
  2726  000B48  0100               	movlb	0	; () banked
  2727  000B4A  C08A  F02B         	movff	?_USBTransferOnePacket,_USBInHandle
  2728  000B4E  0100               	movlb	0	; () banked
  2729  000B50  C08B  F02C         	movff	?_USBTransferOnePacket+1,_USBInHandle+1
  2730  000B54                     l7727:
  2731  000B54  502C               	movf	_USBInHandle+1,w,c
  2732  000B56  102B               	iorwf	_USBInHandle,w,c
  2733  000B58  B4D8               	btfsc	status,2,c
  2734  000B5A  D013               	goto	l7731
  2735  000B5C  C02B  FFD9         	movff	_USBInHandle,fsr2l
  2736  000B60  C02C  FFDA         	movff	_USBInHandle+1,fsr2h
  2737  000B64  AEDF               	btfss	indf2,7,c
  2738  000B66  D004               	goto	u9550
  2739  000B68  0100               	movlb	0	; () banked
  2740  000B6A  6B91               	clrf	??_Test& (0+255),b
  2741  000B6C  2B91               	incf	??_Test& (0+255),f,b
  2742  000B6E  D002               	goto	u9558
  2743  000B70                     u9550:
  2744  000B70  0100               	movlb	0	; () banked
  2745  000B72  6B91               	clrf	??_Test& (0+255),b
  2746  000B74                     u9558:
  2747  000B74  0100               	movlb	0	; () banked
  2748  000B76  5191               	movf	??_Test& (0+255),w,b
  2749  000B78  0101               	movlb	1	; () banked
  2750  000B7A  6F0A               	movwf	_Test$3477& (0+255),b
  2751  000B7C  0101               	movlb	1	; () banked
  2752  000B7E  6B0B               	clrf	(_Test$3477+1)& (0+255),b
  2753  000B80  D006               	goto	l7733
  2754  000B82                     l7731:
  2755  000B82  0E00               	movlw	0
  2756  000B84  0101               	movlb	1	; () banked
  2757  000B86  6F0B               	movwf	(_Test$3477+1)& (0+255),b
  2758  000B88  0E00               	movlw	0
  2759  000B8A  0101               	movlb	1	; () banked
  2760  000B8C  6F0A               	movwf	_Test$3477& (0+255),b
  2761  000B8E                     l7733:
  2762                           
  2763                           ; BSR set to: 1
  2764  000B8E  0101               	movlb	1	; () banked
  2765  000B90  510B               	movf	(_Test$3477+1)& (0+255),w,b
  2766  000B92  110A               	iorwf	_Test$3477& (0+255),w,b
  2767  000B94  A4D8               	btfss	status,2,c
  2768  000B96  D7DE               	goto	l7727
  2769                           
  2770                           ; BSR set to: 1
  2771                           ;AccessB.c: 1173: ToSendDataBuffer[0] = 7;
  2772                           
  2773                           ; BSR set to: 1
  2774  000B98  0E07               	movlw	7
  2775  000B9A  0105               	movlb	5	; () banked
  2776  000B9C  6F40               	movwf	64,b
  2777                           
  2778                           ; BSR set to: 5
  2779                           ;AccessB.c: 1174: USBInHandle = USBTransferOnePacket(1,1,(uint8_t*) & ToSendDataBuffer[0
      +                          ],64);
  2780  000B9E  0E01               	movlw	1
  2781  000BA0  0100               	movlb	0	; () banked
  2782  000BA2  6F8A               	movwf	USBTransferOnePacket@dir& (0+255),b
  2783  000BA4  0105               	movlb	5	; () banked
  2784  000BA6  0E05               	movlw	5
  2785  000BA8  0100               	movlb	0	; () banked
  2786  000BAA  6F8C               	movwf	(USBTransferOnePacket@data+1)& (0+255),b
  2787  000BAC  0105               	movlb	5	; () banked
  2788  000BAE  0E40               	movlw	64
  2789  000BB0  0100               	movlb	0	; () banked
  2790  000BB2  6F8B               	movwf	USBTransferOnePacket@data& (0+255),b
  2791  000BB4  0E40               	movlw	64
  2792  000BB6  0100               	movlb	0	; () banked
  2793  000BB8  6F8D               	movwf	USBTransferOnePacket@len& (0+255),b
  2794  000BBA  0E01               	movlw	1
  2795  000BBC  ECA2  F017         	call	_USBTransferOnePacket
  2796  000BC0  0100               	movlb	0	; () banked
  2797  000BC2  C08A  F02B         	movff	?_USBTransferOnePacket,_USBInHandle
  2798  000BC6  0100               	movlb	0	; () banked
  2799  000BC8  C08B  F02C         	movff	?_USBTransferOnePacket+1,_USBInHandle+1
  2800  000BCC                     l7739:
  2801  000BCC  502C               	movf	_USBInHandle+1,w,c
  2802  000BCE  102B               	iorwf	_USBInHandle,w,c
  2803  000BD0  B4D8               	btfsc	status,2,c
  2804  000BD2  D013               	goto	l7743
  2805  000BD4  C02B  FFD9         	movff	_USBInHandle,fsr2l
  2806  000BD8  C02C  FFDA         	movff	_USBInHandle+1,fsr2h
  2807  000BDC  AEDF               	btfss	indf2,7,c
  2808  000BDE  D004               	goto	u9580
  2809  000BE0  0100               	movlb	0	; () banked
  2810  000BE2  6B91               	clrf	??_Test& (0+255),b
  2811  000BE4  2B91               	incf	??_Test& (0+255),f,b
  2812  000BE6  D002               	goto	u9588
  2813  000BE8                     u9580:
  2814  000BE8  0100               	movlb	0	; () banked
  2815  000BEA  6B91               	clrf	??_Test& (0+255),b
  2816  000BEC                     u9588:
  2817  000BEC  0100               	movlb	0	; () banked
  2818  000BEE  5191               	movf	??_Test& (0+255),w,b
  2819  000BF0  0101               	movlb	1	; () banked
  2820  000BF2  6F0C               	movwf	_Test$3478& (0+255),b
  2821  000BF4  0101               	movlb	1	; () banked
  2822  000BF6  6B0D               	clrf	(_Test$3478+1)& (0+255),b
  2823  000BF8  D006               	goto	l7745
  2824  000BFA                     l7743:
  2825  000BFA  0E00               	movlw	0
  2826  000BFC  0101               	movlb	1	; () banked
  2827  000BFE  6F0D               	movwf	(_Test$3478+1)& (0+255),b
  2828  000C00  0E00               	movlw	0
  2829  000C02  0101               	movlb	1	; () banked
  2830  000C04  6F0C               	movwf	_Test$3478& (0+255),b
  2831  000C06                     l7745:
  2832                           
  2833                           ; BSR set to: 1
  2834  000C06  0101               	movlb	1	; () banked
  2835  000C08  510D               	movf	(_Test$3478+1)& (0+255),w,b
  2836  000C0A  110C               	iorwf	_Test$3478& (0+255),w,b
  2837  000C0C  A4D8               	btfss	status,2,c
  2838  000C0E  D7DE               	goto	l7739
  2839                           
  2840                           ; BSR set to: 1
  2841                           ;AccessB.c: 1176: ToSendDataBuffer[0] = 8;
  2842                           
  2843                           ; BSR set to: 1
  2844  000C10  0E08               	movlw	8
  2845  000C12  0105               	movlb	5	; () banked
  2846  000C14  6F40               	movwf	64,b
  2847                           
  2848                           ; BSR set to: 5
  2849                           ;AccessB.c: 1177: USBInHandle = USBTransferOnePacket(1,1,(uint8_t*) & ToSendDataBuffer[0
      +                          ],64);
  2850  000C16  0E01               	movlw	1
  2851  000C18  0100               	movlb	0	; () banked
  2852  000C1A  6F8A               	movwf	USBTransferOnePacket@dir& (0+255),b
  2853  000C1C  0105               	movlb	5	; () banked
  2854  000C1E  0E05               	movlw	5
  2855  000C20  0100               	movlb	0	; () banked
  2856  000C22  6F8C               	movwf	(USBTransferOnePacket@data+1)& (0+255),b
  2857  000C24  0105               	movlb	5	; () banked
  2858  000C26  0E40               	movlw	64
  2859  000C28  0100               	movlb	0	; () banked
  2860  000C2A  6F8B               	movwf	USBTransferOnePacket@data& (0+255),b
  2861  000C2C  0E40               	movlw	64
  2862  000C2E  0100               	movlb	0	; () banked
  2863  000C30  6F8D               	movwf	USBTransferOnePacket@len& (0+255),b
  2864  000C32  0E01               	movlw	1
  2865  000C34  ECA2  F017         	call	_USBTransferOnePacket
  2866  000C38  0100               	movlb	0	; () banked
  2867  000C3A  C08A  F02B         	movff	?_USBTransferOnePacket,_USBInHandle
  2868  000C3E  0100               	movlb	0	; () banked
  2869  000C40  C08B  F02C         	movff	?_USBTransferOnePacket+1,_USBInHandle+1
  2870  000C44                     l7751:
  2871  000C44  502C               	movf	_USBInHandle+1,w,c
  2872  000C46  102B               	iorwf	_USBInHandle,w,c
  2873  000C48  B4D8               	btfsc	status,2,c
  2874  000C4A  D013               	goto	l7755
  2875  000C4C  C02B  FFD9         	movff	_USBInHandle,fsr2l
  2876  000C50  C02C  FFDA         	movff	_USBInHandle+1,fsr2h
  2877  000C54  AEDF               	btfss	indf2,7,c
  2878  000C56  D004               	goto	u9610
  2879  000C58  0100               	movlb	0	; () banked
  2880  000C5A  6B91               	clrf	??_Test& (0+255),b
  2881  000C5C  2B91               	incf	??_Test& (0+255),f,b
  2882  000C5E  D002               	goto	u9618
  2883  000C60                     u9610:
  2884  000C60  0100               	movlb	0	; () banked
  2885  000C62  6B91               	clrf	??_Test& (0+255),b
  2886  000C64                     u9618:
  2887  000C64  0100               	movlb	0	; () banked
  2888  000C66  5191               	movf	??_Test& (0+255),w,b
  2889  000C68  0101               	movlb	1	; () banked
  2890  000C6A  6F0E               	movwf	_Test$3479& (0+255),b
  2891  000C6C  0101               	movlb	1	; () banked
  2892  000C6E  6B0F               	clrf	(_Test$3479+1)& (0+255),b
  2893  000C70  D006               	goto	l7757
  2894  000C72                     l7755:
  2895  000C72  0E00               	movlw	0
  2896  000C74  0101               	movlb	1	; () banked
  2897  000C76  6F0F               	movwf	(_Test$3479+1)& (0+255),b
  2898  000C78  0E00               	movlw	0
  2899  000C7A  0101               	movlb	1	; () banked
  2900  000C7C  6F0E               	movwf	_Test$3479& (0+255),b
  2901  000C7E                     l7757:
  2902                           
  2903                           ; BSR set to: 1
  2904  000C7E  0101               	movlb	1	; () banked
  2905  000C80  510F               	movf	(_Test$3479+1)& (0+255),w,b
  2906  000C82  110E               	iorwf	_Test$3479& (0+255),w,b
  2907  000C84  A4D8               	btfss	status,2,c
  2908  000C86  D7DE               	goto	l7751
  2909                           
  2910                           ; BSR set to: 1
  2911                           ;AccessB.c: 1179: ToSendDataBuffer[0] = 9;
  2912                           
  2913                           ; BSR set to: 1
  2914  000C88  0E09               	movlw	9
  2915  000C8A  0105               	movlb	5	; () banked
  2916  000C8C  6F40               	movwf	64,b
  2917                           
  2918                           ; BSR set to: 5
  2919                           ;AccessB.c: 1180: USBInHandle = USBTransferOnePacket(1,1,(uint8_t*) & ToSendDataBuffer[0
      +                          ],64);
  2920  000C8E  0E01               	movlw	1
  2921  000C90  0100               	movlb	0	; () banked
  2922  000C92  6F8A               	movwf	USBTransferOnePacket@dir& (0+255),b
  2923  000C94  0105               	movlb	5	; () banked
  2924  000C96  0E05               	movlw	5
  2925  000C98  0100               	movlb	0	; () banked
  2926  000C9A  6F8C               	movwf	(USBTransferOnePacket@data+1)& (0+255),b
  2927  000C9C  0105               	movlb	5	; () banked
  2928  000C9E  0E40               	movlw	64
  2929  000CA0  0100               	movlb	0	; () banked
  2930  000CA2  6F8B               	movwf	USBTransferOnePacket@data& (0+255),b
  2931  000CA4  0E40               	movlw	64
  2932  000CA6  0100               	movlb	0	; () banked
  2933  000CA8  6F8D               	movwf	USBTransferOnePacket@len& (0+255),b
  2934  000CAA  0E01               	movlw	1
  2935  000CAC  ECA2  F017         	call	_USBTransferOnePacket
  2936  000CB0  0100               	movlb	0	; () banked
  2937  000CB2  C08A  F02B         	movff	?_USBTransferOnePacket,_USBInHandle
  2938  000CB6  0100               	movlb	0	; () banked
  2939  000CB8  C08B  F02C         	movff	?_USBTransferOnePacket+1,_USBInHandle+1
  2940  000CBC                     l7763:
  2941  000CBC  502C               	movf	_USBInHandle+1,w,c
  2942  000CBE  102B               	iorwf	_USBInHandle,w,c
  2943  000CC0  B4D8               	btfsc	status,2,c
  2944  000CC2  D013               	goto	l7767
  2945  000CC4  C02B  FFD9         	movff	_USBInHandle,fsr2l
  2946  000CC8  C02C  FFDA         	movff	_USBInHandle+1,fsr2h
  2947  000CCC  AEDF               	btfss	indf2,7,c
  2948  000CCE  D004               	goto	u9640
  2949  000CD0  0100               	movlb	0	; () banked
  2950  000CD2  6B91               	clrf	??_Test& (0+255),b
  2951  000CD4  2B91               	incf	??_Test& (0+255),f,b
  2952  000CD6  D002               	goto	u9648
  2953  000CD8                     u9640:
  2954  000CD8  0100               	movlb	0	; () banked
  2955  000CDA  6B91               	clrf	??_Test& (0+255),b
  2956  000CDC                     u9648:
  2957  000CDC  0100               	movlb	0	; () banked
  2958  000CDE  5191               	movf	??_Test& (0+255),w,b
  2959  000CE0  0101               	movlb	1	; () banked
  2960  000CE2  6F10               	movwf	_Test$3480& (0+255),b
  2961  000CE4  0101               	movlb	1	; () banked
  2962  000CE6  6B11               	clrf	(_Test$3480+1)& (0+255),b
  2963  000CE8  D006               	goto	l7769
  2964  000CEA                     l7767:
  2965  000CEA  0E00               	movlw	0
  2966  000CEC  0101               	movlb	1	; () banked
  2967  000CEE  6F11               	movwf	(_Test$3480+1)& (0+255),b
  2968  000CF0  0E00               	movlw	0
  2969  000CF2  0101               	movlb	1	; () banked
  2970  000CF4  6F10               	movwf	_Test$3480& (0+255),b
  2971  000CF6                     l7769:
  2972                           
  2973                           ; BSR set to: 1
  2974  000CF6  0101               	movlb	1	; () banked
  2975  000CF8  5111               	movf	(_Test$3480+1)& (0+255),w,b
  2976  000CFA  1110               	iorwf	_Test$3480& (0+255),w,b
  2977  000CFC  A4D8               	btfss	status,2,c
  2978  000CFE  D7DE               	goto	l7763
  2979                           
  2980                           ; BSR set to: 1
  2981                           ;AccessB.c: 1182: ToSendDataBuffer[0] = 10;
  2982                           
  2983                           ; BSR set to: 1
  2984  000D00  0E0A               	movlw	10
  2985  000D02  0105               	movlb	5	; () banked
  2986  000D04  6F40               	movwf	64,b
  2987                           
  2988                           ; BSR set to: 5
  2989                           ;AccessB.c: 1183: USBInHandle = USBTransferOnePacket(1,1,(uint8_t*) & ToSendDataBuffer[0
      +                          ],64);
  2990  000D06  0E01               	movlw	1
  2991  000D08  0100               	movlb	0	; () banked
  2992  000D0A  6F8A               	movwf	USBTransferOnePacket@dir& (0+255),b
  2993  000D0C  0105               	movlb	5	; () banked
  2994  000D0E  0E05               	movlw	5
  2995  000D10  0100               	movlb	0	; () banked
  2996  000D12  6F8C               	movwf	(USBTransferOnePacket@data+1)& (0+255),b
  2997  000D14  0105               	movlb	5	; () banked
  2998  000D16  0E40               	movlw	64
  2999  000D18  0100               	movlb	0	; () banked
  3000  000D1A  6F8B               	movwf	USBTransferOnePacket@data& (0+255),b
  3001  000D1C  0E40               	movlw	64
  3002  000D1E  0100               	movlb	0	; () banked
  3003  000D20  6F8D               	movwf	USBTransferOnePacket@len& (0+255),b
  3004  000D22  0E01               	movlw	1
  3005  000D24  ECA2  F017         	call	_USBTransferOnePacket
  3006  000D28  0100               	movlb	0	; () banked
  3007  000D2A  C08A  F02B         	movff	?_USBTransferOnePacket,_USBInHandle
  3008  000D2E  0100               	movlb	0	; () banked
  3009  000D30  C08B  F02C         	movff	?_USBTransferOnePacket+1,_USBInHandle+1
  3010  000D34                     l7775:
  3011  000D34  502C               	movf	_USBInHandle+1,w,c
  3012  000D36  102B               	iorwf	_USBInHandle,w,c
  3013  000D38  B4D8               	btfsc	status,2,c
  3014  000D3A  D013               	goto	l7779
  3015  000D3C  C02B  FFD9         	movff	_USBInHandle,fsr2l
  3016  000D40  C02C  FFDA         	movff	_USBInHandle+1,fsr2h
  3017  000D44  AEDF               	btfss	indf2,7,c
  3018  000D46  D004               	goto	u9670
  3019  000D48  0100               	movlb	0	; () banked
  3020  000D4A  6B91               	clrf	??_Test& (0+255),b
  3021  000D4C  2B91               	incf	??_Test& (0+255),f,b
  3022  000D4E  D002               	goto	u9678
  3023  000D50                     u9670:
  3024  000D50  0100               	movlb	0	; () banked
  3025  000D52  6B91               	clrf	??_Test& (0+255),b
  3026  000D54                     u9678:
  3027  000D54  0100               	movlb	0	; () banked
  3028  000D56  5191               	movf	??_Test& (0+255),w,b
  3029  000D58  0101               	movlb	1	; () banked
  3030  000D5A  6F12               	movwf	_Test$3481& (0+255),b
  3031  000D5C  0101               	movlb	1	; () banked
  3032  000D5E  6B13               	clrf	(_Test$3481+1)& (0+255),b
  3033  000D60  D006               	goto	l7781
  3034  000D62                     l7779:
  3035  000D62  0E00               	movlw	0
  3036  000D64  0101               	movlb	1	; () banked
  3037  000D66  6F13               	movwf	(_Test$3481+1)& (0+255),b
  3038  000D68  0E00               	movlw	0
  3039  000D6A  0101               	movlb	1	; () banked
  3040  000D6C  6F12               	movwf	_Test$3481& (0+255),b
  3041  000D6E                     l7781:
  3042                           
  3043                           ; BSR set to: 1
  3044  000D6E  0101               	movlb	1	; () banked
  3045  000D70  5113               	movf	(_Test$3481+1)& (0+255),w,b
  3046  000D72  1112               	iorwf	_Test$3481& (0+255),w,b
  3047  000D74  A4D8               	btfss	status,2,c
  3048  000D76  D7DE               	goto	l7775
  3049                           
  3050                           ; BSR set to: 1
  3051                           ;AccessB.c: 1185: ToSendDataBuffer[0] = 11;
  3052                           
  3053                           ; BSR set to: 1
  3054  000D78  0E0B               	movlw	11
  3055  000D7A  0105               	movlb	5	; () banked
  3056  000D7C  6F40               	movwf	64,b
  3057                           
  3058                           ; BSR set to: 5
  3059                           ;AccessB.c: 1186: USBInHandle = USBTransferOnePacket(1,1,(uint8_t*) & ToSendDataBuffer[0
      +                          ],64);
  3060  000D7E  0E01               	movlw	1
  3061  000D80  0100               	movlb	0	; () banked
  3062  000D82  6F8A               	movwf	USBTransferOnePacket@dir& (0+255),b
  3063  000D84  0105               	movlb	5	; () banked
  3064  000D86  0E05               	movlw	5
  3065  000D88  0100               	movlb	0	; () banked
  3066  000D8A  6F8C               	movwf	(USBTransferOnePacket@data+1)& (0+255),b
  3067  000D8C  0105               	movlb	5	; () banked
  3068  000D8E  0E40               	movlw	64
  3069  000D90  0100               	movlb	0	; () banked
  3070  000D92  6F8B               	movwf	USBTransferOnePacket@data& (0+255),b
  3071  000D94  0E40               	movlw	64
  3072  000D96  0100               	movlb	0	; () banked
  3073  000D98  6F8D               	movwf	USBTransferOnePacket@len& (0+255),b
  3074  000D9A  0E01               	movlw	1
  3075  000D9C  ECA2  F017         	call	_USBTransferOnePacket
  3076  000DA0  0100               	movlb	0	; () banked
  3077  000DA2  C08A  F02B         	movff	?_USBTransferOnePacket,_USBInHandle
  3078  000DA6  0100               	movlb	0	; () banked
  3079  000DA8  C08B  F02C         	movff	?_USBTransferOnePacket+1,_USBInHandle+1
  3080  000DAC                     l7787:
  3081  000DAC  502C               	movf	_USBInHandle+1,w,c
  3082  000DAE  102B               	iorwf	_USBInHandle,w,c
  3083  000DB0  B4D8               	btfsc	status,2,c
  3084  000DB2  D013               	goto	l7791
  3085  000DB4  C02B  FFD9         	movff	_USBInHandle,fsr2l
  3086  000DB8  C02C  FFDA         	movff	_USBInHandle+1,fsr2h
  3087  000DBC  AEDF               	btfss	indf2,7,c
  3088  000DBE  D004               	goto	u9700
  3089  000DC0  0100               	movlb	0	; () banked
  3090  000DC2  6B91               	clrf	??_Test& (0+255),b
  3091  000DC4  2B91               	incf	??_Test& (0+255),f,b
  3092  000DC6  D002               	goto	u9708
  3093  000DC8                     u9700:
  3094  000DC8  0100               	movlb	0	; () banked
  3095  000DCA  6B91               	clrf	??_Test& (0+255),b
  3096  000DCC                     u9708:
  3097  000DCC  0100               	movlb	0	; () banked
  3098  000DCE  5191               	movf	??_Test& (0+255),w,b
  3099  000DD0  0101               	movlb	1	; () banked
  3100  000DD2  6F14               	movwf	_Test$3482& (0+255),b
  3101  000DD4  0101               	movlb	1	; () banked
  3102  000DD6  6B15               	clrf	(_Test$3482+1)& (0+255),b
  3103  000DD8  D006               	goto	l7793
  3104  000DDA                     l7791:
  3105  000DDA  0E00               	movlw	0
  3106  000DDC  0101               	movlb	1	; () banked
  3107  000DDE  6F15               	movwf	(_Test$3482+1)& (0+255),b
  3108  000DE0  0E00               	movlw	0
  3109  000DE2  0101               	movlb	1	; () banked
  3110  000DE4  6F14               	movwf	_Test$3482& (0+255),b
  3111  000DE6                     l7793:
  3112                           
  3113                           ; BSR set to: 1
  3114  000DE6  0101               	movlb	1	; () banked
  3115  000DE8  5115               	movf	(_Test$3482+1)& (0+255),w,b
  3116  000DEA  1114               	iorwf	_Test$3482& (0+255),w,b
  3117  000DEC  A4D8               	btfss	status,2,c
  3118  000DEE  D7DE               	goto	l7787
  3119                           
  3120                           ; BSR set to: 1
  3121                           ;AccessB.c: 1188: ToSendDataBuffer[0] = 12;
  3122                           
  3123                           ; BSR set to: 1
  3124  000DF0  0E0C               	movlw	12
  3125  000DF2  0105               	movlb	5	; () banked
  3126  000DF4  6F40               	movwf	64,b
  3127                           
  3128                           ; BSR set to: 5
  3129                           ;AccessB.c: 1189: USBInHandle = USBTransferOnePacket(1,1,(uint8_t*) & ToSendDataBuffer[0
      +                          ],64);
  3130  000DF6  0E01               	movlw	1
  3131  000DF8  0100               	movlb	0	; () banked
  3132  000DFA  6F8A               	movwf	USBTransferOnePacket@dir& (0+255),b
  3133  000DFC  0105               	movlb	5	; () banked
  3134  000DFE  0E05               	movlw	5
  3135  000E00  0100               	movlb	0	; () banked
  3136  000E02  6F8C               	movwf	(USBTransferOnePacket@data+1)& (0+255),b
  3137  000E04  0105               	movlb	5	; () banked
  3138  000E06  0E40               	movlw	64
  3139  000E08  0100               	movlb	0	; () banked
  3140  000E0A  6F8B               	movwf	USBTransferOnePacket@data& (0+255),b
  3141  000E0C  0E40               	movlw	64
  3142  000E0E  0100               	movlb	0	; () banked
  3143  000E10  6F8D               	movwf	USBTransferOnePacket@len& (0+255),b
  3144  000E12  0E01               	movlw	1
  3145  000E14  ECA2  F017         	call	_USBTransferOnePacket
  3146  000E18  0100               	movlb	0	; () banked
  3147  000E1A  C08A  F02B         	movff	?_USBTransferOnePacket,_USBInHandle
  3148  000E1E  0100               	movlb	0	; () banked
  3149  000E20  C08B  F02C         	movff	?_USBTransferOnePacket+1,_USBInHandle+1
  3150  000E24                     l7799:
  3151  000E24  502C               	movf	_USBInHandle+1,w,c
  3152  000E26  102B               	iorwf	_USBInHandle,w,c
  3153  000E28  B4D8               	btfsc	status,2,c
  3154  000E2A  D013               	goto	l7803
  3155  000E2C  C02B  FFD9         	movff	_USBInHandle,fsr2l
  3156  000E30  C02C  FFDA         	movff	_USBInHandle+1,fsr2h
  3157  000E34  AEDF               	btfss	indf2,7,c
  3158  000E36  D004               	goto	u9730
  3159  000E38  0100               	movlb	0	; () banked
  3160  000E3A  6B91               	clrf	??_Test& (0+255),b
  3161  000E3C  2B91               	incf	??_Test& (0+255),f,b
  3162  000E3E  D002               	goto	u9738
  3163  000E40                     u9730:
  3164  000E40  0100               	movlb	0	; () banked
  3165  000E42  6B91               	clrf	??_Test& (0+255),b
  3166  000E44                     u9738:
  3167  000E44  0100               	movlb	0	; () banked
  3168  000E46  5191               	movf	??_Test& (0+255),w,b
  3169  000E48  0101               	movlb	1	; () banked
  3170  000E4A  6F16               	movwf	_Test$3483& (0+255),b
  3171  000E4C  0101               	movlb	1	; () banked
  3172  000E4E  6B17               	clrf	(_Test$3483+1)& (0+255),b
  3173  000E50  D006               	goto	l7805
  3174  000E52                     l7803:
  3175  000E52  0E00               	movlw	0
  3176  000E54  0101               	movlb	1	; () banked
  3177  000E56  6F17               	movwf	(_Test$3483+1)& (0+255),b
  3178  000E58  0E00               	movlw	0
  3179  000E5A  0101               	movlb	1	; () banked
  3180  000E5C  6F16               	movwf	_Test$3483& (0+255),b
  3181  000E5E                     l7805:
  3182                           
  3183                           ; BSR set to: 1
  3184  000E5E  0101               	movlb	1	; () banked
  3185  000E60  5117               	movf	(_Test$3483+1)& (0+255),w,b
  3186  000E62  1116               	iorwf	_Test$3483& (0+255),w,b
  3187  000E64  A4D8               	btfss	status,2,c
  3188  000E66  D7DE               	goto	l7799
  3189                           
  3190                           ; BSR set to: 1
  3191                           ;AccessB.c: 1191: ToSendDataBuffer[0] = 13;
  3192                           
  3193                           ; BSR set to: 1
  3194  000E68  0E0D               	movlw	13
  3195  000E6A  0105               	movlb	5	; () banked
  3196  000E6C  6F40               	movwf	64,b
  3197                           
  3198                           ; BSR set to: 5
  3199                           ;AccessB.c: 1192: USBInHandle = USBTransferOnePacket(1,1,(uint8_t*) & ToSendDataBuffer[0
      +                          ],64);
  3200  000E6E  0E01               	movlw	1
  3201  000E70  0100               	movlb	0	; () banked
  3202  000E72  6F8A               	movwf	USBTransferOnePacket@dir& (0+255),b
  3203  000E74  0105               	movlb	5	; () banked
  3204  000E76  0E05               	movlw	5
  3205  000E78  0100               	movlb	0	; () banked
  3206  000E7A  6F8C               	movwf	(USBTransferOnePacket@data+1)& (0+255),b
  3207  000E7C  0105               	movlb	5	; () banked
  3208  000E7E  0E40               	movlw	64
  3209  000E80  0100               	movlb	0	; () banked
  3210  000E82  6F8B               	movwf	USBTransferOnePacket@data& (0+255),b
  3211  000E84  0E40               	movlw	64
  3212  000E86  0100               	movlb	0	; () banked
  3213  000E88  6F8D               	movwf	USBTransferOnePacket@len& (0+255),b
  3214  000E8A  0E01               	movlw	1
  3215  000E8C  ECA2  F017         	call	_USBTransferOnePacket
  3216  000E90  0100               	movlb	0	; () banked
  3217  000E92  C08A  F02B         	movff	?_USBTransferOnePacket,_USBInHandle
  3218  000E96  0100               	movlb	0	; () banked
  3219  000E98  C08B  F02C         	movff	?_USBTransferOnePacket+1,_USBInHandle+1
  3220  000E9C                     l7811:
  3221  000E9C  502C               	movf	_USBInHandle+1,w,c
  3222  000E9E  102B               	iorwf	_USBInHandle,w,c
  3223  000EA0  B4D8               	btfsc	status,2,c
  3224  000EA2  D013               	goto	l7815
  3225  000EA4  C02B  FFD9         	movff	_USBInHandle,fsr2l
  3226  000EA8  C02C  FFDA         	movff	_USBInHandle+1,fsr2h
  3227  000EAC  AEDF               	btfss	indf2,7,c
  3228  000EAE  D004               	goto	u9760
  3229  000EB0  0100               	movlb	0	; () banked
  3230  000EB2  6B91               	clrf	??_Test& (0+255),b
  3231  000EB4  2B91               	incf	??_Test& (0+255),f,b
  3232  000EB6  D002               	goto	u9768
  3233  000EB8                     u9760:
  3234  000EB8  0100               	movlb	0	; () banked
  3235  000EBA  6B91               	clrf	??_Test& (0+255),b
  3236  000EBC                     u9768:
  3237  000EBC  0100               	movlb	0	; () banked
  3238  000EBE  5191               	movf	??_Test& (0+255),w,b
  3239  000EC0  0101               	movlb	1	; () banked
  3240  000EC2  6F18               	movwf	_Test$3484& (0+255),b
  3241  000EC4  0101               	movlb	1	; () banked
  3242  000EC6  6B19               	clrf	(_Test$3484+1)& (0+255),b
  3243  000EC8  D006               	goto	l7817
  3244  000ECA                     l7815:
  3245  000ECA  0E00               	movlw	0
  3246  000ECC  0101               	movlb	1	; () banked
  3247  000ECE  6F19               	movwf	(_Test$3484+1)& (0+255),b
  3248  000ED0  0E00               	movlw	0
  3249  000ED2  0101               	movlb	1	; () banked
  3250  000ED4  6F18               	movwf	_Test$3484& (0+255),b
  3251  000ED6                     l7817:
  3252                           
  3253                           ; BSR set to: 1
  3254  000ED6  0101               	movlb	1	; () banked
  3255  000ED8  5119               	movf	(_Test$3484+1)& (0+255),w,b
  3256  000EDA  1118               	iorwf	_Test$3484& (0+255),w,b
  3257  000EDC  A4D8               	btfss	status,2,c
  3258  000EDE  D7DE               	goto	l7811
  3259                           
  3260                           ; BSR set to: 1
  3261                           ;AccessB.c: 1194: ToSendDataBuffer[0] = 14;
  3262                           
  3263                           ; BSR set to: 1
  3264  000EE0  0E0E               	movlw	14
  3265  000EE2  0105               	movlb	5	; () banked
  3266  000EE4  6F40               	movwf	64,b
  3267                           
  3268                           ; BSR set to: 5
  3269                           ;AccessB.c: 1195: USBInHandle = USBTransferOnePacket(1,1,(uint8_t*) & ToSendDataBuffer[0
      +                          ],64);
  3270  000EE6  0E01               	movlw	1
  3271  000EE8  0100               	movlb	0	; () banked
  3272  000EEA  6F8A               	movwf	USBTransferOnePacket@dir& (0+255),b
  3273  000EEC  0105               	movlb	5	; () banked
  3274  000EEE  0E05               	movlw	5
  3275  000EF0  0100               	movlb	0	; () banked
  3276  000EF2  6F8C               	movwf	(USBTransferOnePacket@data+1)& (0+255),b
  3277  000EF4  0105               	movlb	5	; () banked
  3278  000EF6  0E40               	movlw	64
  3279  000EF8  0100               	movlb	0	; () banked
  3280  000EFA  6F8B               	movwf	USBTransferOnePacket@data& (0+255),b
  3281  000EFC  0E40               	movlw	64
  3282  000EFE  0100               	movlb	0	; () banked
  3283  000F00  6F8D               	movwf	USBTransferOnePacket@len& (0+255),b
  3284  000F02  0E01               	movlw	1
  3285  000F04  ECA2  F017         	call	_USBTransferOnePacket
  3286  000F08  0100               	movlb	0	; () banked
  3287  000F0A  C08A  F02B         	movff	?_USBTransferOnePacket,_USBInHandle
  3288  000F0E  0100               	movlb	0	; () banked
  3289  000F10  C08B  F02C         	movff	?_USBTransferOnePacket+1,_USBInHandle+1
  3290  000F14                     l7823:
  3291  000F14  502C               	movf	_USBInHandle+1,w,c
  3292  000F16  102B               	iorwf	_USBInHandle,w,c
  3293  000F18  B4D8               	btfsc	status,2,c
  3294  000F1A  D013               	goto	l7827
  3295  000F1C  C02B  FFD9         	movff	_USBInHandle,fsr2l
  3296  000F20  C02C  FFDA         	movff	_USBInHandle+1,fsr2h
  3297  000F24  AEDF               	btfss	indf2,7,c
  3298  000F26  D004               	goto	u9790
  3299  000F28  0100               	movlb	0	; () banked
  3300  000F2A  6B91               	clrf	??_Test& (0+255),b
  3301  000F2C  2B91               	incf	??_Test& (0+255),f,b
  3302  000F2E  D002               	goto	u9798
  3303  000F30                     u9790:
  3304  000F30  0100               	movlb	0	; () banked
  3305  000F32  6B91               	clrf	??_Test& (0+255),b
  3306  000F34                     u9798:
  3307  000F34  0100               	movlb	0	; () banked
  3308  000F36  5191               	movf	??_Test& (0+255),w,b
  3309  000F38  0101               	movlb	1	; () banked
  3310  000F3A  6F1A               	movwf	_Test$3485& (0+255),b
  3311  000F3C  0101               	movlb	1	; () banked
  3312  000F3E  6B1B               	clrf	(_Test$3485+1)& (0+255),b
  3313  000F40  D006               	goto	l7829
  3314  000F42                     l7827:
  3315  000F42  0E00               	movlw	0
  3316  000F44  0101               	movlb	1	; () banked
  3317  000F46  6F1B               	movwf	(_Test$3485+1)& (0+255),b
  3318  000F48  0E00               	movlw	0
  3319  000F4A  0101               	movlb	1	; () banked
  3320  000F4C  6F1A               	movwf	_Test$3485& (0+255),b
  3321  000F4E                     l7829:
  3322                           
  3323                           ; BSR set to: 1
  3324  000F4E  0101               	movlb	1	; () banked
  3325  000F50  511B               	movf	(_Test$3485+1)& (0+255),w,b
  3326  000F52  111A               	iorwf	_Test$3485& (0+255),w,b
  3327  000F54  A4D8               	btfss	status,2,c
  3328  000F56  D7DE               	goto	l7823
  3329                           
  3330                           ; BSR set to: 1
  3331                           ;AccessB.c: 1197: ToSendDataBuffer[0] = 15;
  3332                           
  3333                           ; BSR set to: 1
  3334  000F58  0E0F               	movlw	15
  3335  000F5A  0105               	movlb	5	; () banked
  3336  000F5C  6F40               	movwf	64,b
  3337                           
  3338                           ; BSR set to: 5
  3339                           ;AccessB.c: 1198: USBInHandle = USBTransferOnePacket(1,1,(uint8_t*) & ToSendDataBuffer[0
      +                          ],64);
  3340  000F5E  0E01               	movlw	1
  3341  000F60  0100               	movlb	0	; () banked
  3342  000F62  6F8A               	movwf	USBTransferOnePacket@dir& (0+255),b
  3343  000F64  0105               	movlb	5	; () banked
  3344  000F66  0E05               	movlw	5
  3345  000F68  0100               	movlb	0	; () banked
  3346  000F6A  6F8C               	movwf	(USBTransferOnePacket@data+1)& (0+255),b
  3347  000F6C  0105               	movlb	5	; () banked
  3348  000F6E  0E40               	movlw	64
  3349  000F70  0100               	movlb	0	; () banked
  3350  000F72  6F8B               	movwf	USBTransferOnePacket@data& (0+255),b
  3351  000F74  0E40               	movlw	64
  3352  000F76  0100               	movlb	0	; () banked
  3353  000F78  6F8D               	movwf	USBTransferOnePacket@len& (0+255),b
  3354  000F7A  0E01               	movlw	1
  3355  000F7C  ECA2  F017         	call	_USBTransferOnePacket
  3356  000F80  0100               	movlb	0	; () banked
  3357  000F82  C08A  F02B         	movff	?_USBTransferOnePacket,_USBInHandle
  3358  000F86  0100               	movlb	0	; () banked
  3359  000F88  C08B  F02C         	movff	?_USBTransferOnePacket+1,_USBInHandle+1
  3360  000F8C                     l7835:
  3361  000F8C  502C               	movf	_USBInHandle+1,w,c
  3362  000F8E  102B               	iorwf	_USBInHandle,w,c
  3363  000F90  B4D8               	btfsc	status,2,c
  3364  000F92  D013               	goto	l7839
  3365  000F94  C02B  FFD9         	movff	_USBInHandle,fsr2l
  3366  000F98  C02C  FFDA         	movff	_USBInHandle+1,fsr2h
  3367  000F9C  AEDF               	btfss	indf2,7,c
  3368  000F9E  D004               	goto	u9820
  3369  000FA0  0100               	movlb	0	; () banked
  3370  000FA2  6B91               	clrf	??_Test& (0+255),b
  3371  000FA4  2B91               	incf	??_Test& (0+255),f,b
  3372  000FA6  D002               	goto	u9828
  3373  000FA8                     u9820:
  3374  000FA8  0100               	movlb	0	; () banked
  3375  000FAA  6B91               	clrf	??_Test& (0+255),b
  3376  000FAC                     u9828:
  3377  000FAC  0100               	movlb	0	; () banked
  3378  000FAE  5191               	movf	??_Test& (0+255),w,b
  3379  000FB0  0101               	movlb	1	; () banked
  3380  000FB2  6F1C               	movwf	_Test$3486& (0+255),b
  3381  000FB4  0101               	movlb	1	; () banked
  3382  000FB6  6B1D               	clrf	(_Test$3486+1)& (0+255),b
  3383  000FB8  D006               	goto	l7841
  3384  000FBA                     l7839:
  3385  000FBA  0E00               	movlw	0
  3386  000FBC  0101               	movlb	1	; () banked
  3387  000FBE  6F1D               	movwf	(_Test$3486+1)& (0+255),b
  3388  000FC0  0E00               	movlw	0
  3389  000FC2  0101               	movlb	1	; () banked
  3390  000FC4  6F1C               	movwf	_Test$3486& (0+255),b
  3391  000FC6                     l7841:
  3392                           
  3393                           ; BSR set to: 1
  3394  000FC6  0101               	movlb	1	; () banked
  3395  000FC8  511D               	movf	(_Test$3486+1)& (0+255),w,b
  3396  000FCA  111C               	iorwf	_Test$3486& (0+255),w,b
  3397  000FCC  A4D8               	btfss	status,2,c
  3398  000FCE  D7DE               	goto	l7835
  3399                           
  3400                           ; BSR set to: 1
  3401                           ;AccessB.c: 1200: ToSendDataBuffer[0] = 16;
  3402                           
  3403                           ; BSR set to: 1
  3404  000FD0  0E10               	movlw	16
  3405  000FD2  0105               	movlb	5	; () banked
  3406  000FD4  6F40               	movwf	64,b
  3407                           
  3408                           ; BSR set to: 5
  3409                           ;AccessB.c: 1201: USBInHandle = USBTransferOnePacket(1,1,(uint8_t*) & ToSendDataBuffer[0
      +                          ],64);
  3410  000FD6  0E01               	movlw	1
  3411  000FD8  0100               	movlb	0	; () banked
  3412  000FDA  6F8A               	movwf	USBTransferOnePacket@dir& (0+255),b
  3413  000FDC  0105               	movlb	5	; () banked
  3414  000FDE  0E05               	movlw	5
  3415  000FE0  0100               	movlb	0	; () banked
  3416  000FE2  6F8C               	movwf	(USBTransferOnePacket@data+1)& (0+255),b
  3417  000FE4  0105               	movlb	5	; () banked
  3418  000FE6  0E40               	movlw	64
  3419  000FE8  0100               	movlb	0	; () banked
  3420  000FEA  6F8B               	movwf	USBTransferOnePacket@data& (0+255),b
  3421  000FEC  0E40               	movlw	64
  3422  000FEE  0100               	movlb	0	; () banked
  3423  000FF0  6F8D               	movwf	USBTransferOnePacket@len& (0+255),b
  3424  000FF2  0E01               	movlw	1
  3425  000FF4  ECA2  F017         	call	_USBTransferOnePacket
  3426  000FF8  0100               	movlb	0	; () banked
  3427  000FFA  C08A  F02B         	movff	?_USBTransferOnePacket,_USBInHandle
  3428  000FFE  0100               	movlb	0	; () banked
  3429  001000  C08B  F02C         	movff	?_USBTransferOnePacket+1,_USBInHandle+1
  3430  001004                     l7847:
  3431  001004  502C               	movf	_USBInHandle+1,w,c
  3432  001006  102B               	iorwf	_USBInHandle,w,c
  3433  001008  B4D8               	btfsc	status,2,c
  3434  00100A  D013               	goto	l7851
  3435  00100C  C02B  FFD9         	movff	_USBInHandle,fsr2l
  3436  001010  C02C  FFDA         	movff	_USBInHandle+1,fsr2h
  3437  001014  AEDF               	btfss	indf2,7,c
  3438  001016  D004               	goto	u9850
  3439  001018  0100               	movlb	0	; () banked
  3440  00101A  6B91               	clrf	??_Test& (0+255),b
  3441  00101C  2B91               	incf	??_Test& (0+255),f,b
  3442  00101E  D002               	goto	u9858
  3443  001020                     u9850:
  3444  001020  0100               	movlb	0	; () banked
  3445  001022  6B91               	clrf	??_Test& (0+255),b
  3446  001024                     u9858:
  3447  001024  0100               	movlb	0	; () banked
  3448  001026  5191               	movf	??_Test& (0+255),w,b
  3449  001028  0101               	movlb	1	; () banked
  3450  00102A  6F1E               	movwf	_Test$3487& (0+255),b
  3451  00102C  0101               	movlb	1	; () banked
  3452  00102E  6B1F               	clrf	(_Test$3487+1)& (0+255),b
  3453  001030  D006               	goto	l7853
  3454  001032                     l7851:
  3455  001032  0E00               	movlw	0
  3456  001034  0101               	movlb	1	; () banked
  3457  001036  6F1F               	movwf	(_Test$3487+1)& (0+255),b
  3458  001038  0E00               	movlw	0
  3459  00103A  0101               	movlb	1	; () banked
  3460  00103C  6F1E               	movwf	_Test$3487& (0+255),b
  3461  00103E                     l7853:
  3462                           
  3463                           ; BSR set to: 1
  3464  00103E  0101               	movlb	1	; () banked
  3465  001040  511F               	movf	(_Test$3487+1)& (0+255),w,b
  3466  001042  111E               	iorwf	_Test$3487& (0+255),w,b
  3467  001044  A4D8               	btfss	status,2,c
  3468  001046  D7DE               	goto	l7847
  3469                           
  3470                           ; BSR set to: 1
  3471                           ;AccessB.c: 1203: ToSendDataBuffer[0] = 17;
  3472                           
  3473                           ; BSR set to: 1
  3474  001048  0E11               	movlw	17
  3475  00104A  0105               	movlb	5	; () banked
  3476  00104C  6F40               	movwf	64,b
  3477                           
  3478                           ; BSR set to: 5
  3479                           ;AccessB.c: 1204: USBInHandle = USBTransferOnePacket(1,1,(uint8_t*) & ToSendDataBuffer[0
      +                          ],64);
  3480  00104E  0E01               	movlw	1
  3481  001050  0100               	movlb	0	; () banked
  3482  001052  6F8A               	movwf	USBTransferOnePacket@dir& (0+255),b
  3483  001054  0105               	movlb	5	; () banked
  3484  001056  0E05               	movlw	5
  3485  001058  0100               	movlb	0	; () banked
  3486  00105A  6F8C               	movwf	(USBTransferOnePacket@data+1)& (0+255),b
  3487  00105C  0105               	movlb	5	; () banked
  3488  00105E  0E40               	movlw	64
  3489  001060  0100               	movlb	0	; () banked
  3490  001062  6F8B               	movwf	USBTransferOnePacket@data& (0+255),b
  3491  001064  0E40               	movlw	64
  3492  001066  0100               	movlb	0	; () banked
  3493  001068  6F8D               	movwf	USBTransferOnePacket@len& (0+255),b
  3494  00106A  0E01               	movlw	1
  3495  00106C  ECA2  F017         	call	_USBTransferOnePacket
  3496  001070  0100               	movlb	0	; () banked
  3497  001072  C08A  F02B         	movff	?_USBTransferOnePacket,_USBInHandle
  3498  001076  0100               	movlb	0	; () banked
  3499  001078  C08B  F02C         	movff	?_USBTransferOnePacket+1,_USBInHandle+1
  3500  00107C                     l7859:
  3501  00107C  502C               	movf	_USBInHandle+1,w,c
  3502  00107E  102B               	iorwf	_USBInHandle,w,c
  3503  001080  B4D8               	btfsc	status,2,c
  3504  001082  D013               	goto	l7863
  3505  001084  C02B  FFD9         	movff	_USBInHandle,fsr2l
  3506  001088  C02C  FFDA         	movff	_USBInHandle+1,fsr2h
  3507  00108C  AEDF               	btfss	indf2,7,c
  3508  00108E  D004               	goto	u9880
  3509  001090  0100               	movlb	0	; () banked
  3510  001092  6B91               	clrf	??_Test& (0+255),b
  3511  001094  2B91               	incf	??_Test& (0+255),f,b
  3512  001096  D002               	goto	u9888
  3513  001098                     u9880:
  3514  001098  0100               	movlb	0	; () banked
  3515  00109A  6B91               	clrf	??_Test& (0+255),b
  3516  00109C                     u9888:
  3517  00109C  0100               	movlb	0	; () banked
  3518  00109E  5191               	movf	??_Test& (0+255),w,b
  3519  0010A0  0101               	movlb	1	; () banked
  3520  0010A2  6F20               	movwf	_Test$3488& (0+255),b
  3521  0010A4  0101               	movlb	1	; () banked
  3522  0010A6  6B21               	clrf	(_Test$3488+1)& (0+255),b
  3523  0010A8  D006               	goto	l7865
  3524  0010AA                     l7863:
  3525  0010AA  0E00               	movlw	0
  3526  0010AC  0101               	movlb	1	; () banked
  3527  0010AE  6F21               	movwf	(_Test$3488+1)& (0+255),b
  3528  0010B0  0E00               	movlw	0
  3529  0010B2  0101               	movlb	1	; () banked
  3530  0010B4  6F20               	movwf	_Test$3488& (0+255),b
  3531  0010B6                     l7865:
  3532                           
  3533                           ; BSR set to: 1
  3534  0010B6  0101               	movlb	1	; () banked
  3535  0010B8  5121               	movf	(_Test$3488+1)& (0+255),w,b
  3536  0010BA  1120               	iorwf	_Test$3488& (0+255),w,b
  3537  0010BC  A4D8               	btfss	status,2,c
  3538  0010BE  D7DE               	goto	l7859
  3539                           
  3540                           ; BSR set to: 1
  3541                           ;AccessB.c: 1206: ToSendDataBuffer[0] = 18;
  3542                           
  3543                           ; BSR set to: 1
  3544  0010C0  0E12               	movlw	18
  3545  0010C2  0105               	movlb	5	; () banked
  3546  0010C4  6F40               	movwf	64,b
  3547                           
  3548                           ; BSR set to: 5
  3549                           ;AccessB.c: 1207: USBInHandle = USBTransferOnePacket(1,1,(uint8_t*) & ToSendDataBuffer[0
      +                          ],64);
  3550  0010C6  0E01               	movlw	1
  3551  0010C8  0100               	movlb	0	; () banked
  3552  0010CA  6F8A               	movwf	USBTransferOnePacket@dir& (0+255),b
  3553  0010CC  0105               	movlb	5	; () banked
  3554  0010CE  0E05               	movlw	5
  3555  0010D0  0100               	movlb	0	; () banked
  3556  0010D2  6F8C               	movwf	(USBTransferOnePacket@data+1)& (0+255),b
  3557  0010D4  0105               	movlb	5	; () banked
  3558  0010D6  0E40               	movlw	64
  3559  0010D8  0100               	movlb	0	; () banked
  3560  0010DA  6F8B               	movwf	USBTransferOnePacket@data& (0+255),b
  3561  0010DC  0E40               	movlw	64
  3562  0010DE  0100               	movlb	0	; () banked
  3563  0010E0  6F8D               	movwf	USBTransferOnePacket@len& (0+255),b
  3564  0010E2  0E01               	movlw	1
  3565  0010E4  ECA2  F017         	call	_USBTransferOnePacket
  3566  0010E8  0100               	movlb	0	; () banked
  3567  0010EA  C08A  F02B         	movff	?_USBTransferOnePacket,_USBInHandle
  3568  0010EE  0100               	movlb	0	; () banked
  3569  0010F0  C08B  F02C         	movff	?_USBTransferOnePacket+1,_USBInHandle+1
  3570  0010F4                     l7871:
  3571  0010F4  502C               	movf	_USBInHandle+1,w,c
  3572  0010F6  102B               	iorwf	_USBInHandle,w,c
  3573  0010F8  B4D8               	btfsc	status,2,c
  3574  0010FA  D013               	goto	l7875
  3575  0010FC  C02B  FFD9         	movff	_USBInHandle,fsr2l
  3576  001100  C02C  FFDA         	movff	_USBInHandle+1,fsr2h
  3577  001104  AEDF               	btfss	indf2,7,c
  3578  001106  D004               	goto	u9910
  3579  001108  0100               	movlb	0	; () banked
  3580  00110A  6B91               	clrf	??_Test& (0+255),b
  3581  00110C  2B91               	incf	??_Test& (0+255),f,b
  3582  00110E  D002               	goto	u9918
  3583  001110                     u9910:
  3584  001110  0100               	movlb	0	; () banked
  3585  001112  6B91               	clrf	??_Test& (0+255),b
  3586  001114                     u9918:
  3587  001114  0100               	movlb	0	; () banked
  3588  001116  5191               	movf	??_Test& (0+255),w,b
  3589  001118  0101               	movlb	1	; () banked
  3590  00111A  6F22               	movwf	_Test$3489& (0+255),b
  3591  00111C  0101               	movlb	1	; () banked
  3592  00111E  6B23               	clrf	(_Test$3489+1)& (0+255),b
  3593  001120  D006               	goto	l7877
  3594  001122                     l7875:
  3595  001122  0E00               	movlw	0
  3596  001124  0101               	movlb	1	; () banked
  3597  001126  6F23               	movwf	(_Test$3489+1)& (0+255),b
  3598  001128  0E00               	movlw	0
  3599  00112A  0101               	movlb	1	; () banked
  3600  00112C  6F22               	movwf	_Test$3489& (0+255),b
  3601  00112E                     l7877:
  3602                           
  3603                           ; BSR set to: 1
  3604  00112E  0101               	movlb	1	; () banked
  3605  001130  5123               	movf	(_Test$3489+1)& (0+255),w,b
  3606  001132  1122               	iorwf	_Test$3489& (0+255),w,b
  3607  001134  A4D8               	btfss	status,2,c
  3608  001136  D7DE               	goto	l7871
  3609                           
  3610                           ; BSR set to: 1
  3611                           ;AccessB.c: 1209: ToSendDataBuffer[0] = 19;
  3612                           
  3613                           ; BSR set to: 1
  3614  001138  0E13               	movlw	19
  3615  00113A  0105               	movlb	5	; () banked
  3616  00113C  6F40               	movwf	64,b
  3617                           
  3618                           ; BSR set to: 5
  3619                           ;AccessB.c: 1210: USBInHandle = USBTransferOnePacket(1,1,(uint8_t*) & ToSendDataBuffer[0
      +                          ],64);
  3620  00113E  0E01               	movlw	1
  3621  001140  0100               	movlb	0	; () banked
  3622  001142  6F8A               	movwf	USBTransferOnePacket@dir& (0+255),b
  3623  001144  0105               	movlb	5	; () banked
  3624  001146  0E05               	movlw	5
  3625  001148  0100               	movlb	0	; () banked
  3626  00114A  6F8C               	movwf	(USBTransferOnePacket@data+1)& (0+255),b
  3627  00114C  0105               	movlb	5	; () banked
  3628  00114E  0E40               	movlw	64
  3629  001150  0100               	movlb	0	; () banked
  3630  001152  6F8B               	movwf	USBTransferOnePacket@data& (0+255),b
  3631  001154  0E40               	movlw	64
  3632  001156  0100               	movlb	0	; () banked
  3633  001158  6F8D               	movwf	USBTransferOnePacket@len& (0+255),b
  3634  00115A  0E01               	movlw	1
  3635  00115C  ECA2  F017         	call	_USBTransferOnePacket
  3636  001160  0100               	movlb	0	; () banked
  3637  001162  C08A  F02B         	movff	?_USBTransferOnePacket,_USBInHandle
  3638  001166  0100               	movlb	0	; () banked
  3639  001168  C08B  F02C         	movff	?_USBTransferOnePacket+1,_USBInHandle+1
  3640  00116C                     l7883:
  3641  00116C  502C               	movf	_USBInHandle+1,w,c
  3642  00116E  102B               	iorwf	_USBInHandle,w,c
  3643  001170  B4D8               	btfsc	status,2,c
  3644  001172  D013               	goto	l7887
  3645  001174  C02B  FFD9         	movff	_USBInHandle,fsr2l
  3646  001178  C02C  FFDA         	movff	_USBInHandle+1,fsr2h
  3647  00117C  AEDF               	btfss	indf2,7,c
  3648  00117E  D004               	goto	u9940
  3649  001180  0100               	movlb	0	; () banked
  3650  001182  6B91               	clrf	??_Test& (0+255),b
  3651  001184  2B91               	incf	??_Test& (0+255),f,b
  3652  001186  D002               	goto	u9948
  3653  001188                     u9940:
  3654  001188  0100               	movlb	0	; () banked
  3655  00118A  6B91               	clrf	??_Test& (0+255),b
  3656  00118C                     u9948:
  3657  00118C  0100               	movlb	0	; () banked
  3658  00118E  5191               	movf	??_Test& (0+255),w,b
  3659  001190  0101               	movlb	1	; () banked
  3660  001192  6F24               	movwf	_Test$3490& (0+255),b
  3661  001194  0101               	movlb	1	; () banked
  3662  001196  6B25               	clrf	(_Test$3490+1)& (0+255),b
  3663  001198  D006               	goto	l7889
  3664  00119A                     l7887:
  3665  00119A  0E00               	movlw	0
  3666  00119C  0101               	movlb	1	; () banked
  3667  00119E  6F25               	movwf	(_Test$3490+1)& (0+255),b
  3668  0011A0  0E00               	movlw	0
  3669  0011A2  0101               	movlb	1	; () banked
  3670  0011A4  6F24               	movwf	_Test$3490& (0+255),b
  3671  0011A6                     l7889:
  3672                           
  3673                           ; BSR set to: 1
  3674  0011A6  0101               	movlb	1	; () banked
  3675  0011A8  5125               	movf	(_Test$3490+1)& (0+255),w,b
  3676  0011AA  1124               	iorwf	_Test$3490& (0+255),w,b
  3677  0011AC  A4D8               	btfss	status,2,c
  3678  0011AE  D7DE               	goto	l7883
  3679                           
  3680                           ; BSR set to: 1
  3681                           ;AccessB.c: 1212: ToSendDataBuffer[0] = 20;
  3682                           
  3683                           ; BSR set to: 1
  3684  0011B0  0E14               	movlw	20
  3685  0011B2  0105               	movlb	5	; () banked
  3686  0011B4  6F40               	movwf	64,b
  3687                           
  3688                           ; BSR set to: 5
  3689                           ;AccessB.c: 1213: USBInHandle = USBTransferOnePacket(1,1,(uint8_t*) & ToSendDataBuffer[0
      +                          ],64);
  3690  0011B6  0E01               	movlw	1
  3691  0011B8  0100               	movlb	0	; () banked
  3692  0011BA  6F8A               	movwf	USBTransferOnePacket@dir& (0+255),b
  3693  0011BC  0105               	movlb	5	; () banked
  3694  0011BE  0E05               	movlw	5
  3695  0011C0  0100               	movlb	0	; () banked
  3696  0011C2  6F8C               	movwf	(USBTransferOnePacket@data+1)& (0+255),b
  3697  0011C4  0105               	movlb	5	; () banked
  3698  0011C6  0E40               	movlw	64
  3699  0011C8  0100               	movlb	0	; () banked
  3700  0011CA  6F8B               	movwf	USBTransferOnePacket@data& (0+255),b
  3701  0011CC  0E40               	movlw	64
  3702  0011CE  0100               	movlb	0	; () banked
  3703  0011D0  6F8D               	movwf	USBTransferOnePacket@len& (0+255),b
  3704  0011D2  0E01               	movlw	1
  3705  0011D4  ECA2  F017         	call	_USBTransferOnePacket
  3706  0011D8  0100               	movlb	0	; () banked
  3707  0011DA  C08A  F02B         	movff	?_USBTransferOnePacket,_USBInHandle
  3708  0011DE  0100               	movlb	0	; () banked
  3709  0011E0  C08B  F02C         	movff	?_USBTransferOnePacket+1,_USBInHandle+1
  3710                           
  3711                           ; BSR set to: 0
  3712  0011E4  0012               	return	
  3713  0011E6                     __end_of_Test:
  3714                           	opt stack 0
  3715                           tblptru	equ	0xFF8
  3716                           prodh	equ	0xFF4
  3717                           prodl	equ	0xFF3
  3718                           intcon	equ	0xFF2
  3719                           indf0	equ	0xFEF
  3720                           postinc0	equ	0xFEE
  3721                           fsr0h	equ	0xFEA
  3722                           fsr0l	equ	0xFE9
  3723                           wreg	equ	0xFE8
  3724                           indf2	equ	0xFDF
  3725                           postinc2	equ	0xFDE
  3726                           postdec2	equ	0xFDD
  3727                           fsr2h	equ	0xFDA
  3728                           fsr2l	equ	0xFD9
  3729                           status	equ	0xFD8
  3730                           
  3731 ;; *************** function _SpiTransference *****************
  3732 ;; Defined at:
  3733 ;;		line 351 in file "AccessB.c"
  3734 ;; Parameters:    Size  Location     Type
  3735 ;;		None
  3736 ;; Auto vars:     Size  Location     Type
  3737 ;;  i               2   60[BANK0 ] int 
  3738 ;;  counter         2   58[BANK0 ] int 
  3739 ;; Return value:  Size  Location     Type
  3740 ;;		None               void
  3741 ;; Registers used:
  3742 ;;		wreg, fsr2l, fsr2h, status,2, status,0, prodl, prodh, cstack
  3743 ;; Tracked objects:
  3744 ;;		On entry : 0/0
  3745 ;;		On exit  : 0/0
  3746 ;;		Unchanged: 0/0
  3747 ;; Data sizes:     COMRAM   BANK0   BANK1   BANK2   BANK3   BANK4  BANK5h   BANK6   BANK7
  3748 ;;      Params:         0       0       0       0       0       0       0       0       0
  3749 ;;      Locals:         0      10       0       0       0       0       0       0       0
  3750 ;;      Temps:          0       3       0       0       0       0       0       0       0
  3751 ;;      Totals:         0      13       0       0       0       0       0       0       0
  3752 ;;Total ram usage:       13 bytes
  3753 ;; Hardware stack levels used:    1
  3754 ;; Hardware stack levels required when called:   13
  3755 ;; This function calls:
  3756 ;;		_USBTransferOnePacket
  3757 ;; This function is called by:
  3758 ;;		_APP_DeviceCustomHIDTasks
  3759 ;; This function uses a non-reentrant model
  3760 ;;
  3761                           
  3762                           	psect	text8
  3763  00170A                     __ptext8:
  3764                           	opt stack 0
  3765  00170A                     _SpiTransference:
  3766                           	opt stack 16
  3767                           
  3768                           ;AccessB.c: 353: if (!(USBInHandle==0?0:((volatile BDT_ENTRY*)USBInHandle)->STAT.UOWN))
  3769                           
  3770                           ; BSR set to: 0
  3771                           ;incstack = 0
  3772  00170A  502C               	movf	_USBInHandle+1,w,c
  3773  00170C  102B               	iorwf	_USBInHandle,w,c
  3774  00170E  B4D8               	btfsc	status,2,c
  3775  001710  D013               	goto	l7311
  3776  001712  C02B  FFD9         	movff	_USBInHandle,fsr2l
  3777  001716  C02C  FFDA         	movff	_USBInHandle+1,fsr2h
  3778  00171A  AEDF               	btfss	indf2,7,c
  3779  00171C  D004               	goto	u8460
  3780  00171E  0100               	movlb	0	; () banked
  3781  001720  6B91               	clrf	??_SpiTransference& (0+255),b
  3782  001722  2B91               	incf	??_SpiTransference& (0+255),f,b
  3783  001724  D002               	goto	u8468
  3784  001726                     u8460:
  3785  001726  0100               	movlb	0	; () banked
  3786  001728  6B91               	clrf	??_SpiTransference& (0+255),b
  3787  00172A                     u8468:
  3788  00172A  0100               	movlb	0	; () banked
  3789  00172C  5191               	movf	??_SpiTransference& (0+255),w,b
  3790  00172E  0100               	movlb	0	; () banked
  3791  001730  6F94               	movwf	_SpiTransference$3367& (0+255),b
  3792  001732  0100               	movlb	0	; () banked
  3793  001734  6B95               	clrf	(_SpiTransference$3367+1)& (0+255),b
  3794  001736  D006               	goto	l7313
  3795  001738                     l7311:
  3796  001738  0E00               	movlw	0
  3797  00173A  0100               	movlb	0	; () banked
  3798  00173C  6F95               	movwf	(_SpiTransference$3367+1)& (0+255),b
  3799  00173E  0E00               	movlw	0
  3800  001740  0100               	movlb	0	; () banked
  3801  001742  6F94               	movwf	_SpiTransference$3367& (0+255),b
  3802  001744                     l7313:
  3803                           
  3804                           ; BSR set to: 0
  3805  001744  0100               	movlb	0	; () banked
  3806  001746  5195               	movf	(_SpiTransference$3367+1)& (0+255),w,b
  3807  001748  1194               	iorwf	_SpiTransference$3367& (0+255),w,b
  3808  00174A  A4D8               	btfss	status,2,c
  3809  00174C  D25B               	goto	l890
  3810                           
  3811                           ; BSR set to: 0
  3812                           ;AccessB.c: 354: {
  3813                           ;AccessB.c: 356: ToSendDataBuffer[0] = SPI_TRANSFERENCE;
  3814  00174E  0E0C               	movlw	12
  3815  001750  0105               	movlb	5	; () banked
  3816  001752  6F40               	movwf	64,b
  3817                           
  3818                           ; BSR set to: 5
  3819                           ;AccessB.c: 357: ToSendDataBuffer[1] = CONFIRM_CMD;
  3820  001754  0105               	movlb	5	; () banked
  3821  001756  6941               	setf	65,b
  3822                           
  3823                           ; BSR set to: 5
  3824                           ;AccessB.c: 358: USBInHandle = USBTransferOnePacket(1,1,(uint8_t*) & ToSendDataBuffer[0]
      +                          ,64);
  3825  001758  0E01               	movlw	1
  3826  00175A  0100               	movlb	0	; () banked
  3827  00175C  6F8A               	movwf	USBTransferOnePacket@dir& (0+255),b
  3828  00175E  0105               	movlb	5	; () banked
  3829  001760  0E05               	movlw	5
  3830  001762  0100               	movlb	0	; () banked
  3831  001764  6F8C               	movwf	(USBTransferOnePacket@data+1)& (0+255),b
  3832  001766  0105               	movlb	5	; () banked
  3833  001768  0E40               	movlw	64
  3834  00176A  0100               	movlb	0	; () banked
  3835  00176C  6F8B               	movwf	USBTransferOnePacket@data& (0+255),b
  3836  00176E  0E40               	movlw	64
  3837  001770  0100               	movlb	0	; () banked
  3838  001772  6F8D               	movwf	USBTransferOnePacket@len& (0+255),b
  3839  001774  0E01               	movlw	1
  3840  001776  ECA2  F017         	call	_USBTransferOnePacket
  3841  00177A  0100               	movlb	0	; () banked
  3842  00177C  C08A  F02B         	movff	?_USBTransferOnePacket,_USBInHandle
  3843  001780  0100               	movlb	0	; () banked
  3844  001782  C08B  F02C         	movff	?_USBTransferOnePacket+1,_USBInHandle+1
  3845  001786                     l7321:
  3846                           
  3847                           ; BSR set to: 0
  3848  001786  502C               	movf	_USBInHandle+1,w,c
  3849  001788  102B               	iorwf	_USBInHandle,w,c
  3850  00178A  B4D8               	btfsc	status,2,c
  3851  00178C  D013               	goto	l7325
  3852                           
  3853                           ; BSR set to: 0
  3854  00178E  C02B  FFD9         	movff	_USBInHandle,fsr2l
  3855  001792  C02C  FFDA         	movff	_USBInHandle+1,fsr2h
  3856  001796  AEDF               	btfss	indf2,7,c
  3857  001798  D004               	goto	u8490
  3858  00179A  0100               	movlb	0	; () banked
  3859  00179C  6B91               	clrf	??_SpiTransference& (0+255),b
  3860  00179E  2B91               	incf	??_SpiTransference& (0+255),f,b
  3861  0017A0  D002               	goto	u8498
  3862  0017A2                     u8490:
  3863  0017A2  0100               	movlb	0	; () banked
  3864  0017A4  6B91               	clrf	??_SpiTransference& (0+255),b
  3865  0017A6                     u8498:
  3866  0017A6  0100               	movlb	0	; () banked
  3867  0017A8  5191               	movf	??_SpiTransference& (0+255),w,b
  3868  0017AA  0100               	movlb	0	; () banked
  3869  0017AC  6F96               	movwf	_SpiTransference$3368& (0+255),b
  3870  0017AE  0100               	movlb	0	; () banked
  3871  0017B0  6B97               	clrf	(_SpiTransference$3368+1)& (0+255),b
  3872  0017B2  D006               	goto	l7327
  3873  0017B4                     l7325:
  3874                           
  3875                           ; BSR set to: 0
  3876  0017B4  0E00               	movlw	0
  3877  0017B6  0100               	movlb	0	; () banked
  3878  0017B8  6F97               	movwf	(_SpiTransference$3368+1)& (0+255),b
  3879  0017BA  0E00               	movlw	0
  3880  0017BC  0100               	movlb	0	; () banked
  3881  0017BE  6F96               	movwf	_SpiTransference$3368& (0+255),b
  3882  0017C0                     l7327:
  3883                           
  3884                           ; BSR set to: 0
  3885  0017C0  0100               	movlb	0	; () banked
  3886  0017C2  5197               	movf	(_SpiTransference$3368+1)& (0+255),w,b
  3887  0017C4  1196               	iorwf	_SpiTransference$3368& (0+255),w,b
  3888  0017C6  A4D8               	btfss	status,2,c
  3889  0017C8  D7DE               	goto	l7321
  3890                           
  3891                           ; BSR set to: 0
  3892                           ;AccessB.c: 364: if (!(USBInHandle==0?0:((volatile BDT_ENTRY*)USBInHandle)->STAT.UOWN))
  3893                           
  3894                           ; BSR set to: 0
  3895  0017CA  502C               	movf	_USBInHandle+1,w,c
  3896  0017CC  102B               	iorwf	_USBInHandle,w,c
  3897  0017CE  B4D8               	btfsc	status,2,c
  3898  0017D0  D013               	goto	l7333
  3899                           
  3900                           ; BSR set to: 0
  3901  0017D2  C02B  FFD9         	movff	_USBInHandle,fsr2l
  3902  0017D6  C02C  FFDA         	movff	_USBInHandle+1,fsr2h
  3903  0017DA  AEDF               	btfss	indf2,7,c
  3904  0017DC  D004               	goto	u8520
  3905  0017DE  0100               	movlb	0	; () banked
  3906  0017E0  6B91               	clrf	??_SpiTransference& (0+255),b
  3907  0017E2  2B91               	incf	??_SpiTransference& (0+255),f,b
  3908  0017E4  D002               	goto	u8528
  3909  0017E6                     u8520:
  3910  0017E6  0100               	movlb	0	; () banked
  3911  0017E8  6B91               	clrf	??_SpiTransference& (0+255),b
  3912  0017EA                     u8528:
  3913  0017EA  0100               	movlb	0	; () banked
  3914  0017EC  5191               	movf	??_SpiTransference& (0+255),w,b
  3915  0017EE  0100               	movlb	0	; () banked
  3916  0017F0  6F98               	movwf	_SpiTransference$3369& (0+255),b
  3917  0017F2  0100               	movlb	0	; () banked
  3918  0017F4  6B99               	clrf	(_SpiTransference$3369+1)& (0+255),b
  3919  0017F6  D006               	goto	l7335
  3920  0017F8                     l7333:
  3921                           
  3922                           ; BSR set to: 0
  3923  0017F8  0E00               	movlw	0
  3924  0017FA  0100               	movlb	0	; () banked
  3925  0017FC  6F99               	movwf	(_SpiTransference$3369+1)& (0+255),b
  3926  0017FE  0E00               	movlw	0
  3927  001800  0100               	movlb	0	; () banked
  3928  001802  6F98               	movwf	_SpiTransference$3369& (0+255),b
  3929  001804                     l7335:
  3930                           
  3931                           ; BSR set to: 0
  3932  001804  0100               	movlb	0	; () banked
  3933  001806  5199               	movf	(_SpiTransference$3369+1)& (0+255),w,b
  3934  001808  1198               	iorwf	_SpiTransference$3369& (0+255),w,b
  3935  00180A  A4D8               	btfss	status,2,c
  3936  00180C  D1E4               	goto	l7463
  3937                           
  3938                           ; BSR set to: 0
  3939                           ;AccessB.c: 365: {
  3940                           ;AccessB.c: 366: int counter = 0;
  3941  00180E  0E00               	movlw	0
  3942  001810  0100               	movlb	0	; () banked
  3943  001812  6F9B               	movwf	(SpiTransference@counter+1)& (0+255),b
  3944  001814  0E00               	movlw	0
  3945  001816  0100               	movlb	0	; () banked
  3946  001818  6F9A               	movwf	SpiTransference@counter& (0+255),b
  3947                           
  3948                           ; BSR set to: 0
  3949                           ;AccessB.c: 367: if(ReceivedDataBuffer[1] > ReceivedDataBuffer[2])
  3950  00181A  0105               	movlb	5	; () banked
  3951  00181C  5101               	movf	1,w,b
  3952  00181E  0105               	movlb	5	; () banked
  3953  001820  5D02               	subwf	2,w,b
  3954  001822  B0D8               	btfsc	status,0,c
  3955  001824  D005               	goto	l825
  3956                           
  3957                           ; BSR set to: 5
  3958                           ;AccessB.c: 368: {
  3959                           ;AccessB.c: 369: counter = ReceivedDataBuffer[1];
  3960  001826  0105               	movlb	5	; () banked
  3961  001828  0100               	movlb	0	; () banked
  3962  00182A  C501 F09A          	movff	1281,SpiTransference@counter
  3963  00182E  D004               	goto	L4
  3964  001830                     l825:
  3965                           
  3966                           ; BSR set to: 5
  3967                           ;AccessB.c: 371: else
  3968                           ;AccessB.c: 372: {
  3969                           ;AccessB.c: 373: counter = ReceivedDataBuffer[2];
  3970  001830  0105               	movlb	5	; () banked
  3971  001832  0100               	movlb	0	; () banked
  3972  001834  C502 F09A          	movff	1282,SpiTransference@counter
  3973  001838                     L4:
  3974  001838  0100               	movlb	0	; () banked
  3975  00183A  6B9B               	clrf	(SpiTransference@counter+1)& (0+255),b
  3976                           
  3977                           ; BSR set to: 0
  3978                           ;AccessB.c: 374: }
  3979                           ;AccessB.c: 375: for(int i = 0; i < counter; i++)
  3980                           
  3981                           ; BSR set to: 0
  3982  00183C  0E00               	movlw	0
  3983  00183E  0100               	movlb	0	; () banked
  3984  001840  6F9D               	movwf	(SpiTransference@i+1)& (0+255),b
  3985  001842  0E00               	movlw	0
  3986  001844  0100               	movlb	0	; () banked
  3987  001846  6F9C               	movwf	SpiTransference@i& (0+255),b
  3988  001848  D1B6               	goto	l7461
  3989  00184A                     l830:
  3990                           
  3991                           ; BSR set to: 5
  3992                           ;AccessB.c: 380: if(TRISAbits.RA0 == 1)
  3993  00184A  A092               	btfss	3986,0,c	;volatile
  3994  00184C  D00B               	goto	l7349
  3995                           
  3996                           ; BSR set to: 5
  3997                           ;AccessB.c: 381: {
  3998                           ;AccessB.c: 382: TRISAbits.RA0 = 0;
  3999  00184E  9092               	bcf	3986,0,c	;volatile
  4000                           
  4001                           ;AccessB.c: 383: LATAbits.LA0 = 1;
  4002  001850  8089               	bsf	3977,0,c	;volatile
  4003                           
  4004                           ; BSR set to: 5
  4005                           ;AccessB.c: 384: _delay((unsigned long)((1)*(48000000/4000.0)));
  4006  001852  0E10               	movlw	16
  4007  001854  0100               	movlb	0	; () banked
  4008  001856  6F91               	movwf	??_SpiTransference& (0+255),b
  4009  001858  0E94               	movlw	148
  4010  00185A                     u10307:
  4011  00185A  2EE8               	decfsz	wreg,f,c
  4012  00185C  D7FE               	goto	u10307
  4013  00185E  2F91               	decfsz	??_SpiTransference& (0+255),f,b
  4014  001860  D7FC               	goto	u10307
  4015  001862  D000               	nop2	
  4016  001864                     l7349:
  4017                           
  4018                           ;AccessB.c: 385: }
  4019                           ;AccessB.c: 386: LATAbits.LA0 = 0;
  4020  001864  9089               	bcf	3977,0,c	;volatile
  4021                           
  4022                           ;AccessB.c: 387: break;
  4023  001866  D113               	goto	l7445
  4024  001868                     l833:
  4025                           
  4026                           ; BSR set to: 5
  4027                           ;AccessB.c: 389: if(TRISAbits.RA1 == 1)
  4028  001868  A292               	btfss	3986,1,c	;volatile
  4029  00186A  D00B               	goto	l7355
  4030                           
  4031                           ; BSR set to: 5
  4032                           ;AccessB.c: 390: {
  4033                           ;AccessB.c: 391: TRISAbits.RA1 = 0;
  4034  00186C  9292               	bcf	3986,1,c	;volatile
  4035                           
  4036                           ;AccessB.c: 392: LATAbits.LA1 = 1;
  4037  00186E  8289               	bsf	3977,1,c	;volatile
  4038                           
  4039                           ; BSR set to: 5
  4040                           ;AccessB.c: 393: _delay((unsigned long)((1)*(48000000/4000.0)));
  4041  001870  0E10               	movlw	16
  4042  001872  0100               	movlb	0	; () banked
  4043  001874  6F91               	movwf	??_SpiTransference& (0+255),b
  4044  001876  0E94               	movlw	148
  4045  001878                     u10317:
  4046  001878  2EE8               	decfsz	wreg,f,c
  4047  00187A  D7FE               	goto	u10317
  4048  00187C  2F91               	decfsz	??_SpiTransference& (0+255),f,b
  4049  00187E  D7FC               	goto	u10317
  4050  001880  D000               	nop2	
  4051  001882                     l7355:
  4052                           
  4053                           ;AccessB.c: 394: }
  4054                           ;AccessB.c: 395: LATAbits.LA1 = 0;
  4055  001882  9289               	bcf	3977,1,c	;volatile
  4056                           
  4057                           ;AccessB.c: 396: break;
  4058  001884  D104               	goto	l7445
  4059  001886                     l835:
  4060                           
  4061                           ; BSR set to: 5
  4062                           ;AccessB.c: 398: if(TRISAbits.RA2 == 1)
  4063  001886  A492               	btfss	3986,2,c	;volatile
  4064  001888  D00B               	goto	l7361
  4065                           
  4066                           ; BSR set to: 5
  4067                           ;AccessB.c: 399: {
  4068                           ;AccessB.c: 400: TRISAbits.RA2 = 0;
  4069  00188A  9492               	bcf	3986,2,c	;volatile
  4070                           
  4071                           ;AccessB.c: 401: LATAbits.LA2 = 1;
  4072  00188C  8489               	bsf	3977,2,c	;volatile
  4073                           
  4074                           ; BSR set to: 5
  4075                           ;AccessB.c: 402: _delay((unsigned long)((1)*(48000000/4000.0)));
  4076  00188E  0E10               	movlw	16
  4077  001890  0100               	movlb	0	; () banked
  4078  001892  6F91               	movwf	??_SpiTransference& (0+255),b
  4079  001894  0E94               	movlw	148
  4080  001896                     u10327:
  4081  001896  2EE8               	decfsz	wreg,f,c
  4082  001898  D7FE               	goto	u10327
  4083  00189A  2F91               	decfsz	??_SpiTransference& (0+255),f,b
  4084  00189C  D7FC               	goto	u10327
  4085  00189E  D000               	nop2	
  4086  0018A0                     l7361:
  4087                           
  4088                           ;AccessB.c: 403: }
  4089                           ;AccessB.c: 404: LATAbits.LA2 = 0;
  4090  0018A0  9489               	bcf	3977,2,c	;volatile
  4091                           
  4092                           ;AccessB.c: 405: break;
  4093  0018A2  D0F5               	goto	l7445
  4094  0018A4                     l837:
  4095                           
  4096                           ; BSR set to: 5
  4097                           ;AccessB.c: 407: if(TRISAbits.RA3 == 1)
  4098  0018A4  A692               	btfss	3986,3,c	;volatile
  4099  0018A6  D00B               	goto	l7367
  4100                           
  4101                           ; BSR set to: 5
  4102                           ;AccessB.c: 408: {
  4103                           ;AccessB.c: 409: TRISAbits.RA3 = 0;
  4104  0018A8  9692               	bcf	3986,3,c	;volatile
  4105                           
  4106                           ;AccessB.c: 410: LATAbits.LA3 = 1;
  4107  0018AA  8689               	bsf	3977,3,c	;volatile
  4108                           
  4109                           ; BSR set to: 5
  4110                           ;AccessB.c: 411: _delay((unsigned long)((1)*(48000000/4000.0)));
  4111  0018AC  0E10               	movlw	16
  4112  0018AE  0100               	movlb	0	; () banked
  4113  0018B0  6F91               	movwf	??_SpiTransference& (0+255),b
  4114  0018B2  0E94               	movlw	148
  4115  0018B4                     u10337:
  4116  0018B4  2EE8               	decfsz	wreg,f,c
  4117  0018B6  D7FE               	goto	u10337
  4118  0018B8  2F91               	decfsz	??_SpiTransference& (0+255),f,b
  4119  0018BA  D7FC               	goto	u10337
  4120  0018BC  D000               	nop2	
  4121  0018BE                     l7367:
  4122                           
  4123                           ;AccessB.c: 412: }
  4124                           ;AccessB.c: 413: LATAbits.LA3 = 0;
  4125  0018BE  9689               	bcf	3977,3,c	;volatile
  4126                           
  4127                           ;AccessB.c: 414: break;
  4128  0018C0  D0E6               	goto	l7445
  4129  0018C2                     l839:
  4130                           
  4131                           ; BSR set to: 5
  4132                           ;AccessB.c: 416: if(TRISAbits.RA4 == 1)
  4133  0018C2  A892               	btfss	3986,4,c	;volatile
  4134  0018C4  D00B               	goto	l7373
  4135                           
  4136                           ; BSR set to: 5
  4137                           ;AccessB.c: 417: {
  4138                           ;AccessB.c: 418: TRISAbits.RA4 = 0;
  4139  0018C6  9892               	bcf	3986,4,c	;volatile
  4140                           
  4141                           ;AccessB.c: 419: LATAbits.LA4 = 1;
  4142  0018C8  8889               	bsf	3977,4,c	;volatile
  4143                           
  4144                           ; BSR set to: 5
  4145                           ;AccessB.c: 420: _delay((unsigned long)((1)*(48000000/4000.0)));
  4146  0018CA  0E10               	movlw	16
  4147  0018CC  0100               	movlb	0	; () banked
  4148  0018CE  6F91               	movwf	??_SpiTransference& (0+255),b
  4149  0018D0  0E94               	movlw	148
  4150  0018D2                     u10347:
  4151  0018D2  2EE8               	decfsz	wreg,f,c
  4152  0018D4  D7FE               	goto	u10347
  4153  0018D6  2F91               	decfsz	??_SpiTransference& (0+255),f,b
  4154  0018D8  D7FC               	goto	u10347
  4155  0018DA  D000               	nop2	
  4156  0018DC                     l7373:
  4157                           
  4158                           ;AccessB.c: 421: }
  4159                           ;AccessB.c: 422: LATAbits.LA4 = 0;
  4160  0018DC  9889               	bcf	3977,4,c	;volatile
  4161                           
  4162                           ;AccessB.c: 423: break;
  4163  0018DE  D0D7               	goto	l7445
  4164  0018E0                     l841:
  4165                           
  4166                           ; BSR set to: 5
  4167                           ;AccessB.c: 425: if(TRISAbits.RA5 == 1)
  4168  0018E0  AA92               	btfss	3986,5,c	;volatile
  4169  0018E2  D00B               	goto	l7379
  4170                           
  4171                           ; BSR set to: 5
  4172                           ;AccessB.c: 426: {
  4173                           ;AccessB.c: 427: TRISAbits.RA5 = 0;
  4174  0018E4  9A92               	bcf	3986,5,c	;volatile
  4175                           
  4176                           ;AccessB.c: 428: LATAbits.LA5 = 1;
  4177  0018E6  8A89               	bsf	3977,5,c	;volatile
  4178                           
  4179                           ; BSR set to: 5
  4180                           ;AccessB.c: 429: _delay((unsigned long)((1)*(48000000/4000.0)));
  4181  0018E8  0E10               	movlw	16
  4182  0018EA  0100               	movlb	0	; () banked
  4183  0018EC  6F91               	movwf	??_SpiTransference& (0+255),b
  4184  0018EE  0E94               	movlw	148
  4185  0018F0                     u10357:
  4186  0018F0  2EE8               	decfsz	wreg,f,c
  4187  0018F2  D7FE               	goto	u10357
  4188  0018F4  2F91               	decfsz	??_SpiTransference& (0+255),f,b
  4189  0018F6  D7FC               	goto	u10357
  4190  0018F8  D000               	nop2	
  4191  0018FA                     l7379:
  4192                           
  4193                           ;AccessB.c: 430: }
  4194                           ;AccessB.c: 431: LATAbits.LA5 = 0;
  4195  0018FA  9A89               	bcf	3977,5,c	;volatile
  4196                           
  4197                           ;AccessB.c: 432: break;
  4198  0018FC  D0C8               	goto	l7445
  4199  0018FE                     l843:
  4200                           
  4201                           ; BSR set to: 5
  4202                           ;AccessB.c: 434: if(TRISBbits.RB2 == 1)
  4203  0018FE  A493               	btfss	3987,2,c	;volatile
  4204  001900  D00B               	goto	l7385
  4205                           
  4206                           ; BSR set to: 5
  4207                           ;AccessB.c: 435: {
  4208                           ;AccessB.c: 436: TRISBbits.RB2 = 0;
  4209  001902  9493               	bcf	3987,2,c	;volatile
  4210                           
  4211                           ;AccessB.c: 437: LATBbits.LB2 = 1;
  4212  001904  848A               	bsf	3978,2,c	;volatile
  4213                           
  4214                           ; BSR set to: 5
  4215                           ;AccessB.c: 438: _delay((unsigned long)((1)*(48000000/4000.0)));
  4216  001906  0E10               	movlw	16
  4217  001908  0100               	movlb	0	; () banked
  4218  00190A  6F91               	movwf	??_SpiTransference& (0+255),b
  4219  00190C  0E94               	movlw	148
  4220  00190E                     u10367:
  4221  00190E  2EE8               	decfsz	wreg,f,c
  4222  001910  D7FE               	goto	u10367
  4223  001912  2F91               	decfsz	??_SpiTransference& (0+255),f,b
  4224  001914  D7FC               	goto	u10367
  4225  001916  D000               	nop2	
  4226  001918                     l7385:
  4227                           
  4228                           ;AccessB.c: 439: }
  4229                           ;AccessB.c: 440: LATBbits.LB2 = 0;
  4230  001918  948A               	bcf	3978,2,c	;volatile
  4231                           
  4232                           ;AccessB.c: 441: break;
  4233  00191A  D0B9               	goto	l7445
  4234  00191C                     l845:
  4235                           
  4236                           ; BSR set to: 5
  4237                           ;AccessB.c: 443: if(TRISBbits.RB3 == 1)
  4238  00191C  A693               	btfss	3987,3,c	;volatile
  4239  00191E  D00B               	goto	l7391
  4240                           
  4241                           ; BSR set to: 5
  4242                           ;AccessB.c: 444: {
  4243                           ;AccessB.c: 445: TRISBbits.RB3 = 0;
  4244  001920  9693               	bcf	3987,3,c	;volatile
  4245                           
  4246                           ;AccessB.c: 446: LATBbits.LB3 = 1;
  4247  001922  868A               	bsf	3978,3,c	;volatile
  4248                           
  4249                           ; BSR set to: 5
  4250                           ;AccessB.c: 447: _delay((unsigned long)((1)*(48000000/4000.0)));
  4251  001924  0E10               	movlw	16
  4252  001926  0100               	movlb	0	; () banked
  4253  001928  6F91               	movwf	??_SpiTransference& (0+255),b
  4254  00192A  0E94               	movlw	148
  4255  00192C                     u10377:
  4256  00192C  2EE8               	decfsz	wreg,f,c
  4257  00192E  D7FE               	goto	u10377
  4258  001930  2F91               	decfsz	??_SpiTransference& (0+255),f,b
  4259  001932  D7FC               	goto	u10377
  4260  001934  D000               	nop2	
  4261  001936                     l7391:
  4262                           
  4263                           ;AccessB.c: 448: }
  4264                           ;AccessB.c: 449: LATBbits.LB3 = 0;
  4265  001936  968A               	bcf	3978,3,c	;volatile
  4266                           
  4267                           ;AccessB.c: 450: break;
  4268  001938  D0AA               	goto	l7445
  4269  00193A                     l847:
  4270                           
  4271                           ; BSR set to: 5
  4272                           ;AccessB.c: 452: if(TRISBbits.RB4 == 1)
  4273  00193A  A893               	btfss	3987,4,c	;volatile
  4274  00193C  D00B               	goto	l7397
  4275                           
  4276                           ; BSR set to: 5
  4277                           ;AccessB.c: 453: {
  4278                           ;AccessB.c: 454: TRISBbits.RB4 = 0;
  4279  00193E  9893               	bcf	3987,4,c	;volatile
  4280                           
  4281                           ;AccessB.c: 455: LATBbits.LB4 = 1;
  4282  001940  888A               	bsf	3978,4,c	;volatile
  4283                           
  4284                           ; BSR set to: 5
  4285                           ;AccessB.c: 456: _delay((unsigned long)((1)*(48000000/4000.0)));
  4286  001942  0E10               	movlw	16
  4287  001944  0100               	movlb	0	; () banked
  4288  001946  6F91               	movwf	??_SpiTransference& (0+255),b
  4289  001948  0E94               	movlw	148
  4290  00194A                     u10387:
  4291  00194A  2EE8               	decfsz	wreg,f,c
  4292  00194C  D7FE               	goto	u10387
  4293  00194E  2F91               	decfsz	??_SpiTransference& (0+255),f,b
  4294  001950  D7FC               	goto	u10387
  4295  001952  D000               	nop2	
  4296  001954                     l7397:
  4297                           
  4298                           ;AccessB.c: 457: }
  4299                           ;AccessB.c: 458: LATBbits.LB4 = 0;
  4300  001954  988A               	bcf	3978,4,c	;volatile
  4301                           
  4302                           ;AccessB.c: 459: break;
  4303  001956  D09B               	goto	l7445
  4304  001958                     l849:
  4305                           
  4306                           ; BSR set to: 5
  4307                           ;AccessB.c: 461: if(TRISBbits.RB5 == 1)
  4308  001958  AA93               	btfss	3987,5,c	;volatile
  4309  00195A  D00B               	goto	l7403
  4310                           
  4311                           ; BSR set to: 5
  4312                           ;AccessB.c: 462: {
  4313                           ;AccessB.c: 463: TRISBbits.RB5 = 0;
  4314  00195C  9A93               	bcf	3987,5,c	;volatile
  4315                           
  4316                           ;AccessB.c: 464: LATBbits.LB5 = 1;
  4317  00195E  8A8A               	bsf	3978,5,c	;volatile
  4318                           
  4319                           ; BSR set to: 5
  4320                           ;AccessB.c: 465: _delay((unsigned long)((1)*(48000000/4000.0)));
  4321  001960  0E10               	movlw	16
  4322  001962  0100               	movlb	0	; () banked
  4323  001964  6F91               	movwf	??_SpiTransference& (0+255),b
  4324  001966  0E94               	movlw	148
  4325  001968                     u10397:
  4326  001968  2EE8               	decfsz	wreg,f,c
  4327  00196A  D7FE               	goto	u10397
  4328  00196C  2F91               	decfsz	??_SpiTransference& (0+255),f,b
  4329  00196E  D7FC               	goto	u10397
  4330  001970  D000               	nop2	
  4331  001972                     l7403:
  4332                           
  4333                           ;AccessB.c: 466: }
  4334                           ;AccessB.c: 467: LATBbits.LB5 = 0;
  4335  001972  9A8A               	bcf	3978,5,c	;volatile
  4336                           
  4337                           ;AccessB.c: 468: break;
  4338  001974  D08C               	goto	l7445
  4339  001976                     l851:
  4340                           
  4341                           ; BSR set to: 5
  4342                           ;AccessB.c: 470: if(TRISBbits.RB6 == 1)
  4343  001976  AC93               	btfss	3987,6,c	;volatile
  4344  001978  D00B               	goto	l7409
  4345                           
  4346                           ; BSR set to: 5
  4347                           ;AccessB.c: 471: {
  4348                           ;AccessB.c: 472: TRISBbits.RB6 = 0;
  4349  00197A  9C93               	bcf	3987,6,c	;volatile
  4350                           
  4351                           ;AccessB.c: 473: LATBbits.LB6 = 1;
  4352  00197C  8C8A               	bsf	3978,6,c	;volatile
  4353                           
  4354                           ; BSR set to: 5
  4355                           ;AccessB.c: 474: _delay((unsigned long)((1)*(48000000/4000.0)));
  4356  00197E  0E10               	movlw	16
  4357  001980  0100               	movlb	0	; () banked
  4358  001982  6F91               	movwf	??_SpiTransference& (0+255),b
  4359  001984  0E94               	movlw	148
  4360  001986                     u10407:
  4361  001986  2EE8               	decfsz	wreg,f,c
  4362  001988  D7FE               	goto	u10407
  4363  00198A  2F91               	decfsz	??_SpiTransference& (0+255),f,b
  4364  00198C  D7FC               	goto	u10407
  4365  00198E  D000               	nop2	
  4366  001990                     l7409:
  4367                           
  4368                           ;AccessB.c: 475: }
  4369                           ;AccessB.c: 476: LATBbits.LB6 = 0;
  4370  001990  9C8A               	bcf	3978,6,c	;volatile
  4371                           
  4372                           ;AccessB.c: 477: break;
  4373  001992  D07D               	goto	l7445
  4374  001994                     l853:
  4375                           
  4376                           ; BSR set to: 5
  4377                           ;AccessB.c: 479: if(TRISBbits.RB7 == 1)
  4378  001994  AE93               	btfss	3987,7,c	;volatile
  4379  001996  D00B               	goto	l7415
  4380                           
  4381                           ; BSR set to: 5
  4382                           ;AccessB.c: 480: {
  4383                           ;AccessB.c: 481: TRISBbits.RB7 = 0;
  4384  001998  9E93               	bcf	3987,7,c	;volatile
  4385                           
  4386                           ;AccessB.c: 482: LATBbits.LB7 = 1;
  4387  00199A  8E8A               	bsf	3978,7,c	;volatile
  4388                           
  4389                           ; BSR set to: 5
  4390                           ;AccessB.c: 483: _delay((unsigned long)((1)*(48000000/4000.0)));
  4391  00199C  0E10               	movlw	16
  4392  00199E  0100               	movlb	0	; () banked
  4393  0019A0  6F91               	movwf	??_SpiTransference& (0+255),b
  4394  0019A2  0E94               	movlw	148
  4395  0019A4                     u10417:
  4396  0019A4  2EE8               	decfsz	wreg,f,c
  4397  0019A6  D7FE               	goto	u10417
  4398  0019A8  2F91               	decfsz	??_SpiTransference& (0+255),f,b
  4399  0019AA  D7FC               	goto	u10417
  4400  0019AC  D000               	nop2	
  4401  0019AE                     l7415:
  4402                           
  4403                           ;AccessB.c: 484: }
  4404                           ;AccessB.c: 485: LATBbits.LB7 = 0;
  4405  0019AE  9E8A               	bcf	3978,7,c	;volatile
  4406                           
  4407                           ;AccessB.c: 486: break;
  4408  0019B0  D06E               	goto	l7445
  4409  0019B2                     l855:
  4410                           
  4411                           ; BSR set to: 5
  4412                           ;AccessB.c: 488: if(TRISCbits.RC0 == 1)
  4413  0019B2  A094               	btfss	3988,0,c	;volatile
  4414  0019B4  D00B               	goto	l7421
  4415                           
  4416                           ; BSR set to: 5
  4417                           ;AccessB.c: 489: {
  4418                           ;AccessB.c: 490: TRISCbits.RC0 = 0;
  4419  0019B6  9094               	bcf	3988,0,c	;volatile
  4420                           
  4421                           ;AccessB.c: 491: LATCbits.LC0 = 1;
  4422  0019B8  808B               	bsf	3979,0,c	;volatile
  4423                           
  4424                           ; BSR set to: 5
  4425                           ;AccessB.c: 492: _delay((unsigned long)((1)*(48000000/4000.0)));
  4426  0019BA  0E10               	movlw	16
  4427  0019BC  0100               	movlb	0	; () banked
  4428  0019BE  6F91               	movwf	??_SpiTransference& (0+255),b
  4429  0019C0  0E94               	movlw	148
  4430  0019C2                     u10427:
  4431  0019C2  2EE8               	decfsz	wreg,f,c
  4432  0019C4  D7FE               	goto	u10427
  4433  0019C6  2F91               	decfsz	??_SpiTransference& (0+255),f,b
  4434  0019C8  D7FC               	goto	u10427
  4435  0019CA  D000               	nop2	
  4436  0019CC                     l7421:
  4437                           
  4438                           ;AccessB.c: 493: }
  4439                           ;AccessB.c: 494: LATCbits.LC0 = 0;
  4440  0019CC  908B               	bcf	3979,0,c	;volatile
  4441                           
  4442                           ;AccessB.c: 495: break;
  4443  0019CE  D05F               	goto	l7445
  4444  0019D0                     l857:
  4445                           
  4446                           ; BSR set to: 5
  4447                           ;AccessB.c: 497: if(TRISCbits.RC1 == 1)
  4448  0019D0  A294               	btfss	3988,1,c	;volatile
  4449  0019D2  D00B               	goto	l7427
  4450                           
  4451                           ; BSR set to: 5
  4452                           ;AccessB.c: 498: {
  4453                           ;AccessB.c: 499: TRISCbits.RC1 = 0;
  4454  0019D4  9294               	bcf	3988,1,c	;volatile
  4455                           
  4456                           ;AccessB.c: 500: LATCbits.LC1 = 1;
  4457  0019D6  828B               	bsf	3979,1,c	;volatile
  4458                           
  4459                           ; BSR set to: 5
  4460                           ;AccessB.c: 501: _delay((unsigned long)((1)*(48000000/4000.0)));
  4461  0019D8  0E10               	movlw	16
  4462  0019DA  0100               	movlb	0	; () banked
  4463  0019DC  6F91               	movwf	??_SpiTransference& (0+255),b
  4464  0019DE  0E94               	movlw	148
  4465  0019E0                     u10437:
  4466  0019E0  2EE8               	decfsz	wreg,f,c
  4467  0019E2  D7FE               	goto	u10437
  4468  0019E4  2F91               	decfsz	??_SpiTransference& (0+255),f,b
  4469  0019E6  D7FC               	goto	u10437
  4470  0019E8  D000               	nop2	
  4471  0019EA                     l7427:
  4472                           
  4473                           ;AccessB.c: 502: }
  4474                           ;AccessB.c: 503: LATCbits.LC1 = 0;
  4475  0019EA  928B               	bcf	3979,1,c	;volatile
  4476                           
  4477                           ;AccessB.c: 504: break;
  4478  0019EC  D050               	goto	l7445
  4479  0019EE                     l859:
  4480                           
  4481                           ; BSR set to: 5
  4482                           ;AccessB.c: 506: if(TRISCbits.RC2 == 1)
  4483  0019EE  A494               	btfss	3988,2,c	;volatile
  4484  0019F0  D00B               	goto	l7433
  4485                           
  4486                           ; BSR set to: 5
  4487                           ;AccessB.c: 507: {
  4488                           ;AccessB.c: 508: TRISCbits.RC2 = 0;
  4489  0019F2  9494               	bcf	3988,2,c	;volatile
  4490                           
  4491                           ;AccessB.c: 509: LATCbits.LC2 = 1;
  4492  0019F4  848B               	bsf	3979,2,c	;volatile
  4493                           
  4494                           ; BSR set to: 5
  4495                           ;AccessB.c: 510: _delay((unsigned long)((1)*(48000000/4000.0)));
  4496  0019F6  0E10               	movlw	16
  4497  0019F8  0100               	movlb	0	; () banked
  4498  0019FA  6F91               	movwf	??_SpiTransference& (0+255),b
  4499  0019FC  0E94               	movlw	148
  4500  0019FE                     u10447:
  4501  0019FE  2EE8               	decfsz	wreg,f,c
  4502  001A00  D7FE               	goto	u10447
  4503  001A02  2F91               	decfsz	??_SpiTransference& (0+255),f,b
  4504  001A04  D7FC               	goto	u10447
  4505  001A06  D000               	nop2	
  4506  001A08                     l7433:
  4507                           
  4508                           ;AccessB.c: 511: }
  4509                           ;AccessB.c: 512: LATCbits.LC2 = 0;
  4510  001A08  948B               	bcf	3979,2,c	;volatile
  4511                           
  4512                           ;AccessB.c: 513: break;
  4513  001A0A  D041               	goto	l7445
  4514  001A0C                     l861:
  4515                           
  4516                           ; BSR set to: 5
  4517                           ;AccessB.c: 515: if(TRISCbits.RC6 == 1)
  4518  001A0C  AC94               	btfss	3988,6,c	;volatile
  4519  001A0E  D00B               	goto	l7439
  4520                           
  4521                           ; BSR set to: 5
  4522                           ;AccessB.c: 516: {
  4523                           ;AccessB.c: 517: TRISCbits.RC6 = 0;
  4524  001A10  9C94               	bcf	3988,6,c	;volatile
  4525                           
  4526                           ;AccessB.c: 518: LATCbits.LC6 = 1;
  4527  001A12  8C8B               	bsf	3979,6,c	;volatile
  4528                           
  4529                           ; BSR set to: 5
  4530                           ;AccessB.c: 519: _delay((unsigned long)((1)*(48000000/4000.0)));
  4531  001A14  0E10               	movlw	16
  4532  001A16  0100               	movlb	0	; () banked
  4533  001A18  6F91               	movwf	??_SpiTransference& (0+255),b
  4534  001A1A  0E94               	movlw	148
  4535  001A1C                     u10457:
  4536  001A1C  2EE8               	decfsz	wreg,f,c
  4537  001A1E  D7FE               	goto	u10457
  4538  001A20  2F91               	decfsz	??_SpiTransference& (0+255),f,b
  4539  001A22  D7FC               	goto	u10457
  4540  001A24  D000               	nop2	
  4541  001A26                     l7439:
  4542                           
  4543                           ;AccessB.c: 520: }
  4544                           ;AccessB.c: 521: LATCbits.LC6 = 0;
  4545  001A26  9C8B               	bcf	3979,6,c	;volatile
  4546                           
  4547                           ;AccessB.c: 522: break;
  4548  001A28  D032               	goto	l7445
  4549  001A2A                     l7443:
  4550  001A2A  0105               	movlb	5	; () banked
  4551  001A2C  5103               	movf	3,w,b
  4552                           
  4553                           ; Switch size 1, requested type "space"
  4554                           ; Number of cases is 16, Range of values is 0 to 15
  4555                           ; switch strategies available:
  4556                           ; Name         Instructions Cycles
  4557                           ; simple_byte           49    25 (average)
  4558                           ;	Chosen strategy is simple_byte
  4559  001A2E  0A00               	xorlw	0	; case 0
  4560  001A30  B4D8               	btfsc	status,2,c
  4561  001A32  D70B               	goto	l830
  4562  001A34  0A01               	xorlw	1	; case 1
  4563  001A36  B4D8               	btfsc	status,2,c
  4564  001A38  D717               	goto	l833
  4565  001A3A  0A03               	xorlw	3	; case 2
  4566  001A3C  B4D8               	btfsc	status,2,c
  4567  001A3E  D723               	goto	l835
  4568  001A40  0A01               	xorlw	1	; case 3
  4569  001A42  B4D8               	btfsc	status,2,c
  4570  001A44  D72F               	goto	l837
  4571  001A46  0A07               	xorlw	7	; case 4
  4572  001A48  B4D8               	btfsc	status,2,c
  4573  001A4A  D73B               	goto	l839
  4574  001A4C  0A01               	xorlw	1	; case 5
  4575  001A4E  B4D8               	btfsc	status,2,c
  4576  001A50  D747               	goto	l841
  4577  001A52  0A03               	xorlw	3	; case 6
  4578  001A54  B4D8               	btfsc	status,2,c
  4579  001A56  D753               	goto	l843
  4580  001A58  0A01               	xorlw	1	; case 7
  4581  001A5A  B4D8               	btfsc	status,2,c
  4582  001A5C  D75F               	goto	l845
  4583  001A5E  0A0F               	xorlw	15	; case 8
  4584  001A60  B4D8               	btfsc	status,2,c
  4585  001A62  D76B               	goto	l847
  4586  001A64  0A01               	xorlw	1	; case 9
  4587  001A66  B4D8               	btfsc	status,2,c
  4588  001A68  D777               	goto	l849
  4589  001A6A  0A03               	xorlw	3	; case 10
  4590  001A6C  B4D8               	btfsc	status,2,c
  4591  001A6E  D783               	goto	l851
  4592  001A70  0A01               	xorlw	1	; case 11
  4593  001A72  B4D8               	btfsc	status,2,c
  4594  001A74  D78F               	goto	l853
  4595  001A76  0A07               	xorlw	7	; case 12
  4596  001A78  B4D8               	btfsc	status,2,c
  4597  001A7A  D79B               	goto	l855
  4598  001A7C  0A01               	xorlw	1	; case 13
  4599  001A7E  B4D8               	btfsc	status,2,c
  4600  001A80  D7A7               	goto	l857
  4601  001A82  0A03               	xorlw	3	; case 14
  4602  001A84  B4D8               	btfsc	status,2,c
  4603  001A86  D7B3               	goto	l859
  4604  001A88  0A01               	xorlw	1	; case 15
  4605  001A8A  B4D8               	btfsc	status,2,c
  4606  001A8C  D7BF               	goto	l861
  4607  001A8E                     l7445:
  4608                           
  4609                           ;AccessB.c: 525: if(i < ReceivedDataBuffer[2])
  4610  001A8E  0105               	movlb	5	; () banked
  4611  001A90  5102               	movf	2,w,b
  4612  001A92  0100               	movlb	0	; () banked
  4613  001A94  6F91               	movwf	??_SpiTransference& (0+255),b
  4614  001A96  6B92               	clrf	(??_SpiTransference+1)& (0+255),b
  4615  001A98  0100               	movlb	0	; () banked
  4616  001A9A  519D               	movf	(SpiTransference@i+1)& (0+255),w,b
  4617  001A9C  0A80               	xorlw	128
  4618  001A9E  0100               	movlb	0	; () banked
  4619  001AA0  6F93               	movwf	(??_SpiTransference+2)& (0+255),b
  4620  001AA2  0100               	movlb	0	; () banked
  4621  001AA4  5191               	movf	??_SpiTransference& (0+255),w,b
  4622  001AA6  0100               	movlb	0	; () banked
  4623  001AA8  5D9C               	subwf	SpiTransference@i& (0+255),w,b
  4624  001AAA  0100               	movlb	0	; () banked
  4625  001AAC  5192               	movf	(??_SpiTransference+1)& (0+255),w,b
  4626  001AAE  0A80               	xorlw	128
  4627  001AB0  0100               	movlb	0	; () banked
  4628  001AB2  5993               	subwfb	(??_SpiTransference+2)& (0+255),w,b
  4629  001AB4  B0D8               	btfsc	status,0,c
  4630  001AB6  D019               	goto	l7451
  4631                           
  4632                           ; BSR set to: 0
  4633                           ;AccessB.c: 526: {
  4634                           ;AccessB.c: 527: SSPBUF = ReceivedDataBuffer[i + 4];
  4635  001AB8  0E04               	movlw	4
  4636  001ABA  0100               	movlb	0	; () banked
  4637  001ABC  259C               	addwf	SpiTransference@i& (0+255),w,b
  4638  001ABE  0100               	movlb	0	; () banked
  4639  001AC0  6F91               	movwf	??_SpiTransference& (0+255),b
  4640  001AC2  0E00               	movlw	0
  4641  001AC4  0100               	movlb	0	; () banked
  4642  001AC6  219D               	addwfc	(SpiTransference@i+1)& (0+255),w,b
  4643  001AC8  0100               	movlb	0	; () banked
  4644  001ACA  6F92               	movwf	(??_SpiTransference+1)& (0+255),b
  4645  001ACC  0105               	movlb	5	; () banked
  4646  001ACE  0E00               	movlw	0
  4647  001AD0  0100               	movlb	0	; () banked
  4648  001AD2  2591               	addwf	??_SpiTransference& (0+255),w,b
  4649  001AD4  6ED9               	movwf	fsr2l,c
  4650  001AD6  0105               	movlb	5	; () banked
  4651  001AD8  0E05               	movlw	5
  4652  001ADA  0100               	movlb	0	; () banked
  4653  001ADC  2192               	addwfc	(??_SpiTransference+1)& (0+255),w,b
  4654  001ADE  6EDA               	movwf	fsr2h,c
  4655  001AE0  50DF               	movf	indf2,w,c
  4656  001AE2  6EC9               	movwf	4041,c	;volatile
  4657  001AE4                     l864:
  4658  001AE4  A0C7               	btfss	4039,0,c	;volatile
  4659  001AE6  D7FE               	goto	l864
  4660  001AE8  D004               	goto	l7453
  4661  001AEA                     l7451:
  4662                           
  4663                           ; BSR set to: 0
  4664                           ;AccessB.c: 531: else
  4665                           ;AccessB.c: 532: {
  4666                           ;AccessB.c: 533: SSPBUF = 0xA9;
  4667  001AEA  0EA9               	movlw	169
  4668  001AEC  6EC9               	movwf	4041,c	;volatile
  4669  001AEE                     l868:
  4670  001AEE  A0C7               	btfss	4039,0,c	;volatile
  4671  001AF0  D7FE               	goto	l868
  4672  001AF2                     l7453:
  4673                           
  4674                           ;AccessB.c: 535: ToSendDataBuffer[i] = SSPBUF;
  4675  001AF2  0105               	movlb	5	; () banked
  4676  001AF4  0E40               	movlw	64
  4677  001AF6  0100               	movlb	0	; () banked
  4678  001AF8  259C               	addwf	SpiTransference@i& (0+255),w,b
  4679  001AFA  6ED9               	movwf	fsr2l,c
  4680  001AFC  0105               	movlb	5	; () banked
  4681  001AFE  0E05               	movlw	5
  4682  001B00  0100               	movlb	0	; () banked
  4683  001B02  219D               	addwfc	(SpiTransference@i+1)& (0+255),w,b
  4684  001B04  6EDA               	movwf	fsr2h,c
  4685  001B06  CFC9 FFDF          	movff	4041,indf2	;volatile
  4686  001B0A  D020               	goto	l7457
  4687  001B0C                     l872:
  4688                           
  4689                           ; BSR set to: 5
  4690                           ;AccessB.c: 540: LATAbits.LA0 = 1;
  4691  001B0C  8089               	bsf	3977,0,c	;volatile
  4692                           
  4693                           ;AccessB.c: 541: break;
  4694  001B0E  D050               	goto	l7459
  4695  001B10                     l874:
  4696                           
  4697                           ; BSR set to: 5
  4698                           ;AccessB.c: 543: LATAbits.LA1 = 1;
  4699  001B10  8289               	bsf	3977,1,c	;volatile
  4700                           
  4701                           ;AccessB.c: 544: break;
  4702  001B12  D04E               	goto	l7459
  4703  001B14                     l875:
  4704                           
  4705                           ; BSR set to: 5
  4706                           ;AccessB.c: 546: LATAbits.LA2 = 1;
  4707  001B14  8489               	bsf	3977,2,c	;volatile
  4708                           
  4709                           ;AccessB.c: 547: break;
  4710  001B16  D04C               	goto	l7459
  4711  001B18                     l876:
  4712                           
  4713                           ; BSR set to: 5
  4714                           ;AccessB.c: 549: LATAbits.LA3 = 1;
  4715  001B18  8689               	bsf	3977,3,c	;volatile
  4716                           
  4717                           ;AccessB.c: 550: break;
  4718  001B1A  D04A               	goto	l7459
  4719  001B1C                     l877:
  4720                           
  4721                           ; BSR set to: 5
  4722                           ;AccessB.c: 552: LATAbits.LA4 = 1;
  4723  001B1C  8889               	bsf	3977,4,c	;volatile
  4724                           
  4725                           ;AccessB.c: 553: break;
  4726  001B1E  D048               	goto	l7459
  4727  001B20                     l878:
  4728                           
  4729                           ; BSR set to: 5
  4730                           ;AccessB.c: 555: LATAbits.LA5 = 1;
  4731  001B20  8A89               	bsf	3977,5,c	;volatile
  4732                           
  4733                           ;AccessB.c: 556: break;
  4734  001B22  D046               	goto	l7459
  4735  001B24                     l879:
  4736                           
  4737                           ; BSR set to: 5
  4738                           ;AccessB.c: 558: LATBbits.LB2 = 1;
  4739  001B24  848A               	bsf	3978,2,c	;volatile
  4740                           
  4741                           ;AccessB.c: 559: break;
  4742  001B26  D044               	goto	l7459
  4743  001B28                     l880:
  4744                           
  4745                           ; BSR set to: 5
  4746                           ;AccessB.c: 561: LATBbits.LB3 = 1;
  4747  001B28  868A               	bsf	3978,3,c	;volatile
  4748                           
  4749                           ;AccessB.c: 562: break;
  4750  001B2A  D042               	goto	l7459
  4751  001B2C                     l881:
  4752                           
  4753                           ; BSR set to: 5
  4754                           ;AccessB.c: 564: LATBbits.LB4 = 1;
  4755  001B2C  888A               	bsf	3978,4,c	;volatile
  4756                           
  4757                           ;AccessB.c: 565: break;
  4758  001B2E  D040               	goto	l7459
  4759  001B30                     l882:
  4760                           
  4761                           ; BSR set to: 5
  4762                           ;AccessB.c: 567: LATBbits.LB5 = 1;
  4763  001B30  8A8A               	bsf	3978,5,c	;volatile
  4764                           
  4765                           ;AccessB.c: 568: break;
  4766  001B32  D03E               	goto	l7459
  4767  001B34                     l883:
  4768                           
  4769                           ; BSR set to: 5
  4770                           ;AccessB.c: 570: LATBbits.LB6 = 1;
  4771  001B34  8C8A               	bsf	3978,6,c	;volatile
  4772                           
  4773                           ;AccessB.c: 571: break;
  4774  001B36  D03C               	goto	l7459
  4775  001B38                     l884:
  4776                           
  4777                           ; BSR set to: 5
  4778                           ;AccessB.c: 573: LATBbits.LB7 = 1;
  4779  001B38  8E8A               	bsf	3978,7,c	;volatile
  4780                           
  4781                           ;AccessB.c: 574: break;
  4782  001B3A  D03A               	goto	l7459
  4783  001B3C                     l885:
  4784                           
  4785                           ; BSR set to: 5
  4786                           ;AccessB.c: 576: LATCbits.LC0 = 1;
  4787  001B3C  808B               	bsf	3979,0,c	;volatile
  4788                           
  4789                           ;AccessB.c: 577: break;
  4790  001B3E  D038               	goto	l7459
  4791  001B40                     l886:
  4792                           
  4793                           ; BSR set to: 5
  4794                           ;AccessB.c: 579: LATCbits.LC1 = 1;
  4795  001B40  828B               	bsf	3979,1,c	;volatile
  4796                           
  4797                           ;AccessB.c: 580: break;
  4798  001B42  D036               	goto	l7459
  4799  001B44                     l887:
  4800                           
  4801                           ; BSR set to: 5
  4802                           ;AccessB.c: 582: LATCbits.LC2 = 1;
  4803  001B44  848B               	bsf	3979,2,c	;volatile
  4804                           
  4805                           ;AccessB.c: 583: break;
  4806  001B46  D034               	goto	l7459
  4807  001B48                     l888:
  4808                           
  4809                           ; BSR set to: 5
  4810                           ;AccessB.c: 585: LATCbits.LC6 = 1;
  4811  001B48  8C8B               	bsf	3979,6,c	;volatile
  4812                           
  4813                           ;AccessB.c: 586: break;
  4814  001B4A  D032               	goto	l7459
  4815  001B4C                     l7457:
  4816  001B4C  0105               	movlb	5	; () banked
  4817  001B4E  5103               	movf	3,w,b
  4818                           
  4819                           ; Switch size 1, requested type "space"
  4820                           ; Number of cases is 16, Range of values is 0 to 15
  4821                           ; switch strategies available:
  4822                           ; Name         Instructions Cycles
  4823                           ; simple_byte           49    25 (average)
  4824                           ;	Chosen strategy is simple_byte
  4825  001B50  0A00               	xorlw	0	; case 0
  4826  001B52  B4D8               	btfsc	status,2,c
  4827  001B54  D7DB               	goto	l872
  4828  001B56  0A01               	xorlw	1	; case 1
  4829  001B58  B4D8               	btfsc	status,2,c
  4830  001B5A  D7DA               	goto	l874
  4831  001B5C  0A03               	xorlw	3	; case 2
  4832  001B5E  B4D8               	btfsc	status,2,c
  4833  001B60  D7D9               	goto	l875
  4834  001B62  0A01               	xorlw	1	; case 3
  4835  001B64  B4D8               	btfsc	status,2,c
  4836  001B66  D7D8               	goto	l876
  4837  001B68  0A07               	xorlw	7	; case 4
  4838  001B6A  B4D8               	btfsc	status,2,c
  4839  001B6C  D7D7               	goto	l877
  4840  001B6E  0A01               	xorlw	1	; case 5
  4841  001B70  B4D8               	btfsc	status,2,c
  4842  001B72  D7D6               	goto	l878
  4843  001B74  0A03               	xorlw	3	; case 6
  4844  001B76  B4D8               	btfsc	status,2,c
  4845  001B78  D7D5               	goto	l879
  4846  001B7A  0A01               	xorlw	1	; case 7
  4847  001B7C  B4D8               	btfsc	status,2,c
  4848  001B7E  D7D4               	goto	l880
  4849  001B80  0A0F               	xorlw	15	; case 8
  4850  001B82  B4D8               	btfsc	status,2,c
  4851  001B84  D7D3               	goto	l881
  4852  001B86  0A01               	xorlw	1	; case 9
  4853  001B88  B4D8               	btfsc	status,2,c
  4854  001B8A  D7D2               	goto	l882
  4855  001B8C  0A03               	xorlw	3	; case 10
  4856  001B8E  B4D8               	btfsc	status,2,c
  4857  001B90  D7D1               	goto	l883
  4858  001B92  0A01               	xorlw	1	; case 11
  4859  001B94  B4D8               	btfsc	status,2,c
  4860  001B96  D7D0               	goto	l884
  4861  001B98  0A07               	xorlw	7	; case 12
  4862  001B9A  B4D8               	btfsc	status,2,c
  4863  001B9C  D7CF               	goto	l885
  4864  001B9E  0A01               	xorlw	1	; case 13
  4865  001BA0  B4D8               	btfsc	status,2,c
  4866  001BA2  D7CE               	goto	l886
  4867  001BA4  0A03               	xorlw	3	; case 14
  4868  001BA6  B4D8               	btfsc	status,2,c
  4869  001BA8  D7CD               	goto	l887
  4870  001BAA  0A01               	xorlw	1	; case 15
  4871  001BAC  B4D8               	btfsc	status,2,c
  4872  001BAE  D7CC               	goto	l888
  4873  001BB0                     l7459:
  4874                           
  4875                           ; BSR set to: 5
  4876  001BB0  0100               	movlb	0	; () banked
  4877  001BB2  4B9C               	infsnz	SpiTransference@i& (0+255),f,b
  4878  001BB4  2B9D               	incf	(SpiTransference@i+1)& (0+255),f,b
  4879  001BB6                     l7461:
  4880                           
  4881                           ; BSR set to: 0
  4882  001BB6  0100               	movlb	0	; () banked
  4883  001BB8  519D               	movf	(SpiTransference@i+1)& (0+255),w,b
  4884  001BBA  0A80               	xorlw	128
  4885  001BBC  0100               	movlb	0	; () banked
  4886  001BBE  6F91               	movwf	??_SpiTransference& (0+255),b
  4887  001BC0  0100               	movlb	0	; () banked
  4888  001BC2  519A               	movf	SpiTransference@counter& (0+255),w,b
  4889  001BC4  0100               	movlb	0	; () banked
  4890  001BC6  5D9C               	subwf	SpiTransference@i& (0+255),w,b
  4891  001BC8  0100               	movlb	0	; () banked
  4892  001BCA  519B               	movf	(SpiTransference@counter+1)& (0+255),w,b
  4893  001BCC  0A80               	xorlw	128
  4894  001BCE  0100               	movlb	0	; () banked
  4895  001BD0  5991               	subwfb	??_SpiTransference& (0+255),w,b
  4896  001BD2  A0D8               	btfss	status,0,c
  4897  001BD4  D72A               	goto	l7443
  4898  001BD6                     l7463:
  4899                           
  4900                           ; BSR set to: 0
  4901                           ;AccessB.c: 588: }
  4902                           ;AccessB.c: 589: }
  4903                           ;AccessB.c: 590: USBInHandle = USBTransferOnePacket(1,1,(uint8_t*) & ToSendDataBuffer[0]
      +                          ,64);
  4904  001BD6  0E01               	movlw	1
  4905  001BD8  0100               	movlb	0	; () banked
  4906  001BDA  6F8A               	movwf	USBTransferOnePacket@dir& (0+255),b
  4907  001BDC  0105               	movlb	5	; () banked
  4908  001BDE  0E05               	movlw	5
  4909  001BE0  0100               	movlb	0	; () banked
  4910  001BE2  6F8C               	movwf	(USBTransferOnePacket@data+1)& (0+255),b
  4911  001BE4  0105               	movlb	5	; () banked
  4912  001BE6  0E40               	movlw	64
  4913  001BE8  0100               	movlb	0	; () banked
  4914  001BEA  6F8B               	movwf	USBTransferOnePacket@data& (0+255),b
  4915  001BEC  0E40               	movlw	64
  4916  001BEE  0100               	movlb	0	; () banked
  4917  001BF0  6F8D               	movwf	USBTransferOnePacket@len& (0+255),b
  4918  001BF2  0E01               	movlw	1
  4919  001BF4  ECA2  F017         	call	_USBTransferOnePacket
  4920  001BF8  0100               	movlb	0	; () banked
  4921  001BFA  C08A  F02B         	movff	?_USBTransferOnePacket,_USBInHandle
  4922  001BFE  0100               	movlb	0	; () banked
  4923  001C00  C08B  F02C         	movff	?_USBTransferOnePacket+1,_USBInHandle+1
  4924  001C04                     l890:
  4925                           
  4926                           ; BSR set to: 0
  4927  001C04  0012               	return	
  4928  001C06                     __end_of_SpiTransference:
  4929                           	opt stack 0
  4930                           tblptru	equ	0xFF8
  4931                           prodh	equ	0xFF4
  4932                           prodl	equ	0xFF3
  4933                           intcon	equ	0xFF2
  4934                           indf0	equ	0xFEF
  4935                           postinc0	equ	0xFEE
  4936                           fsr0h	equ	0xFEA
  4937                           fsr0l	equ	0xFE9
  4938                           wreg	equ	0xFE8
  4939                           indf2	equ	0xFDF
  4940                           postinc2	equ	0xFDE
  4941                           postdec2	equ	0xFDD
  4942                           fsr2h	equ	0xFDA
  4943                           fsr2l	equ	0xFD9
  4944                           status	equ	0xFD8
  4945                           
  4946 ;; *************** function _SpiCfg *****************
  4947 ;; Defined at:
  4948 ;;		line 327 in file "AccessB.c"
  4949 ;; Parameters:    Size  Location     Type
  4950 ;;		None
  4951 ;; Auto vars:     Size  Location     Type
  4952 ;;		None
  4953 ;; Return value:  Size  Location     Type
  4954 ;;		None               void
  4955 ;; Registers used:
  4956 ;;		wreg, status,2, status,0
  4957 ;; Tracked objects:
  4958 ;;		On entry : 0/0
  4959 ;;		On exit  : 0/0
  4960 ;;		Unchanged: 0/0
  4961 ;; Data sizes:     COMRAM   BANK0   BANK1   BANK2   BANK3   BANK4  BANK5h   BANK6   BANK7
  4962 ;;      Params:         0       0       0       0       0       0       0       0       0
  4963 ;;      Locals:         0       0       0       0       0       0       0       0       0
  4964 ;;      Temps:          0       2       0       0       0       0       0       0       0
  4965 ;;      Totals:         0       2       0       0       0       0       0       0       0
  4966 ;;Total ram usage:        2 bytes
  4967 ;; Hardware stack levels used:    1
  4968 ;; Hardware stack levels required when called:   12
  4969 ;; This function calls:
  4970 ;;		Nothing
  4971 ;; This function is called by:
  4972 ;;		_APP_DeviceCustomHIDTasks
  4973 ;; This function uses a non-reentrant model
  4974 ;;
  4975                           
  4976                           	psect	text9
  4977  003E24                     __ptext9:
  4978                           	opt stack 0
  4979  003E24                     _SpiCfg:
  4980                           	opt stack 17
  4981                           
  4982                           ;AccessB.c: 329: SSPSTAT = ReceivedDataBuffer[1];
  4983                           
  4984                           ; BSR set to: 0
  4985                           ;incstack = 0
  4986  003E24  C501 FFC7          	movff	1281,4039	;volatile
  4987                           
  4988                           ;AccessB.c: 330: SSPCON1 = ReceivedDataBuffer[2];
  4989  003E28  C502 FFC6          	movff	1282,4038	;volatile
  4990                           
  4991                           ;AccessB.c: 332: switch(SSPCON1 & 0b00001100)
  4992  003E2C  D007               	goto	l5119
  4993  003E2E                     l802:
  4994                           
  4995                           ; BSR set to: 0
  4996                           ;AccessB.c: 335: TRISBbits.RB0 = 1;
  4997  003E2E  8093               	bsf	3987,0,c	;volatile
  4998                           
  4999                           ;AccessB.c: 336: TRISBbits.RB1 = 0;
  5000  003E30  9293               	bcf	3987,1,c	;volatile
  5001  003E32  D002               	goto	L5
  5002  003E34                     l804:
  5003                           
  5004                           ; BSR set to: 0
  5005                           ;AccessB.c: 343: TRISBbits.RB0 = 1;
  5006  003E34  8093               	bsf	3987,0,c	;volatile
  5007                           
  5008                           ;AccessB.c: 344: TRISBbits.RB1 = 1;
  5009  003E36  8293               	bsf	3987,1,c	;volatile
  5010  003E38                     L5:
  5011                           
  5012                           ;AccessB.c: 345: TRISCbits.RC7 = 0;
  5013  003E38  9E94               	bcf	3988,7,c	;volatile
  5014                           
  5015                           ;AccessB.c: 347: break;
  5016  003E3A  D012               	goto	l805
  5017  003E3C                     l5119:
  5018  003E3C  50C6               	movf	4038,w,c	;volatile
  5019  003E3E  0B0C               	andlw	12
  5020  003E40  0100               	movlb	0	; () banked
  5021  003E42  6F8A               	movwf	??_SpiCfg& (0+255),b
  5022  003E44  6B8B               	clrf	(??_SpiCfg+1)& (0+255),b
  5023                           
  5024                           ; Switch on 2 bytes has been partitioned into a top level switch of size 1, and 1 sub-sw
      +                          itches
  5025                           ; Switch size 1, requested type "space"
  5026                           ; Number of cases is 1, Range of values is 0 to 0
  5027                           ; switch strategies available:
  5028                           ; Name         Instructions Cycles
  5029                           ; simple_byte            4     3 (average)
  5030                           ;	Chosen strategy is simple_byte
  5031  003E46  0100               	movlb	0	; () banked
  5032  003E48  518B               	movf	(??_SpiCfg+1)& (0+255),w,b
  5033  003E4A  0A00               	xorlw	0	; case 0
  5034  003E4C  A4D8               	btfss	status,2,c
  5035  003E4E  D008               	goto	l805
  5036                           
  5037                           ; BSR set to: 0
  5038                           ; Switch size 1, requested type "space"
  5039                           ; Number of cases is 2, Range of values is 0 to 4
  5040                           ; switch strategies available:
  5041                           ; Name         Instructions Cycles
  5042                           ; simple_byte            7     4 (average)
  5043                           ;	Chosen strategy is simple_byte
  5044  003E50  0100               	movlb	0	; () banked
  5045  003E52  518A               	movf	??_SpiCfg& (0+255),w,b
  5046  003E54  0A00               	xorlw	0	; case 0
  5047  003E56  B4D8               	btfsc	status,2,c
  5048  003E58  D7EA               	goto	l802
  5049  003E5A  0A04               	xorlw	4	; case 4
  5050  003E5C  B4D8               	btfsc	status,2,c
  5051  003E5E  D7EA               	goto	l804
  5052  003E60                     l805:
  5053                           
  5054                           ; BSR set to: 0
  5055  003E60  0012               	return	
  5056  003E62                     __end_of_SpiCfg:
  5057                           	opt stack 0
  5058                           tblptru	equ	0xFF8
  5059                           prodh	equ	0xFF4
  5060                           prodl	equ	0xFF3
  5061                           intcon	equ	0xFF2
  5062                           indf0	equ	0xFEF
  5063                           postinc0	equ	0xFEE
  5064                           fsr0h	equ	0xFEA
  5065                           fsr0l	equ	0xFE9
  5066                           wreg	equ	0xFE8
  5067                           indf2	equ	0xFDF
  5068                           postinc2	equ	0xFDE
  5069                           postdec2	equ	0xFDD
  5070                           fsr2h	equ	0xFDA
  5071                           fsr2l	equ	0xFD9
  5072                           status	equ	0xFD8
  5073                           
  5074 ;; *************** function _SfrReadBitValue *****************
  5075 ;; Defined at:
  5076 ;;		line 948 in file "AccessB.c"
  5077 ;; Parameters:    Size  Location     Type
  5078 ;;		None
  5079 ;; Auto vars:     Size  Location     Type
  5080 ;;		None
  5081 ;; Return value:  Size  Location     Type
  5082 ;;		None               void
  5083 ;; Registers used:
  5084 ;;		wreg, fsr2l, fsr2h, status,2, status,0, prodl, prodh, cstack
  5085 ;; Tracked objects:
  5086 ;;		On entry : 0/0
  5087 ;;		On exit  : 0/0
  5088 ;;		Unchanged: 0/0
  5089 ;; Data sizes:     COMRAM   BANK0   BANK1   BANK2   BANK3   BANK4  BANK5h   BANK6   BANK7
  5090 ;;      Params:         0       0       0       0       0       0       0       0       0
  5091 ;;      Locals:         0       0       0       0       0       0       0       0       0
  5092 ;;      Temps:          0       0       0       0       0       0       0       0       0
  5093 ;;      Totals:         0       0       0       0       0       0       0       0       0
  5094 ;;Total ram usage:        0 bytes
  5095 ;; Hardware stack levels used:    1
  5096 ;; Hardware stack levels required when called:   13
  5097 ;; This function calls:
  5098 ;;		_USBTransferOnePacket
  5099 ;; This function is called by:
  5100 ;;		_APP_DeviceCustomHIDTasks
  5101 ;; This function uses a non-reentrant model
  5102 ;;
  5103                           
  5104                           	psect	text10
  5105  003636                     __ptext10:
  5106                           	opt stack 0
  5107  003636                     _SfrReadBitValue:
  5108                           	opt stack 16
  5109                           
  5110                           ;AccessB.c: 950: FSR0Ltemp = FSR0L;
  5111                           
  5112                           ; BSR set to: 0
  5113                           ;incstack = 0
  5114  003636  0100               	movlb	0	; () banked
  5115  003638  CFE9 F0BB          	movff	fsr0l,_FSR0Ltemp	;volatile
  5116  00363C  0100               	movlb	0	; () banked
  5117  00363E  6BBC               	clrf	(_FSR0Ltemp+1)& (0+255),b
  5118                           
  5119                           ;AccessB.c: 951: FSR0Htemp = FSR0H;
  5120  003640  0100               	movlb	0	; () banked
  5121  003642  CFEA F0B9          	movff	fsr0h,_FSR0Htemp	;volatile
  5122  003646  0100               	movlb	0	; () banked
  5123  003648  6BBA               	clrf	(_FSR0Htemp+1)& (0+255),b
  5124                           
  5125                           ; BSR set to: 0
  5126                           ;AccessB.c: 952: FSR0H = 0x0F;
  5127  00364A  0E0F               	movlw	15
  5128  00364C  6EEA               	movwf	fsr0h,c	;volatile
  5129                           
  5130                           ; BSR set to: 0
  5131                           ;AccessB.c: 953: FSR0L = ReceivedDataBuffer[2];
  5132  00364E  C502 FFE9          	movff	1282,fsr0l	;volatile
  5133                           
  5134                           ;AccessB.c: 954: switch(ReceivedDataBuffer[3])
  5135  003652  D01C               	goto	l7657
  5136  003654                     l1055:
  5137                           
  5138                           ; BSR set to: 5
  5139                           ;AccessB.c: 957: if((INDF0 & 0x01) == 0x01)
  5140  003654  B0EF               	btfsc	indf0,0,c	;volatile
  5141  003656  D006               	goto	L26
  5142                           
  5143                           ; BSR set to: 5
  5144                           
  5145                           ;AccessB.c: 960: }
  5146                           
  5147                           ; BSR set to: 5
  5148                           ;AccessB.c: 958: {
  5149                           ;AccessB.c: 959: ToSendDataBuffer[1] = 1;
  5150  003658  D015               	goto	l7653
  5151  00365A                     l1059:
  5152                           
  5153                           ; BSR set to: 5
  5154                           ;AccessB.c: 968: if((INDF0 & 0x02) == 0x02)
  5155  00365A  B2EF               	btfsc	indf0,1,c	;volatile
  5156  00365C  D003               	goto	L26
  5157                           
  5158                           ; BSR set to: 5
  5159                           
  5160                           ;AccessB.c: 971: }
  5161                           
  5162                           ; BSR set to: 5
  5163                           ;AccessB.c: 969: {
  5164                           ;AccessB.c: 970: ToSendDataBuffer[1] = 1;
  5165  00365E  D012               	goto	l7653
  5166  003660                     l1062:
  5167                           
  5168                           ; BSR set to: 5
  5169                           ;AccessB.c: 979: if((INDF0 & 0x04) == 0x04)
  5170  003660  A4EF               	btfss	indf0,2,c	;volatile
  5171  003662  D010               	goto	l7653
  5172  003664                     L26:
  5173                           
  5174                           ; BSR set to: 5
  5175                           ;AccessB.c: 980: {
  5176                           ;AccessB.c: 981: ToSendDataBuffer[1] = 1;
  5177  003664  0E01               	movlw	1
  5178  003666  D00F               	goto	L20
  5179  003668                     l1065:
  5180                           
  5181                           ; BSR set to: 5
  5182                           ;AccessB.c: 990: if((INDF0 & 0x08) == 0x08)
  5183  003668  A6EF               	btfss	indf0,3,c	;volatile
  5184  00366A  D00C               	goto	l7653
  5185  00366C  D7FB               	goto	L26
  5186  00366E                     l1068:
  5187                           
  5188                           ; BSR set to: 5
  5189                           ;AccessB.c: 1001: if((INDF0 & 0x10) == 0x10)
  5190  00366E  B8EF               	btfsc	indf0,4,c	;volatile
  5191  003670  D7F9               	goto	L26
  5192                           
  5193                           ; BSR set to: 5
  5194                           
  5195                           ;AccessB.c: 1004: }
  5196                           
  5197                           ; BSR set to: 5
  5198                           ;AccessB.c: 1002: {
  5199                           ;AccessB.c: 1003: ToSendDataBuffer[1] = 1;
  5200  003672  D008               	goto	l7653
  5201  003674                     l1071:
  5202                           
  5203                           ; BSR set to: 5
  5204                           ;AccessB.c: 1012: if((INDF0 & 0x20) == 0x20)
  5205  003674  AAEF               	btfss	indf0,5,c	;volatile
  5206  003676  D006               	goto	l7653
  5207  003678  D7F5               	goto	L26
  5208  00367A                     l1074:
  5209                           
  5210                           ; BSR set to: 5
  5211                           ;AccessB.c: 1023: if((INDF0 & 0x40) == 0x40)
  5212  00367A  ACEF               	btfss	indf0,6,c	;volatile
  5213  00367C  D003               	goto	l7653
  5214  00367E  D7F2               	goto	L26
  5215  003680                     l1077:
  5216                           
  5217                           ; BSR set to: 5
  5218                           ;AccessB.c: 1034: if((INDF0 & 0x80) == 0x80)
  5219  003680  BEEF               	btfsc	indf0,7,c	;volatile
  5220  003682  D7F0               	goto	L26
  5221  003684                     l7653:
  5222                           
  5223                           ; BSR set to: 5
  5224                           ;AccessB.c: 1038: else
  5225                           ;AccessB.c: 1039: {
  5226                           ;AccessB.c: 1040: ToSendDataBuffer[1] = 0;
  5227  003684  0E00               	movlw	0
  5228  003686                     L20:
  5229  003686  0105               	movlb	5	; () banked
  5230  003688  6F41               	movwf	65,b
  5231  00368A  D01A               	goto	l1058
  5232  00368C                     l7657:
  5233  00368C  0105               	movlb	5	; () banked
  5234  00368E  5103               	movf	3,w,b
  5235                           
  5236                           ; Switch size 1, requested type "space"
  5237                           ; Number of cases is 8, Range of values is 0 to 7
  5238                           ; switch strategies available:
  5239                           ; Name         Instructions Cycles
  5240                           ; simple_byte           25    13 (average)
  5241                           ;	Chosen strategy is simple_byte
  5242  003690  0A00               	xorlw	0	; case 0
  5243  003692  B4D8               	btfsc	status,2,c
  5244  003694  D7DF               	goto	l1055
  5245  003696  0A01               	xorlw	1	; case 1
  5246  003698  B4D8               	btfsc	status,2,c
  5247  00369A  D7DF               	goto	l1059
  5248  00369C  0A03               	xorlw	3	; case 2
  5249  00369E  B4D8               	btfsc	status,2,c
  5250  0036A0  D7DF               	goto	l1062
  5251  0036A2  0A01               	xorlw	1	; case 3
  5252  0036A4  B4D8               	btfsc	status,2,c
  5253  0036A6  D7E0               	goto	l1065
  5254  0036A8  0A07               	xorlw	7	; case 4
  5255  0036AA  B4D8               	btfsc	status,2,c
  5256  0036AC  D7E0               	goto	l1068
  5257  0036AE  0A01               	xorlw	1	; case 5
  5258  0036B0  B4D8               	btfsc	status,2,c
  5259  0036B2  D7E0               	goto	l1071
  5260  0036B4  0A03               	xorlw	3	; case 6
  5261  0036B6  B4D8               	btfsc	status,2,c
  5262  0036B8  D7E0               	goto	l1074
  5263  0036BA  0A01               	xorlw	1	; case 7
  5264  0036BC  B4D8               	btfsc	status,2,c
  5265  0036BE  D7E0               	goto	l1077
  5266  0036C0                     l1058:
  5267                           
  5268                           ; BSR set to: 5
  5269                           ;AccessB.c: 1044: FSR0L = FSR0Ltemp;
  5270  0036C0  C0BB  FFE9         	movff	_FSR0Ltemp,fsr0l	;volatile
  5271                           
  5272                           ;AccessB.c: 1045: FSR0H = FSR0Htemp;
  5273  0036C4  C0B9  FFEA         	movff	_FSR0Htemp,fsr0h	;volatile
  5274                           
  5275                           ; BSR set to: 5
  5276                           ;AccessB.c: 1046: ToSendDataBuffer[0] = SFR_READ_BIT_VALUE;
  5277  0036C8  0E16               	movlw	22
  5278  0036CA  0105               	movlb	5	; () banked
  5279  0036CC  6F40               	movwf	64,b
  5280                           
  5281                           ; BSR set to: 5
  5282                           ;AccessB.c: 1047: USBInHandle = USBTransferOnePacket(1,1,(uint8_t*) & ToSendDataBuffer[0
      +                          ],64);
  5283  0036CE  0E01               	movlw	1
  5284  0036D0  0100               	movlb	0	; () banked
  5285  0036D2  6F8A               	movwf	USBTransferOnePacket@dir& (0+255),b
  5286  0036D4  0105               	movlb	5	; () banked
  5287  0036D6  0E05               	movlw	5
  5288  0036D8  0100               	movlb	0	; () banked
  5289  0036DA  6F8C               	movwf	(USBTransferOnePacket@data+1)& (0+255),b
  5290  0036DC  0105               	movlb	5	; () banked
  5291  0036DE  0E40               	movlw	64
  5292  0036E0  0100               	movlb	0	; () banked
  5293  0036E2  6F8B               	movwf	USBTransferOnePacket@data& (0+255),b
  5294  0036E4  0E40               	movlw	64
  5295  0036E6  0100               	movlb	0	; () banked
  5296  0036E8  6F8D               	movwf	USBTransferOnePacket@len& (0+255),b
  5297  0036EA  0E01               	movlw	1
  5298  0036EC  ECA2  F017         	call	_USBTransferOnePacket
  5299  0036F0  0100               	movlb	0	; () banked
  5300  0036F2  C08A  F02B         	movff	?_USBTransferOnePacket,_USBInHandle
  5301  0036F6  0100               	movlb	0	; () banked
  5302  0036F8  C08B  F02C         	movff	?_USBTransferOnePacket+1,_USBInHandle+1
  5303                           
  5304                           ; BSR set to: 0
  5305  0036FC  0012               	return	
  5306  0036FE                     __end_of_SfrReadBitValue:
  5307                           	opt stack 0
  5308                           tblptru	equ	0xFF8
  5309                           prodh	equ	0xFF4
  5310                           prodl	equ	0xFF3
  5311                           intcon	equ	0xFF2
  5312                           indf0	equ	0xFEF
  5313                           postinc0	equ	0xFEE
  5314                           fsr0h	equ	0xFEA
  5315                           fsr0l	equ	0xFE9
  5316                           wreg	equ	0xFE8
  5317                           indf2	equ	0xFDF
  5318                           postinc2	equ	0xFDE
  5319                           postdec2	equ	0xFDD
  5320                           fsr2h	equ	0xFDA
  5321                           fsr2l	equ	0xFD9
  5322                           status	equ	0xFD8
  5323                           
  5324 ;; *************** function _SfrChangeBitValue *****************
  5325 ;; Defined at:
  5326 ;;		line 594 in file "AccessB.c"
  5327 ;; Parameters:    Size  Location     Type
  5328 ;;		None
  5329 ;; Auto vars:     Size  Location     Type
  5330 ;;		None
  5331 ;; Return value:  Size  Location     Type
  5332 ;;		None               void
  5333 ;; Registers used:
  5334 ;;		wreg, status,2, status,0
  5335 ;; Tracked objects:
  5336 ;;		On entry : 0/0
  5337 ;;		On exit  : 0/0
  5338 ;;		Unchanged: 0/0
  5339 ;; Data sizes:     COMRAM   BANK0   BANK1   BANK2   BANK3   BANK4  BANK5h   BANK6   BANK7
  5340 ;;      Params:         0       0       0       0       0       0       0       0       0
  5341 ;;      Locals:         0       0       0       0       0       0       0       0       0
  5342 ;;      Temps:          0       0       0       0       0       0       0       0       0
  5343 ;;      Totals:         0       0       0       0       0       0       0       0       0
  5344 ;;Total ram usage:        0 bytes
  5345 ;; Hardware stack levels used:    1
  5346 ;; Hardware stack levels required when called:   12
  5347 ;; This function calls:
  5348 ;;		Nothing
  5349 ;; This function is called by:
  5350 ;;		_APP_DeviceCustomHIDTasks
  5351 ;; This function uses a non-reentrant model
  5352 ;;
  5353                           
  5354                           	psect	text11
  5355  002C44                     __ptext11:
  5356                           	opt stack 0
  5357  002C44                     _SfrChangeBitValue:
  5358                           	opt stack 17
  5359                           
  5360                           ;AccessB.c: 596: FSR0Ltemp = FSR0L;
  5361                           
  5362                           ; BSR set to: 0
  5363                           ;incstack = 0
  5364  002C44  0100               	movlb	0	; () banked
  5365  002C46  CFE9 F0BB          	movff	fsr0l,_FSR0Ltemp	;volatile
  5366  002C4A  0100               	movlb	0	; () banked
  5367  002C4C  6BBC               	clrf	(_FSR0Ltemp+1)& (0+255),b
  5368                           
  5369                           ;AccessB.c: 597: FSR0Htemp = FSR0H;
  5370  002C4E  0100               	movlb	0	; () banked
  5371  002C50  CFEA F0B9          	movff	fsr0h,_FSR0Htemp	;volatile
  5372  002C54  0100               	movlb	0	; () banked
  5373  002C56  6BBA               	clrf	(_FSR0Htemp+1)& (0+255),b
  5374                           
  5375                           ; BSR set to: 0
  5376                           ;AccessB.c: 599: FSR0H = 0x0F;
  5377  002C58  0E0F               	movlw	15
  5378  002C5A  6EEA               	movwf	fsr0h,c	;volatile
  5379                           
  5380                           ; BSR set to: 0
  5381                           ;AccessB.c: 600: FSR0L = ReceivedDataBuffer[2];
  5382  002C5C  C502 FFE9          	movff	1282,fsr0l	;volatile
  5383                           
  5384                           ; BSR set to: 0
  5385                           ;AccessB.c: 602: if(ReceivedDataBuffer[4] == 1)
  5386  002C60  0105               	movlb	5	; () banked
  5387  002C62  0504               	decf	4,w,b
  5388  002C64  B4D8               	btfsc	status,2,c
  5389  002C66  D019               	goto	l5297
  5390  002C68  D032               	goto	l893
  5391  002C6A                     l895:
  5392                           
  5393                           ; BSR set to: 5
  5394  002C6A  010F               	banksel	4079	;# 
  5395  002C6C  80EF               	bsf	indf0,0,c	;# 
  5396                           
  5397                           ;AccessB.c: 609: break;
  5398  002C6E  D02F               	goto	l893
  5399  002C70                     l897:
  5400                           
  5401                           ; BSR set to: 5
  5402  002C70  010F               	banksel	4079	;# 
  5403  002C72  82EF               	bsf	indf0,1,c	;# 
  5404                           
  5405                           ;AccessB.c: 614: break;
  5406  002C74  D02C               	goto	l893
  5407  002C76                     l898:
  5408                           
  5409                           ; BSR set to: 5
  5410  002C76  010F               	banksel	4079	;# 
  5411  002C78  84EF               	bsf	indf0,2,c	;# 
  5412                           
  5413                           ;AccessB.c: 619: break;
  5414  002C7A  D029               	goto	l893
  5415  002C7C                     l899:
  5416                           
  5417                           ; BSR set to: 5
  5418  002C7C  010F               	banksel	4079	;# 
  5419  002C7E  86EF               	bsf	indf0,3,c	;# 
  5420                           
  5421                           ;AccessB.c: 624: break;
  5422  002C80  D026               	goto	l893
  5423  002C82                     l900:
  5424                           
  5425                           ; BSR set to: 5
  5426  002C82  010F               	banksel	4079	;# 
  5427  002C84  88EF               	bsf	indf0,4,c	;# 
  5428                           
  5429                           ;AccessB.c: 629: break;
  5430  002C86  D023               	goto	l893
  5431  002C88                     l901:
  5432                           
  5433                           ; BSR set to: 5
  5434  002C88  010F               	banksel	4079	;# 
  5435  002C8A  8AEF               	bsf	indf0,5,c	;# 
  5436                           
  5437                           ;AccessB.c: 634: break;
  5438  002C8C  D020               	goto	l893
  5439  002C8E                     l902:
  5440                           
  5441                           ; BSR set to: 5
  5442  002C8E  010F               	banksel	4079	;# 
  5443  002C90  8CEF               	bsf	indf0,6,c	;# 
  5444                           
  5445                           ;AccessB.c: 639: break;
  5446  002C92  D01D               	goto	l893
  5447  002C94                     l903:
  5448                           
  5449                           ; BSR set to: 5
  5450  002C94  010F               	banksel	4079	;# 
  5451  002C96  8EEF               	bsf	indf0,7,c	;# 
  5452                           
  5453                           ;AccessB.c: 644: break;
  5454  002C98  D01A               	goto	l893
  5455  002C9A                     l5297:
  5456  002C9A  0105               	movlb	5	; () banked
  5457  002C9C  5103               	movf	3,w,b
  5458                           
  5459                           ; Switch size 1, requested type "space"
  5460                           ; Number of cases is 8, Range of values is 0 to 7
  5461                           ; switch strategies available:
  5462                           ; Name         Instructions Cycles
  5463                           ; simple_byte           25    13 (average)
  5464                           ;	Chosen strategy is simple_byte
  5465  002C9E  0A00               	xorlw	0	; case 0
  5466  002CA0  B4D8               	btfsc	status,2,c
  5467  002CA2  D7E3               	goto	l895
  5468  002CA4  0A01               	xorlw	1	; case 1
  5469  002CA6  B4D8               	btfsc	status,2,c
  5470  002CA8  D7E3               	goto	l897
  5471  002CAA  0A03               	xorlw	3	; case 2
  5472  002CAC  B4D8               	btfsc	status,2,c
  5473  002CAE  D7E3               	goto	l898
  5474  002CB0  0A01               	xorlw	1	; case 3
  5475  002CB2  B4D8               	btfsc	status,2,c
  5476  002CB4  D7E3               	goto	l899
  5477  002CB6  0A07               	xorlw	7	; case 4
  5478  002CB8  B4D8               	btfsc	status,2,c
  5479  002CBA  D7E3               	goto	l900
  5480  002CBC  0A01               	xorlw	1	; case 5
  5481  002CBE  B4D8               	btfsc	status,2,c
  5482  002CC0  D7E3               	goto	l901
  5483  002CC2  0A03               	xorlw	3	; case 6
  5484  002CC4  B4D8               	btfsc	status,2,c
  5485  002CC6  D7E3               	goto	l902
  5486  002CC8  0A01               	xorlw	1	; case 7
  5487  002CCA  B4D8               	btfsc	status,2,c
  5488  002CCC  D7E3               	goto	l903
  5489  002CCE                     l893:
  5490                           
  5491                           ;AccessB.c: 646: }
  5492                           ;AccessB.c: 648: if(ReceivedDataBuffer[4] == 0)
  5493  002CCE  0105               	movlb	5	; () banked
  5494  002CD0  6704               	tstfsz	4,b
  5495  002CD2  D033               	goto	l904
  5496  002CD4  D018               	goto	l5303
  5497  002CD6                     l906:
  5498                           
  5499                           ; BSR set to: 5
  5500  002CD6  010F               	banksel	4079	;# 
  5501  002CD8  90EF               	bcf	indf0,0,c	;# 
  5502                           
  5503                           ;AccessB.c: 655: break;
  5504  002CDA  D02F               	goto	l904
  5505  002CDC                     l908:
  5506                           
  5507                           ; BSR set to: 5
  5508  002CDC  010F               	banksel	4079	;# 
  5509  002CDE  92EF               	bcf	indf0,1,c	;# 
  5510                           
  5511                           ;AccessB.c: 660: break;
  5512  002CE0  D02C               	goto	l904
  5513  002CE2                     l909:
  5514                           
  5515                           ; BSR set to: 5
  5516  002CE2  010F               	banksel	4079	;# 
  5517  002CE4  94EF               	bcf	indf0,2,c	;# 
  5518                           
  5519                           ;AccessB.c: 665: break;
  5520  002CE6  D029               	goto	l904
  5521  002CE8                     l910:
  5522                           
  5523                           ; BSR set to: 5
  5524  002CE8  010F               	banksel	4079	;# 
  5525  002CEA  96EF               	bcf	indf0,3,c	;# 
  5526                           
  5527                           ;AccessB.c: 670: break;
  5528  002CEC  D026               	goto	l904
  5529  002CEE                     l911:
  5530                           
  5531                           ; BSR set to: 5
  5532  002CEE  010F               	banksel	4079	;# 
  5533  002CF0  98EF               	bcf	indf0,4,c	;# 
  5534                           
  5535                           ;AccessB.c: 675: break;
  5536  002CF2  D023               	goto	l904
  5537  002CF4                     l912:
  5538                           
  5539                           ; BSR set to: 5
  5540  002CF4  010F               	banksel	4079	;# 
  5541  002CF6  9AEF               	bcf	indf0,5,c	;# 
  5542                           
  5543                           ;AccessB.c: 680: break;
  5544  002CF8  D020               	goto	l904
  5545  002CFA                     l913:
  5546                           
  5547                           ; BSR set to: 5
  5548  002CFA  010F               	banksel	4079	;# 
  5549  002CFC  9CEF               	bcf	indf0,6,c	;# 
  5550                           
  5551                           ;AccessB.c: 685: break;
  5552  002CFE  D01D               	goto	l904
  5553  002D00                     l914:
  5554                           
  5555                           ; BSR set to: 5
  5556  002D00  010F               	banksel	4079	;# 
  5557  002D02  9EEF               	bcf	indf0,7,c	;# 
  5558                           
  5559                           ;AccessB.c: 690: break;
  5560  002D04  D01A               	goto	l904
  5561  002D06                     l5303:
  5562  002D06  0105               	movlb	5	; () banked
  5563  002D08  5103               	movf	3,w,b
  5564                           
  5565                           ; Switch size 1, requested type "space"
  5566                           ; Number of cases is 8, Range of values is 0 to 7
  5567                           ; switch strategies available:
  5568                           ; Name         Instructions Cycles
  5569                           ; simple_byte           25    13 (average)
  5570                           ;	Chosen strategy is simple_byte
  5571  002D0A  0A00               	xorlw	0	; case 0
  5572  002D0C  B4D8               	btfsc	status,2,c
  5573  002D0E  D7E3               	goto	l906
  5574  002D10  0A01               	xorlw	1	; case 1
  5575  002D12  B4D8               	btfsc	status,2,c
  5576  002D14  D7E3               	goto	l908
  5577  002D16  0A03               	xorlw	3	; case 2
  5578  002D18  B4D8               	btfsc	status,2,c
  5579  002D1A  D7E3               	goto	l909
  5580  002D1C  0A01               	xorlw	1	; case 3
  5581  002D1E  B4D8               	btfsc	status,2,c
  5582  002D20  D7E3               	goto	l910
  5583  002D22  0A07               	xorlw	7	; case 4
  5584  002D24  B4D8               	btfsc	status,2,c
  5585  002D26  D7E3               	goto	l911
  5586  002D28  0A01               	xorlw	1	; case 5
  5587  002D2A  B4D8               	btfsc	status,2,c
  5588  002D2C  D7E3               	goto	l912
  5589  002D2E  0A03               	xorlw	3	; case 6
  5590  002D30  B4D8               	btfsc	status,2,c
  5591  002D32  D7E3               	goto	l913
  5592  002D34  0A01               	xorlw	1	; case 7
  5593  002D36  B4D8               	btfsc	status,2,c
  5594  002D38  D7E3               	goto	l914
  5595  002D3A                     l904:
  5596                           
  5597                           ;AccessB.c: 692: }
  5598                           ;AccessB.c: 693: FSR0L = FSR0Ltemp;
  5599  002D3A  C0BB  FFE9         	movff	_FSR0Ltemp,fsr0l	;volatile
  5600                           
  5601                           ;AccessB.c: 694: FSR0H = FSR0Htemp;
  5602  002D3E  C0B9  FFEA         	movff	_FSR0Htemp,fsr0h	;volatile
  5603  002D42  0012               	return	
  5604  002D44                     __end_of_SfrChangeBitValue:
  5605                           	opt stack 0
  5606                           tblptru	equ	0xFF8
  5607                           prodh	equ	0xFF4
  5608                           prodl	equ	0xFF3
  5609                           intcon	equ	0xFF2
  5610                           indf0	equ	0xFEF
  5611                           postinc0	equ	0xFEE
  5612                           fsr0h	equ	0xFEA
  5613                           fsr0l	equ	0xFE9
  5614                           wreg	equ	0xFE8
  5615                           indf2	equ	0xFDF
  5616                           postinc2	equ	0xFDE
  5617                           postdec2	equ	0xFDD
  5618                           fsr2h	equ	0xFDA
  5619                           fsr2l	equ	0xFD9
  5620                           status	equ	0xFD8
  5621                           
  5622 ;; *************** function _ReadSfr *****************
  5623 ;; Defined at:
  5624 ;;		line 107 in file "AccessB.c"
  5625 ;; Parameters:    Size  Location     Type
  5626 ;;		None
  5627 ;; Auto vars:     Size  Location     Type
  5628 ;;  FSR0Htemp       2   52[BANK0 ] int 
  5629 ;;  FSR0Ltemp       2   50[BANK0 ] int 
  5630 ;; Return value:  Size  Location     Type
  5631 ;;		None               void
  5632 ;; Registers used:
  5633 ;;		wreg, fsr2l, fsr2h, status,2, status,0, prodl, prodh, cstack
  5634 ;; Tracked objects:
  5635 ;;		On entry : 0/0
  5636 ;;		On exit  : 0/0
  5637 ;;		Unchanged: 0/0
  5638 ;; Data sizes:     COMRAM   BANK0   BANK1   BANK2   BANK3   BANK4  BANK5h   BANK6   BANK7
  5639 ;;      Params:         0       0       0       0       0       0       0       0       0
  5640 ;;      Locals:         0       6       0       0       0       0       0       0       0
  5641 ;;      Temps:          0       1       0       0       0       0       0       0       0
  5642 ;;      Totals:         0       7       0       0       0       0       0       0       0
  5643 ;;Total ram usage:        7 bytes
  5644 ;; Hardware stack levels used:    1
  5645 ;; Hardware stack levels required when called:   13
  5646 ;; This function calls:
  5647 ;;		_USBTransferOnePacket
  5648 ;; This function is called by:
  5649 ;;		_APP_DeviceCustomHIDTasks
  5650 ;; This function uses a non-reentrant model
  5651 ;;
  5652                           
  5653                           	psect	text12
  5654  00221E                     __ptext12:
  5655                           	opt stack 0
  5656  00221E                     _ReadSfr:
  5657                           	opt stack 16
  5658                           
  5659                           ;AccessB.c: 109: if (!(USBInHandle==0?0:((volatile BDT_ENTRY*)USBInHandle)->STAT.UOWN))
  5660                           
  5661                           ;incstack = 0
  5662  00221E  502C               	movf	_USBInHandle+1,w,c
  5663  002220  102B               	iorwf	_USBInHandle,w,c
  5664  002222  B4D8               	btfsc	status,2,c
  5665  002224  D013               	goto	l7145
  5666  002226  C02B  FFD9         	movff	_USBInHandle,fsr2l
  5667  00222A  C02C  FFDA         	movff	_USBInHandle+1,fsr2h
  5668  00222E  AEDF               	btfss	indf2,7,c
  5669  002230  D004               	goto	u8060
  5670  002232  0100               	movlb	0	; () banked
  5671  002234  6B91               	clrf	??_ReadSfr& (0+255),b
  5672  002236  2B91               	incf	??_ReadSfr& (0+255),f,b
  5673  002238  D002               	goto	u8068
  5674  00223A                     u8060:
  5675  00223A  0100               	movlb	0	; () banked
  5676  00223C  6B91               	clrf	??_ReadSfr& (0+255),b
  5677  00223E                     u8068:
  5678  00223E  0100               	movlb	0	; () banked
  5679  002240  5191               	movf	??_ReadSfr& (0+255),w,b
  5680  002242  0100               	movlb	0	; () banked
  5681  002244  6F96               	movwf	_ReadSfr$3335& (0+255),b
  5682  002246  0100               	movlb	0	; () banked
  5683  002248  6B97               	clrf	(_ReadSfr$3335+1)& (0+255),b
  5684  00224A  D006               	goto	l7147
  5685  00224C                     l7145:
  5686  00224C  0E00               	movlw	0
  5687  00224E  0100               	movlb	0	; () banked
  5688  002250  6F97               	movwf	(_ReadSfr$3335+1)& (0+255),b
  5689  002252  0E00               	movlw	0
  5690  002254  0100               	movlb	0	; () banked
  5691  002256  6F96               	movwf	_ReadSfr$3335& (0+255),b
  5692  002258                     l7147:
  5693                           
  5694                           ; BSR set to: 0
  5695  002258  0100               	movlb	0	; () banked
  5696  00225A  5197               	movf	(_ReadSfr$3335+1)& (0+255),w,b
  5697  00225C  1196               	iorwf	_ReadSfr$3335& (0+255),w,b
  5698  00225E  A4D8               	btfss	status,2,c
  5699  002260  D092               	goto	l732
  5700                           
  5701                           ; BSR set to: 0
  5702                           ;AccessB.c: 110: {
  5703                           ;AccessB.c: 111: int FSR0Ltemp;
  5704                           ;AccessB.c: 112: int FSR0Htemp;
  5705                           ;AccessB.c: 114: if ((ReceivedDataBuffer[2] == 0x66) || (ReceivedDataBuffer[2] == 0xAF) 
      +                          || (ReceivedDataBuffer[2] == 0xB2) || (ReceivedDataBuffer[2] == 0xBB) || (ReceivedDataBu
      +                          ffer[2] == 0xBE) || (ReceivedDataBuffer[2] == 0xC3) || (ReceivedDataBuffer[2] == 0xCE) |
      +                          | (
  5706  002262  0105               	movlb	5	; () banked
  5707  002264  5102               	movf	2,w,b
  5708  002266  0A66               	xorlw	102
  5709  002268  B4D8               	btfsc	status,2,c
  5710  00226A  D037               	goto	l730
  5711                           
  5712                           ; BSR set to: 5
  5713  00226C  0105               	movlb	5	; () banked
  5714  00226E  5102               	movf	2,w,b
  5715  002270  0AAF               	xorlw	175
  5716  002272  B4D8               	btfsc	status,2,c
  5717  002274  D032               	goto	l730
  5718                           
  5719                           ; BSR set to: 5
  5720  002276  0105               	movlb	5	; () banked
  5721  002278  5102               	movf	2,w,b
  5722  00227A  0AB2               	xorlw	178
  5723  00227C  B4D8               	btfsc	status,2,c
  5724  00227E  D02D               	goto	l730
  5725                           
  5726                           ; BSR set to: 5
  5727  002280  0105               	movlb	5	; () banked
  5728  002282  5102               	movf	2,w,b
  5729  002284  0ABB               	xorlw	187
  5730  002286  B4D8               	btfsc	status,2,c
  5731  002288  D028               	goto	l730
  5732                           
  5733                           ; BSR set to: 5
  5734  00228A  0105               	movlb	5	; () banked
  5735  00228C  5102               	movf	2,w,b
  5736  00228E  0ABE               	xorlw	190
  5737  002290  B4D8               	btfsc	status,2,c
  5738  002292  D023               	goto	l730
  5739                           
  5740                           ; BSR set to: 5
  5741  002294  0105               	movlb	5	; () banked
  5742  002296  5102               	movf	2,w,b
  5743  002298  0AC3               	xorlw	195
  5744  00229A  B4D8               	btfsc	status,2,c
  5745  00229C  D01E               	goto	l730
  5746                           
  5747                           ; BSR set to: 5
  5748  00229E  0105               	movlb	5	; () banked
  5749  0022A0  5102               	movf	2,w,b
  5750  0022A2  0ACE               	xorlw	206
  5751  0022A4  B4D8               	btfsc	status,2,c
  5752  0022A6  D019               	goto	l730
  5753                           
  5754                           ; BSR set to: 5
  5755  0022A8  0105               	movlb	5	; () banked
  5756  0022AA  5102               	movf	2,w,b
  5757  0022AC  0AD6               	xorlw	214
  5758  0022AE  B4D8               	btfsc	status,2,c
  5759  0022B0  D014               	goto	l730
  5760                           
  5761                           ; BSR set to: 5
  5762  0022B2  0105               	movlb	5	; () banked
  5763  0022B4  5102               	movf	2,w,b
  5764  0022B6  0AD9               	xorlw	217
  5765  0022B8  B4D8               	btfsc	status,2,c
  5766  0022BA  D00F               	goto	l730
  5767                           
  5768                           ; BSR set to: 5
  5769  0022BC  0105               	movlb	5	; () banked
  5770  0022BE  5102               	movf	2,w,b
  5771  0022C0  0AE1               	xorlw	225
  5772  0022C2  B4D8               	btfsc	status,2,c
  5773  0022C4  D00A               	goto	l730
  5774                           
  5775                           ; BSR set to: 5
  5776  0022C6  0105               	movlb	5	; () banked
  5777  0022C8  5102               	movf	2,w,b
  5778  0022CA  0AE9               	xorlw	233
  5779  0022CC  B4D8               	btfsc	status,2,c
  5780  0022CE  D005               	goto	l730
  5781                           
  5782                           ; BSR set to: 5
  5783  0022D0  0105               	movlb	5	; () banked
  5784  0022D2  5102               	movf	2,w,b
  5785  0022D4  0AF3               	xorlw	243
  5786  0022D6  A4D8               	btfss	status,2,c
  5787  0022D8  D02B               	goto	l7187
  5788  0022DA                     l730:
  5789                           
  5790                           ; BSR set to: 5
  5791                           ;AccessB.c: 115: FSR0Ltemp = FSR0L;
  5792  0022DA  0100               	movlb	0	; () banked
  5793  0022DC  CFE9 F092          	movff	fsr0l,ReadSfr@FSR0Ltemp	;volatile
  5794  0022E0  0100               	movlb	0	; () banked
  5795  0022E2  6B93               	clrf	(ReadSfr@FSR0Ltemp+1)& (0+255),b
  5796                           
  5797                           ;AccessB.c: 116: FSR0Htemp = FSR0H;
  5798  0022E4  0100               	movlb	0	; () banked
  5799  0022E6  CFEA F094          	movff	fsr0h,ReadSfr@FSR0Htemp	;volatile
  5800  0022EA  0100               	movlb	0	; () banked
  5801  0022EC  6B95               	clrf	(ReadSfr@FSR0Htemp+1)& (0+255),b
  5802                           
  5803                           ; BSR set to: 0
  5804                           ;AccessB.c: 118: FSR0H = 0x0F;
  5805  0022EE  0E0F               	movlw	15
  5806  0022F0  6EEA               	movwf	fsr0h,c	;volatile
  5807                           
  5808                           ; BSR set to: 0
  5809                           ;AccessB.c: 119: FSR0L = ReceivedDataBuffer[2];
  5810  0022F2  C502 FFE9          	movff	1282,fsr0l	;volatile
  5811                           
  5812                           ; BSR set to: 0
  5813                           ;AccessB.c: 121: ToSendDataBuffer[3] = POSTINC0;
  5814  0022F6  CFEE F543          	movff	postinc0,1347	;volatile
  5815                           
  5816                           ; BSR set to: 0
  5817                           ;AccessB.c: 122: ToSendDataBuffer[4] = INDF0;
  5818  0022FA  CFEF F544          	movff	indf0,1348	;volatile
  5819                           
  5820                           ;AccessB.c: 124: ToSendDataBuffer[0] = READ_SFR;
  5821  0022FE  0E01               	movlw	1
  5822  002300  0105               	movlb	5	; () banked
  5823  002302  6F40               	movwf	64,b
  5824                           
  5825                           ; BSR set to: 5
  5826                           ;AccessB.c: 125: ToSendDataBuffer[1] = ReceivedDataBuffer[1];
  5827  002304  C501 F541          	movff	1281,1345
  5828                           
  5829                           ; BSR set to: 5
  5830                           ;AccessB.c: 126: ToSendDataBuffer[2] = ReceivedDataBuffer[2];
  5831  002308  C502 F542          	movff	1282,1346
  5832                           
  5833                           ; BSR set to: 5
  5834                           ;AccessB.c: 128: USBInHandle = USBTransferOnePacket(1,1,(uint8_t*) & ToSendDataBuffer[0]
      +                          ,64);
  5835  00230C  0E01               	movlw	1
  5836  00230E  0100               	movlb	0	; () banked
  5837  002310  6F8A               	movwf	USBTransferOnePacket@dir& (0+255),b
  5838  002312  0105               	movlb	5	; () banked
  5839  002314  0E05               	movlw	5
  5840  002316  0100               	movlb	0	; () banked
  5841  002318  6F8C               	movwf	(USBTransferOnePacket@data+1)& (0+255),b
  5842  00231A  0105               	movlb	5	; () banked
  5843  00231C  0E40               	movlw	64
  5844  00231E  0100               	movlb	0	; () banked
  5845  002320  6F8B               	movwf	USBTransferOnePacket@data& (0+255),b
  5846  002322  0E40               	movlw	64
  5847  002324  0100               	movlb	0	; () banked
  5848  002326  6F8D               	movwf	USBTransferOnePacket@len& (0+255),b
  5849  002328  0E01               	movlw	1
  5850  00232A  ECA2  F017         	call	_USBTransferOnePacket
  5851  00232E  D021               	goto	L27
  5852  002330                     l7187:
  5853                           
  5854                           ;AccessB.c: 130: {
  5855                           ;AccessB.c: 131: FSR0H = 0x0F;
  5856  002330  0E0F               	movlw	15
  5857  002332  6EEA               	movwf	fsr0h,c	;volatile
  5858                           
  5859                           ;AccessB.c: 132: FSR0L = ReceivedDataBuffer[2];
  5860  002334  C502 FFE9          	movff	1282,fsr0l	;volatile
  5861                           
  5862                           ;AccessB.c: 133: ToSendDataBuffer[3] = INDF0;
  5863  002338  CFEF F543          	movff	indf0,1347	;volatile
  5864                           
  5865                           ;AccessB.c: 134: ToSendDataBuffer[4] = 0;
  5866  00233C  0E00               	movlw	0
  5867  00233E  0105               	movlb	5	; () banked
  5868  002340  6F44               	movwf	68,b
  5869                           
  5870                           ;AccessB.c: 136: ToSendDataBuffer[0] = READ_SFR;
  5871  002342  0E01               	movlw	1
  5872  002344  0105               	movlb	5	; () banked
  5873  002346  6F40               	movwf	64,b
  5874                           
  5875                           ; BSR set to: 5
  5876                           ;AccessB.c: 137: ToSendDataBuffer[1] = ReceivedDataBuffer[1];
  5877  002348  C501 F541          	movff	1281,1345
  5878                           
  5879                           ; BSR set to: 5
  5880                           ;AccessB.c: 138: ToSendDataBuffer[2] = ReceivedDataBuffer[2];
  5881  00234C  C502 F542          	movff	1282,1346
  5882                           
  5883                           ; BSR set to: 5
  5884                           ;AccessB.c: 140: USBInHandle = USBTransferOnePacket(1,1,(uint8_t*) & ToSendDataBuffer[0]
      +                          ,64);
  5885  002350  0E01               	movlw	1
  5886  002352  0100               	movlb	0	; () banked
  5887  002354  6F8A               	movwf	USBTransferOnePacket@dir& (0+255),b
  5888  002356  0105               	movlb	5	; () banked
  5889  002358  0E05               	movlw	5
  5890  00235A  0100               	movlb	0	; () banked
  5891  00235C  6F8C               	movwf	(USBTransferOnePacket@data+1)& (0+255),b
  5892  00235E  0105               	movlb	5	; () banked
  5893  002360  0E40               	movlw	64
  5894  002362  0100               	movlb	0	; () banked
  5895  002364  6F8B               	movwf	USBTransferOnePacket@data& (0+255),b
  5896  002366  0E40               	movlw	64
  5897  002368  0100               	movlb	0	; () banked
  5898  00236A  6F8D               	movwf	USBTransferOnePacket@len& (0+255),b
  5899  00236C  0E01               	movlw	1
  5900  00236E  ECA2  F017         	call	_USBTransferOnePacket
  5901  002372                     L27:
  5902  002372  0100               	movlb	0	; () banked
  5903  002374  C08A  F02B         	movff	?_USBTransferOnePacket,_USBInHandle
  5904  002378  0100               	movlb	0	; () banked
  5905  00237A  C08B  F02C         	movff	?_USBTransferOnePacket+1,_USBInHandle+1
  5906                           
  5907                           ; BSR set to: 0
  5908                           ;AccessB.c: 141: }
  5909                           ;AccessB.c: 142: FSR0L = FSR0Ltemp;
  5910                           
  5911                           ; BSR set to: 0
  5912  00237E  C092  FFE9         	movff	ReadSfr@FSR0Ltemp,fsr0l	;volatile
  5913                           
  5914                           ; BSR set to: 0
  5915                           ;AccessB.c: 143: FSR0H = FSR0Htemp;
  5916  002382  C094  FFEA         	movff	ReadSfr@FSR0Htemp,fsr0h	;volatile
  5917  002386                     l732:
  5918                           
  5919                           ; BSR set to: 0
  5920  002386  0012               	return	
  5921  002388                     __end_of_ReadSfr:
  5922                           	opt stack 0
  5923                           tblptru	equ	0xFF8
  5924                           prodh	equ	0xFF4
  5925                           prodl	equ	0xFF3
  5926                           intcon	equ	0xFF2
  5927                           indf0	equ	0xFEF
  5928                           postinc0	equ	0xFEE
  5929                           fsr0h	equ	0xFEA
  5930                           fsr0l	equ	0xFE9
  5931                           wreg	equ	0xFE8
  5932                           indf2	equ	0xFDF
  5933                           postinc2	equ	0xFDE
  5934                           postdec2	equ	0xFDD
  5935                           fsr2h	equ	0xFDA
  5936                           fsr2l	equ	0xFD9
  5937                           status	equ	0xFD8
  5938                           
  5939 ;; *************** function _PwmFpwm *****************
  5940 ;; Defined at:
  5941 ;;		line 927 in file "AccessB.c"
  5942 ;; Parameters:    Size  Location     Type
  5943 ;;		None
  5944 ;; Auto vars:     Size  Location     Type
  5945 ;;		None
  5946 ;; Return value:  Size  Location     Type
  5947 ;;		None               void
  5948 ;; Registers used:
  5949 ;;		wreg, status,2, status,0
  5950 ;; Tracked objects:
  5951 ;;		On entry : 0/0
  5952 ;;		On exit  : 0/0
  5953 ;;		Unchanged: 0/0
  5954 ;; Data sizes:     COMRAM   BANK0   BANK1   BANK2   BANK3   BANK4  BANK5h   BANK6   BANK7
  5955 ;;      Params:         0       0       0       0       0       0       0       0       0
  5956 ;;      Locals:         0       0       0       0       0       0       0       0       0
  5957 ;;      Temps:          0       0       0       0       0       0       0       0       0
  5958 ;;      Totals:         0       0       0       0       0       0       0       0       0
  5959 ;;Total ram usage:        0 bytes
  5960 ;; Hardware stack levels used:    1
  5961 ;; Hardware stack levels required when called:   12
  5962 ;; This function calls:
  5963 ;;		Nothing
  5964 ;; This function is called by:
  5965 ;;		_APP_DeviceCustomHIDTasks
  5966 ;; This function uses a non-reentrant model
  5967 ;;
  5968                           
  5969                           	psect	text13
  5970  004096                     __ptext13:
  5971                           	opt stack 0
  5972  004096                     _PwmFpwm:
  5973                           	opt stack 17
  5974                           
  5975                           ;AccessB.c: 929: PR2 = ReceivedDataBuffer[1];
  5976                           
  5977                           ; BSR set to: 0
  5978                           ;incstack = 0
  5979  004096  C501 FFCB          	movff	1281,4043	;volatile
  5980                           
  5981                           ;AccessB.c: 931: T2CONbits.T2CKPS = ReceivedDataBuffer[2];
  5982  00409A  50CA               	movf	4042,w,c	;volatile
  5983  00409C  0105               	movlb	5	; () banked
  5984  00409E  1902               	xorwf	2,w,b
  5985  0040A0  0BFC               	andlw	-4
  5986  0040A2  0105               	movlb	5	; () banked
  5987  0040A4  1902               	xorwf	2,w,b
  5988  0040A6  6ECA               	movwf	4042,c	;volatile
  5989                           
  5990                           ; BSR set to: 5
  5991  0040A8  0012               	return	
  5992  0040AA                     __end_of_PwmFpwm:
  5993                           	opt stack 0
  5994                           tblptru	equ	0xFF8
  5995                           prodh	equ	0xFF4
  5996                           prodl	equ	0xFF3
  5997                           intcon	equ	0xFF2
  5998                           indf0	equ	0xFEF
  5999                           postinc0	equ	0xFEE
  6000                           fsr0h	equ	0xFEA
  6001                           fsr0l	equ	0xFE9
  6002                           wreg	equ	0xFE8
  6003                           indf2	equ	0xFDF
  6004                           postinc2	equ	0xFDE
  6005                           postdec2	equ	0xFDD
  6006                           fsr2h	equ	0xFDA
  6007                           fsr2l	equ	0xFD9
  6008                           status	equ	0xFD8
  6009                           
  6010 ;; *************** function _PwmDc *****************
  6011 ;; Defined at:
  6012 ;;		line 934 in file "AccessB.c"
  6013 ;; Parameters:    Size  Location     Type
  6014 ;;		None
  6015 ;; Auto vars:     Size  Location     Type
  6016 ;;		None
  6017 ;; Return value:  Size  Location     Type
  6018 ;;		None               void
  6019 ;; Registers used:
  6020 ;;		wreg, status,2, status,0
  6021 ;; Tracked objects:
  6022 ;;		On entry : 0/0
  6023 ;;		On exit  : 0/0
  6024 ;;		Unchanged: 0/0
  6025 ;; Data sizes:     COMRAM   BANK0   BANK1   BANK2   BANK3   BANK4  BANK5h   BANK6   BANK7
  6026 ;;      Params:         0       0       0       0       0       0       0       0       0
  6027 ;;      Locals:         0       0       0       0       0       0       0       0       0
  6028 ;;      Temps:          0       0       0       0       0       0       0       0       0
  6029 ;;      Totals:         0       0       0       0       0       0       0       0       0
  6030 ;;Total ram usage:        0 bytes
  6031 ;; Hardware stack levels used:    1
  6032 ;; Hardware stack levels required when called:   12
  6033 ;; This function calls:
  6034 ;;		Nothing
  6035 ;; This function is called by:
  6036 ;;		_APP_DeviceCustomHIDTasks
  6037 ;; This function uses a non-reentrant model
  6038 ;;
  6039                           
  6040                           	psect	text14
  6041  003FEA                     __ptext14:
  6042                           	opt stack 0
  6043  003FEA                     _PwmDc:
  6044                           	opt stack 17
  6045                           
  6046                           ;AccessB.c: 936: if(ReceivedDataBuffer[1] == 1)
  6047                           
  6048                           ; BSR set to: 5
  6049                           ;incstack = 0
  6050  003FEA  0105               	movlb	5	; () banked
  6051  003FEC  0501               	decf	1,w,b
  6052  003FEE  A4D8               	btfss	status,2,c
  6053  003FF0  D007               	goto	l5485
  6054                           
  6055                           ; BSR set to: 5
  6056                           ;AccessB.c: 937: {
  6057                           ;AccessB.c: 938: CCPR1L = ReceivedDataBuffer[3];
  6058  003FF2  C503 FFBE          	movff	1283,4030	;volatile
  6059                           
  6060                           ; BSR set to: 5
  6061                           ;AccessB.c: 939: CCP1CON = CCP1CON & ReceivedDataBuffer[2];
  6062  003FF6  0105               	movlb	5	; () banked
  6063  003FF8  5102               	movf	2,w,b
  6064  003FFA  14BD               	andwf	4029,w,c	;volatile
  6065  003FFC  6EBD               	movwf	4029,c	;volatile
  6066                           
  6067                           ;AccessB.c: 940: }
  6068  003FFE  D00B               	goto	l1051
  6069  004000                     l5485:
  6070                           
  6071                           ; BSR set to: 5
  6072                           ;AccessB.c: 941: else if (ReceivedDataBuffer[1] == 2)
  6073  004000  0105               	movlb	5	; () banked
  6074  004002  5101               	movf	1,w,b
  6075  004004  0A02               	xorlw	2
  6076  004006  A4D8               	btfss	status,2,c
  6077  004008  D006               	goto	l1051
  6078                           
  6079                           ; BSR set to: 5
  6080                           ;AccessB.c: 942: {
  6081                           ;AccessB.c: 943: CCPR2L = ReceivedDataBuffer[3];
  6082  00400A  C503 FFBB          	movff	1283,4027	;volatile
  6083                           
  6084                           ; BSR set to: 5
  6085                           ;AccessB.c: 944: CCP2CON = CCP2CON & ReceivedDataBuffer[2];
  6086  00400E  0105               	movlb	5	; () banked
  6087  004010  5102               	movf	2,w,b
  6088  004012  14BA               	andwf	4026,w,c	;volatile
  6089  004014  6EBA               	movwf	4026,c	;volatile
  6090  004016                     l1051:
  6091                           
  6092                           ; BSR set to: 5
  6093  004016  0012               	return	
  6094  004018                     __end_of_PwmDc:
  6095                           	opt stack 0
  6096                           tblptru	equ	0xFF8
  6097                           prodh	equ	0xFF4
  6098                           prodl	equ	0xFF3
  6099                           intcon	equ	0xFF2
  6100                           indf0	equ	0xFEF
  6101                           postinc0	equ	0xFEE
  6102                           fsr0h	equ	0xFEA
  6103                           fsr0l	equ	0xFE9
  6104                           wreg	equ	0xFE8
  6105                           indf2	equ	0xFDF
  6106                           postinc2	equ	0xFDE
  6107                           postdec2	equ	0xFDD
  6108                           fsr2h	equ	0xFDA
  6109                           fsr2l	equ	0xFD9
  6110                           status	equ	0xFD8
  6111                           
  6112 ;; *************** function _I2cTransference *****************
  6113 ;; Defined at:
  6114 ;;		line 706 in file "AccessB.c"
  6115 ;; Parameters:    Size  Location     Type
  6116 ;;		None
  6117 ;; Auto vars:     Size  Location     Type
  6118 ;;  i               2   62[BANK0 ] int 
  6119 ;;  i               2   60[BANK0 ] int 
  6120 ;; Return value:  Size  Location     Type
  6121 ;;		None               void
  6122 ;; Registers used:
  6123 ;;		wreg, fsr2l, fsr2h, status,2, status,0, prodl, prodh, cstack
  6124 ;; Tracked objects:
  6125 ;;		On entry : 0/0
  6126 ;;		On exit  : 0/0
  6127 ;;		Unchanged: 0/0
  6128 ;; Data sizes:     COMRAM   BANK0   BANK1   BANK2   BANK3   BANK4  BANK5h   BANK6   BANK7
  6129 ;;      Params:         0       0       0       0       0       0       0       0       0
  6130 ;;      Locals:         0      10       0       0       0       0       0       0       0
  6131 ;;      Temps:          0       5       0       0       0       0       0       0       0
  6132 ;;      Totals:         0      15       0       0       0       0       0       0       0
  6133 ;;Total ram usage:       15 bytes
  6134 ;; Hardware stack levels used:    1
  6135 ;; Hardware stack levels required when called:   13
  6136 ;; This function calls:
  6137 ;;		_USBTransferOnePacket
  6138 ;; This function is called by:
  6139 ;;		_APP_DeviceCustomHIDTasks
  6140 ;; This function uses a non-reentrant model
  6141 ;;
  6142                           
  6143                           	psect	text15
  6144  0011E6                     __ptext15:
  6145                           	opt stack 0
  6146  0011E6                     _I2cTransference:
  6147                           	opt stack 16
  6148                           
  6149                           ;AccessB.c: 717: if (!(USBInHandle==0?0:((volatile BDT_ENTRY*)USBInHandle)->STAT.UOWN))
  6150                           
  6151                           ; BSR set to: 5
  6152                           ;incstack = 0
  6153  0011E6  502C               	movf	_USBInHandle+1,w,c
  6154  0011E8  102B               	iorwf	_USBInHandle,w,c
  6155  0011EA  B4D8               	btfsc	status,2,c
  6156  0011EC  D013               	goto	l7469
  6157  0011EE  C02B  FFD9         	movff	_USBInHandle,fsr2l
  6158  0011F2  C02C  FFDA         	movff	_USBInHandle+1,fsr2h
  6159  0011F6  AEDF               	btfss	indf2,7,c
  6160  0011F8  D004               	goto	u8760
  6161  0011FA  0100               	movlb	0	; () banked
  6162  0011FC  6B91               	clrf	??_I2cTransference& (0+255),b
  6163  0011FE  2B91               	incf	??_I2cTransference& (0+255),f,b
  6164  001200  D002               	goto	u8768
  6165  001202                     u8760:
  6166  001202  0100               	movlb	0	; () banked
  6167  001204  6B91               	clrf	??_I2cTransference& (0+255),b
  6168  001206                     u8768:
  6169  001206  0100               	movlb	0	; () banked
  6170  001208  5191               	movf	??_I2cTransference& (0+255),w,b
  6171  00120A  0100               	movlb	0	; () banked
  6172  00120C  6F96               	movwf	_I2cTransference$3420& (0+255),b
  6173  00120E  0100               	movlb	0	; () banked
  6174  001210  6B97               	clrf	(_I2cTransference$3420+1)& (0+255),b
  6175  001212  D006               	goto	l7471
  6176  001214                     l7469:
  6177  001214  0E00               	movlw	0
  6178  001216  0100               	movlb	0	; () banked
  6179  001218  6F97               	movwf	(_I2cTransference$3420+1)& (0+255),b
  6180  00121A  0E00               	movlw	0
  6181  00121C  0100               	movlb	0	; () banked
  6182  00121E  6F96               	movwf	_I2cTransference$3420& (0+255),b
  6183  001220                     l7471:
  6184                           
  6185                           ; BSR set to: 0
  6186  001220  0100               	movlb	0	; () banked
  6187  001222  5197               	movf	(_I2cTransference$3420+1)& (0+255),w,b
  6188  001224  1196               	iorwf	_I2cTransference$3420& (0+255),w,b
  6189  001226  A4D8               	btfss	status,2,c
  6190  001228  D255               	goto	l7613
  6191                           
  6192                           ; BSR set to: 0
  6193                           ;AccessB.c: 718: {
  6194                           ;AccessB.c: 720: ToSendDataBuffer[0] = I2C_TRANSFERENCE;
  6195  00122A  0E10               	movlw	16
  6196  00122C  0105               	movlb	5	; () banked
  6197  00122E  6F40               	movwf	64,b
  6198                           
  6199                           ; BSR set to: 5
  6200                           ;AccessB.c: 721: ToSendDataBuffer[1] = CONFIRM_CMD;
  6201  001230  0105               	movlb	5	; () banked
  6202  001232  6941               	setf	65,b
  6203                           
  6204                           ; BSR set to: 5
  6205                           ;AccessB.c: 722: USBInHandle = USBTransferOnePacket(1,1,(uint8_t*) & ToSendDataBuffer[0]
      +                          ,64);
  6206  001234  0E01               	movlw	1
  6207  001236  0100               	movlb	0	; () banked
  6208  001238  6F8A               	movwf	USBTransferOnePacket@dir& (0+255),b
  6209  00123A  0105               	movlb	5	; () banked
  6210  00123C  0E05               	movlw	5
  6211  00123E  0100               	movlb	0	; () banked
  6212  001240  6F8C               	movwf	(USBTransferOnePacket@data+1)& (0+255),b
  6213  001242  0105               	movlb	5	; () banked
  6214  001244  0E40               	movlw	64
  6215  001246  0100               	movlb	0	; () banked
  6216  001248  6F8B               	movwf	USBTransferOnePacket@data& (0+255),b
  6217  00124A  0E40               	movlw	64
  6218  00124C  0100               	movlb	0	; () banked
  6219  00124E  6F8D               	movwf	USBTransferOnePacket@len& (0+255),b
  6220  001250  0E01               	movlw	1
  6221  001252  ECA2  F017         	call	_USBTransferOnePacket
  6222  001256  0100               	movlb	0	; () banked
  6223  001258  C08A  F02B         	movff	?_USBTransferOnePacket,_USBInHandle
  6224  00125C  0100               	movlb	0	; () banked
  6225  00125E  C08B  F02C         	movff	?_USBTransferOnePacket+1,_USBInHandle+1
  6226  001262                     l7479:
  6227                           
  6228                           ; BSR set to: 0
  6229  001262  502C               	movf	_USBInHandle+1,w,c
  6230  001264  102B               	iorwf	_USBInHandle,w,c
  6231  001266  B4D8               	btfsc	status,2,c
  6232  001268  D013               	goto	l7483
  6233                           
  6234                           ; BSR set to: 0
  6235  00126A  C02B  FFD9         	movff	_USBInHandle,fsr2l
  6236  00126E  C02C  FFDA         	movff	_USBInHandle+1,fsr2h
  6237  001272  AEDF               	btfss	indf2,7,c
  6238  001274  D004               	goto	u8790
  6239  001276  0100               	movlb	0	; () banked
  6240  001278  6B91               	clrf	??_I2cTransference& (0+255),b
  6241  00127A  2B91               	incf	??_I2cTransference& (0+255),f,b
  6242  00127C  D002               	goto	u8798
  6243  00127E                     u8790:
  6244  00127E  0100               	movlb	0	; () banked
  6245  001280  6B91               	clrf	??_I2cTransference& (0+255),b
  6246  001282                     u8798:
  6247  001282  0100               	movlb	0	; () banked
  6248  001284  5191               	movf	??_I2cTransference& (0+255),w,b
  6249  001286  0100               	movlb	0	; () banked
  6250  001288  6F98               	movwf	_I2cTransference$3421& (0+255),b
  6251  00128A  0100               	movlb	0	; () banked
  6252  00128C  6B99               	clrf	(_I2cTransference$3421+1)& (0+255),b
  6253  00128E  D006               	goto	l7485
  6254  001290                     l7483:
  6255                           
  6256                           ; BSR set to: 0
  6257  001290  0E00               	movlw	0
  6258  001292  0100               	movlb	0	; () banked
  6259  001294  6F99               	movwf	(_I2cTransference$3421+1)& (0+255),b
  6260  001296  0E00               	movlw	0
  6261  001298  0100               	movlb	0	; () banked
  6262  00129A  6F98               	movwf	_I2cTransference$3421& (0+255),b
  6263  00129C                     l7485:
  6264                           
  6265                           ; BSR set to: 0
  6266  00129C  0100               	movlb	0	; () banked
  6267  00129E  5199               	movf	(_I2cTransference$3421+1)& (0+255),w,b
  6268  0012A0  1198               	iorwf	_I2cTransference$3421& (0+255),w,b
  6269  0012A2  A4D8               	btfss	status,2,c
  6270  0012A4  D7DE               	goto	l7479
  6271                           
  6272                           ; BSR set to: 0
  6273                           ;AccessB.c: 728: if (!(USBInHandle==0?0:((volatile BDT_ENTRY*)USBInHandle)->STAT.UOWN))
  6274                           
  6275                           ; BSR set to: 0
  6276  0012A6  502C               	movf	_USBInHandle+1,w,c
  6277  0012A8  102B               	iorwf	_USBInHandle,w,c
  6278  0012AA  B4D8               	btfsc	status,2,c
  6279  0012AC  D013               	goto	l7491
  6280                           
  6281                           ; BSR set to: 0
  6282  0012AE  C02B  FFD9         	movff	_USBInHandle,fsr2l
  6283  0012B2  C02C  FFDA         	movff	_USBInHandle+1,fsr2h
  6284  0012B6  AEDF               	btfss	indf2,7,c
  6285  0012B8  D004               	goto	u8820
  6286  0012BA  0100               	movlb	0	; () banked
  6287  0012BC  6B91               	clrf	??_I2cTransference& (0+255),b
  6288  0012BE  2B91               	incf	??_I2cTransference& (0+255),f,b
  6289  0012C0  D002               	goto	u8828
  6290  0012C2                     u8820:
  6291  0012C2  0100               	movlb	0	; () banked
  6292  0012C4  6B91               	clrf	??_I2cTransference& (0+255),b
  6293  0012C6                     u8828:
  6294  0012C6  0100               	movlb	0	; () banked
  6295  0012C8  5191               	movf	??_I2cTransference& (0+255),w,b
  6296  0012CA  0100               	movlb	0	; () banked
  6297  0012CC  6F9A               	movwf	_I2cTransference$3422& (0+255),b
  6298  0012CE  0100               	movlb	0	; () banked
  6299  0012D0  6B9B               	clrf	(_I2cTransference$3422+1)& (0+255),b
  6300  0012D2  D006               	goto	l7493
  6301  0012D4                     l7491:
  6302                           
  6303                           ; BSR set to: 0
  6304  0012D4  0E00               	movlw	0
  6305  0012D6  0100               	movlb	0	; () banked
  6306  0012D8  6F9B               	movwf	(_I2cTransference$3422+1)& (0+255),b
  6307  0012DA  0E00               	movlw	0
  6308  0012DC  0100               	movlb	0	; () banked
  6309  0012DE  6F9A               	movwf	_I2cTransference$3422& (0+255),b
  6310  0012E0                     l7493:
  6311                           
  6312                           ; BSR set to: 0
  6313  0012E0  0100               	movlb	0	; () banked
  6314  0012E2  519B               	movf	(_I2cTransference$3422+1)& (0+255),w,b
  6315  0012E4  119A               	iorwf	_I2cTransference$3422& (0+255),w,b
  6316  0012E6  A4D8               	btfss	status,2,c
  6317  0012E8  D1F5               	goto	l7613
  6318                           
  6319                           ; BSR set to: 0
  6320                           ;AccessB.c: 729: {
  6321                           ;AccessB.c: 730: PIR1bits.SSPIF = 0;
  6322  0012EA  969E               	bcf	3998,3,c	;volatile
  6323                           
  6324                           ;AccessB.c: 732: SSPCON2bits.SEN = 1;
  6325  0012EC  80C5               	bsf	4037,0,c	;volatile
  6326  0012EE                     l938:
  6327  0012EE  A69E               	btfss	3998,3,c	;volatile
  6328  0012F0  D7FE               	goto	l938
  6329                           
  6330                           ;AccessB.c: 734: PIR1bits.SSPIF = 0;
  6331  0012F2  969E               	bcf	3998,3,c	;volatile
  6332                           
  6333                           ;AccessB.c: 736: if(ReceivedDataBuffer[3] == 7)
  6334  0012F4  0105               	movlb	5	; () banked
  6335  0012F6  5103               	movf	3,w,b
  6336  0012F8  0A07               	xorlw	7
  6337  0012FA  A4D8               	btfss	status,2,c
  6338  0012FC  D020               	goto	l7509
  6339                           
  6340                           ; BSR set to: 5
  6341                           ;AccessB.c: 737: {
  6342                           ;AccessB.c: 738: SSPBUF = ReceivedDataBuffer[2];
  6343  0012FE  C502 FFC9          	movff	1282,4041	;volatile
  6344  001302                     l942:
  6345  001302  A69E               	btfss	3998,3,c	;volatile
  6346  001304  D7FE               	goto	l942
  6347                           
  6348                           ;AccessB.c: 740: PIR1bits.SSPIF = 0;
  6349  001306  969E               	bcf	3998,3,c	;volatile
  6350                           
  6351                           ;AccessB.c: 741: if(!SSPCON2bits.ACKSTAT == 0)
  6352  001308  ACC5               	btfss	4037,6,c	;volatile
  6353  00130A  D05E               	goto	l7529
  6354                           
  6355                           ;AccessB.c: 742: {
  6356                           ;AccessB.c: 743: SSPCON2bits.PEN = 1;
  6357  00130C  84C5               	bsf	4037,2,c	;volatile
  6358  00130E                     l946:
  6359  00130E  A69E               	btfss	3998,3,c	;volatile
  6360  001310  D7FE               	goto	l946
  6361                           
  6362                           ;AccessB.c: 745: PIR1bits.SSPIF = 0;
  6363  001312  969E               	bcf	3998,3,c	;volatile
  6364                           
  6365                           ;AccessB.c: 746: ToSendDataBuffer[0] = I2C_NAK;
  6366  001314  0EFD               	movlw	253
  6367  001316  0105               	movlb	5	; () banked
  6368  001318  6F40               	movwf	64,b
  6369                           
  6370                           ; BSR set to: 5
  6371                           ;AccessB.c: 747: USBInHandle = USBTransferOnePacket(1,1,(uint8_t*) & ToSendDataBuffer[0]
      +                          ,64);
  6372  00131A  0E01               	movlw	1
  6373  00131C  0100               	movlb	0	; () banked
  6374  00131E  6F8A               	movwf	USBTransferOnePacket@dir& (0+255),b
  6375  001320  0105               	movlb	5	; () banked
  6376  001322  0E05               	movlw	5
  6377  001324  0100               	movlb	0	; () banked
  6378  001326  6F8C               	movwf	(USBTransferOnePacket@data+1)& (0+255),b
  6379  001328  0105               	movlb	5	; () banked
  6380  00132A  0E40               	movlw	64
  6381  00132C  0100               	movlb	0	; () banked
  6382  00132E  6F8B               	movwf	USBTransferOnePacket@data& (0+255),b
  6383  001330  0E40               	movlw	64
  6384  001332  0100               	movlb	0	; () banked
  6385  001334  6F8D               	movwf	USBTransferOnePacket@len& (0+255),b
  6386  001336  0E01               	movlw	1
  6387  001338  ECA2  F017         	call	_USBTransferOnePacket
  6388  00133C  D1DF               	goto	L28
  6389  00133E                     l7509:
  6390                           
  6391                           ;AccessB.c: 751: else if(ReceivedDataBuffer[3] == 10)
  6392  00133E  0105               	movlb	5	; () banked
  6393  001340  5103               	movf	3,w,b
  6394  001342  0A0A               	xorlw	10
  6395  001344  A4D8               	btfss	status,2,c
  6396  001346  D040               	goto	l7529
  6397                           
  6398                           ; BSR set to: 5
  6399                           ;AccessB.c: 752: {
  6400                           ;AccessB.c: 753: SSPBUF = ReceivedDataBuffer[1];
  6401  001348  C501 FFC9          	movff	1281,4041	;volatile
  6402  00134C                     l952:
  6403  00134C  A69E               	btfss	3998,3,c	;volatile
  6404  00134E  D7FE               	goto	l952
  6405                           
  6406                           ;AccessB.c: 755: PIR1bits.SSPIF = 0;
  6407  001350  969E               	bcf	3998,3,c	;volatile
  6408                           
  6409                           ;AccessB.c: 756: if(!SSPCON2bits.ACKSTAT == 0)
  6410  001352  ACC5               	btfss	4037,6,c	;volatile
  6411  001354  D019               	goto	l955
  6412                           
  6413                           ;AccessB.c: 757: {
  6414                           ;AccessB.c: 758: SSPCON2bits.PEN = 1;
  6415  001356  84C5               	bsf	4037,2,c	;volatile
  6416  001358                     l956:
  6417  001358  A69E               	btfss	3998,3,c	;volatile
  6418  00135A  D7FE               	goto	l956
  6419                           
  6420                           ;AccessB.c: 760: PIR1bits.SSPIF = 0;
  6421  00135C  969E               	bcf	3998,3,c	;volatile
  6422                           
  6423                           ;AccessB.c: 761: ToSendDataBuffer[0] = I2C_NAK;
  6424  00135E  0EFD               	movlw	253
  6425  001360  0105               	movlb	5	; () banked
  6426  001362  6F40               	movwf	64,b
  6427                           
  6428                           ; BSR set to: 5
  6429                           ;AccessB.c: 762: USBInHandle = USBTransferOnePacket(1,1,(uint8_t*) & ToSendDataBuffer[0]
      +                          ,64);
  6430  001364  0E01               	movlw	1
  6431  001366  0100               	movlb	0	; () banked
  6432  001368  6F8A               	movwf	USBTransferOnePacket@dir& (0+255),b
  6433  00136A  0105               	movlb	5	; () banked
  6434  00136C  0E05               	movlw	5
  6435  00136E  0100               	movlb	0	; () banked
  6436  001370  6F8C               	movwf	(USBTransferOnePacket@data+1)& (0+255),b
  6437  001372  0105               	movlb	5	; () banked
  6438  001374  0E40               	movlw	64
  6439  001376  0100               	movlb	0	; () banked
  6440  001378  6F8B               	movwf	USBTransferOnePacket@data& (0+255),b
  6441  00137A  0E40               	movlw	64
  6442  00137C  0100               	movlb	0	; () banked
  6443  00137E  6F8D               	movwf	USBTransferOnePacket@len& (0+255),b
  6444  001380  0E01               	movlw	1
  6445  001382  ECA2  F017         	call	_USBTransferOnePacket
  6446  001386  D1BA               	goto	L28
  6447  001388                     l955:
  6448                           
  6449                           ;AccessB.c: 764: }
  6450                           ;AccessB.c: 765: SSPBUF = ReceivedDataBuffer[2];
  6451  001388  C502 FFC9          	movff	1282,4041	;volatile
  6452  00138C                     l959:
  6453  00138C  A69E               	btfss	3998,3,c	;volatile
  6454  00138E  D7FE               	goto	l959
  6455                           
  6456                           ;AccessB.c: 767: PIR1bits.SSPIF = 0;
  6457  001390  969E               	bcf	3998,3,c	;volatile
  6458                           
  6459                           ;AccessB.c: 768: if(!SSPCON2bits.ACKSTAT == 0)
  6460  001392  ACC5               	btfss	4037,6,c	;volatile
  6461  001394  D019               	goto	l7529
  6462                           
  6463                           ;AccessB.c: 769: {
  6464                           ;AccessB.c: 770: SSPCON2bits.PEN = 1;
  6465  001396  84C5               	bsf	4037,2,c	;volatile
  6466  001398                     l963:
  6467  001398  A69E               	btfss	3998,3,c	;volatile
  6468  00139A  D7FE               	goto	l963
  6469                           
  6470                           ;AccessB.c: 772: PIR1bits.SSPIF = 0;
  6471  00139C  969E               	bcf	3998,3,c	;volatile
  6472                           
  6473                           ;AccessB.c: 773: ToSendDataBuffer[0] = I2C_NAK;
  6474  00139E  0EFD               	movlw	253
  6475  0013A0  0105               	movlb	5	; () banked
  6476  0013A2  6F40               	movwf	64,b
  6477                           
  6478                           ; BSR set to: 5
  6479                           ;AccessB.c: 774: USBInHandle = USBTransferOnePacket(1,1,(uint8_t*) & ToSendDataBuffer[0]
      +                          ,64);
  6480  0013A4  0E01               	movlw	1
  6481  0013A6  0100               	movlb	0	; () banked
  6482  0013A8  6F8A               	movwf	USBTransferOnePacket@dir& (0+255),b
  6483  0013AA  0105               	movlb	5	; () banked
  6484  0013AC  0E05               	movlw	5
  6485  0013AE  0100               	movlb	0	; () banked
  6486  0013B0  6F8C               	movwf	(USBTransferOnePacket@data+1)& (0+255),b
  6487  0013B2  0105               	movlb	5	; () banked
  6488  0013B4  0E40               	movlw	64
  6489  0013B6  0100               	movlb	0	; () banked
  6490  0013B8  6F8B               	movwf	USBTransferOnePacket@data& (0+255),b
  6491  0013BA  0E40               	movlw	64
  6492  0013BC  0100               	movlb	0	; () banked
  6493  0013BE  6F8D               	movwf	USBTransferOnePacket@len& (0+255),b
  6494  0013C0  0E01               	movlw	1
  6495  0013C2  ECA2  F017         	call	_USBTransferOnePacket
  6496  0013C6  D19A               	goto	L28
  6497  0013C8                     l7529:
  6498                           
  6499                           ;AccessB.c: 776: }
  6500                           ;AccessB.c: 777: }
  6501                           ;AccessB.c: 780: for(int i = 0; i < ReceivedDataBuffer[4]; i++)
  6502  0013C8  0E00               	movlw	0
  6503  0013CA  0100               	movlb	0	; () banked
  6504  0013CC  6F9D               	movwf	(I2cTransference@i+1)& (0+255),b
  6505  0013CE  0E00               	movlw	0
  6506  0013D0  0100               	movlb	0	; () banked
  6507  0013D2  6F9C               	movwf	I2cTransference@i& (0+255),b
  6508  0013D4  D026               	goto	l7541
  6509  0013D6                     l7531:
  6510                           
  6511                           ; BSR set to: 0
  6512                           ;AccessB.c: 781: {
  6513                           ;AccessB.c: 782: SSPBUF = ReceivedDataBuffer[i + 7];
  6514  0013D6  0E07               	movlw	7
  6515  0013D8  0100               	movlb	0	; () banked
  6516  0013DA  259C               	addwf	I2cTransference@i& (0+255),w,b
  6517  0013DC  0100               	movlb	0	; () banked
  6518  0013DE  6F91               	movwf	??_I2cTransference& (0+255),b
  6519  0013E0  0E00               	movlw	0
  6520  0013E2  0100               	movlb	0	; () banked
  6521  0013E4  219D               	addwfc	(I2cTransference@i+1)& (0+255),w,b
  6522  0013E6  0100               	movlb	0	; () banked
  6523  0013E8  6F92               	movwf	(??_I2cTransference+1)& (0+255),b
  6524  0013EA  0105               	movlb	5	; () banked
  6525  0013EC  0E00               	movlw	0
  6526  0013EE  0100               	movlb	0	; () banked
  6527  0013F0  2591               	addwf	??_I2cTransference& (0+255),w,b
  6528  0013F2  6ED9               	movwf	fsr2l,c
  6529  0013F4  0105               	movlb	5	; () banked
  6530  0013F6  0E05               	movlw	5
  6531  0013F8  0100               	movlb	0	; () banked
  6532  0013FA  2192               	addwfc	(??_I2cTransference+1)& (0+255),w,b
  6533  0013FC  6EDA               	movwf	fsr2h,c
  6534  0013FE  50DF               	movf	indf2,w,c
  6535  001400  6EC9               	movwf	4041,c	;volatile
  6536  001402                     l968:
  6537  001402  A69E               	btfss	3998,3,c	;volatile
  6538  001404  D7FE               	goto	l968
  6539                           
  6540                           ;AccessB.c: 784: PIR1bits.SSPIF = 0;
  6541  001406  969E               	bcf	3998,3,c	;volatile
  6542                           
  6543                           ;AccessB.c: 785: if(!SSPCON2bits.ACKSTAT == 0)
  6544  001408  ACC5               	btfss	4037,6,c	;volatile
  6545  00140A  D008               	goto	l7539
  6546                           
  6547                           ;AccessB.c: 786: {
  6548                           ;AccessB.c: 787: SSPCON2bits.PEN = 1;
  6549  00140C  84C5               	bsf	4037,2,c	;volatile
  6550  00140E                     l972:
  6551  00140E  A69E               	btfss	3998,3,c	;volatile
  6552  001410  D7FE               	goto	l972
  6553                           
  6554                           ;AccessB.c: 789: PIR1bits.SSPIF = 0;
  6555  001412  969E               	bcf	3998,3,c	;volatile
  6556                           
  6557                           ;AccessB.c: 790: ToSendDataBuffer[0] = I2C_NAK;
  6558  001414  0EFD               	movlw	253
  6559  001416  0105               	movlb	5	; () banked
  6560  001418  6F40               	movwf	64,b
  6561  00141A  D176               	goto	l949
  6562  00141C                     l7539:
  6563  00141C  0100               	movlb	0	; () banked
  6564  00141E  4B9C               	infsnz	I2cTransference@i& (0+255),f,b
  6565  001420  2B9D               	incf	(I2cTransference@i+1)& (0+255),f,b
  6566  001422                     l7541:
  6567                           
  6568                           ; BSR set to: 0
  6569  001422  0105               	movlb	5	; () banked
  6570  001424  5104               	movf	4,w,b
  6571  001426  0100               	movlb	0	; () banked
  6572  001428  6F91               	movwf	??_I2cTransference& (0+255),b
  6573  00142A  6B92               	clrf	(??_I2cTransference+1)& (0+255),b
  6574  00142C  0100               	movlb	0	; () banked
  6575  00142E  519D               	movf	(I2cTransference@i+1)& (0+255),w,b
  6576  001430  0A80               	xorlw	128
  6577  001432  0100               	movlb	0	; () banked
  6578  001434  6F93               	movwf	(??_I2cTransference+2)& (0+255),b
  6579  001436  5191               	movf	??_I2cTransference& (0+255),w,b
  6580  001438  0100               	movlb	0	; () banked
  6581  00143A  5D9C               	subwf	I2cTransference@i& (0+255),w,b
  6582  00143C  0100               	movlb	0	; () banked
  6583  00143E  5192               	movf	(??_I2cTransference+1)& (0+255),w,b
  6584  001440  0A80               	xorlw	128
  6585  001442  0100               	movlb	0	; () banked
  6586  001444  5993               	subwfb	(??_I2cTransference+2)& (0+255),w,b
  6587  001446  A0D8               	btfss	status,0,c
  6588  001448  D7C6               	goto	l7531
  6589                           
  6590                           ; BSR set to: 0
  6591                           ;AccessB.c: 792: }
  6592                           ;AccessB.c: 793: }
  6593                           ;AccessB.c: 794: if(ToSendDataBuffer[0] == I2C_NAK)
  6594                           
  6595                           ; BSR set to: 0
  6596  00144A  0105               	movlb	5	; () banked
  6597  00144C  5140               	movf	64,w,b
  6598  00144E  0AFD               	xorlw	253
  6599  001450  A4D8               	btfss	status,2,c
  6600  001452  D012               	goto	l7549
  6601                           
  6602                           ; BSR set to: 5
  6603                           ;AccessB.c: 795: {
  6604                           ;AccessB.c: 796: USBInHandle = USBTransferOnePacket(1,1,(uint8_t*) & ToSendDataBuffer[0]
      +                          ,64);
  6605  001454  0E01               	movlw	1
  6606  001456  0100               	movlb	0	; () banked
  6607  001458  6F8A               	movwf	USBTransferOnePacket@dir& (0+255),b
  6608  00145A  0105               	movlb	5	; () banked
  6609  00145C  0E05               	movlw	5
  6610  00145E  0100               	movlb	0	; () banked
  6611  001460  6F8C               	movwf	(USBTransferOnePacket@data+1)& (0+255),b
  6612  001462  0105               	movlb	5	; () banked
  6613  001464  0E40               	movlw	64
  6614  001466  0100               	movlb	0	; () banked
  6615  001468  6F8B               	movwf	USBTransferOnePacket@data& (0+255),b
  6616  00146A  0E40               	movlw	64
  6617  00146C  0100               	movlb	0	; () banked
  6618  00146E  6F8D               	movwf	USBTransferOnePacket@len& (0+255),b
  6619  001470  0E01               	movlw	1
  6620  001472  ECA2  F017         	call	_USBTransferOnePacket
  6621  001476  D142               	goto	L28
  6622  001478                     l7549:
  6623                           
  6624                           ;AccessB.c: 798: }
  6625                           ;AccessB.c: 802: if(ReceivedDataBuffer[6] > 0)
  6626  001478  0105               	movlb	5	; () banked
  6627  00147A  5106               	movf	6,w,b
  6628  00147C  B4D8               	btfsc	status,2,c
  6629  00147E  D08C               	goto	l7597
  6630                           
  6631                           ; BSR set to: 5
  6632                           ;AccessB.c: 803: {
  6633                           ;AccessB.c: 804: SSPCON2bits.RSEN = 1;
  6634  001480  82C5               	bsf	4037,1,c	;volatile
  6635  001482                     l978:
  6636  001482  A69E               	btfss	3998,3,c	;volatile
  6637  001484  D7FE               	goto	l978
  6638                           
  6639                           ;AccessB.c: 806: PIR1bits.SSPIF = 0;
  6640  001486  969E               	bcf	3998,3,c	;volatile
  6641                           
  6642                           ;AccessB.c: 808: if(ReceivedDataBuffer[3] == 7)
  6643  001488  0105               	movlb	5	; () banked
  6644  00148A  5103               	movf	3,w,b
  6645  00148C  0A07               	xorlw	7
  6646  00148E  A4D8               	btfss	status,2,c
  6647  001490  D02F               	goto	l7571
  6648                           
  6649                           ; BSR set to: 5
  6650                           ;AccessB.c: 809: {
  6651                           ;AccessB.c: 810: if(ReceivedDataBuffer[6] == 1)
  6652  001492  0105               	movlb	5	; () banked
  6653  001494  0506               	decf	6,w,b
  6654  001496  A4D8               	btfss	status,2,c
  6655  001498  D004               	goto	l7559
  6656                           
  6657                           ; BSR set to: 5
  6658                           ;AccessB.c: 811: {
  6659                           ;AccessB.c: 812: SSPBUF = ReceivedDataBuffer[2] | 0x01;
  6660  00149A  0105               	movlb	5	; () banked
  6661  00149C  5102               	movf	2,w,b
  6662  00149E  0901               	iorlw	1
  6663  0014A0  D008               	goto	L29
  6664  0014A2                     l7559:
  6665                           
  6666                           ; BSR set to: 5
  6667                           ;AccessB.c: 814: else if(ReceivedDataBuffer[6] == 2)
  6668  0014A2  0105               	movlb	5	; () banked
  6669  0014A4  5106               	movf	6,w,b
  6670  0014A6  0A02               	xorlw	2
  6671  0014A8  A4D8               	btfss	status,2,c
  6672  0014AA  D004               	goto	l985
  6673                           
  6674                           ; BSR set to: 5
  6675                           ;AccessB.c: 815: {
  6676                           ;AccessB.c: 816: SSPBUF = ReceivedDataBuffer[2] & 0xFE;
  6677  0014AC  0105               	movlb	5	; () banked
  6678  0014AE  5102               	movf	2,w,b
  6679  0014B0  0BFE               	andlw	254
  6680  0014B2                     L29:
  6681  0014B2  6EC9               	movwf	4041,c	;volatile
  6682  0014B4                     l985:
  6683  0014B4  A69E               	btfss	3998,3,c	;volatile
  6684  0014B6  D7FE               	goto	l985
  6685                           
  6686                           ;AccessB.c: 819: PIR1bits.SSPIF = 0;
  6687  0014B8  969E               	bcf	3998,3,c	;volatile
  6688                           
  6689                           ;AccessB.c: 820: if(!SSPCON2bits.ACKSTAT == 0)
  6690  0014BA  ACC5               	btfss	4037,6,c	;volatile
  6691  0014BC  D06D               	goto	l7597
  6692                           
  6693                           ;AccessB.c: 821: {
  6694                           ;AccessB.c: 822: SSPCON2bits.PEN = 1;
  6695  0014BE  84C5               	bsf	4037,2,c	;volatile
  6696  0014C0                     l989:
  6697  0014C0  A69E               	btfss	3998,3,c	;volatile
  6698  0014C2  D7FE               	goto	l989
  6699                           
  6700                           ;AccessB.c: 824: PIR1bits.SSPIF = 0;
  6701  0014C4  969E               	bcf	3998,3,c	;volatile
  6702                           
  6703                           ;AccessB.c: 825: ToSendDataBuffer[0] = I2C_NAK;
  6704  0014C6  0EFD               	movlw	253
  6705  0014C8  0105               	movlb	5	; () banked
  6706  0014CA  6F40               	movwf	64,b
  6707                           
  6708                           ; BSR set to: 5
  6709                           ;AccessB.c: 826: USBInHandle = USBTransferOnePacket(1,1,(uint8_t*) & ToSendDataBuffer[0]
      +                          ,64);
  6710  0014CC  0E01               	movlw	1
  6711  0014CE  0100               	movlb	0	; () banked
  6712  0014D0  6F8A               	movwf	USBTransferOnePacket@dir& (0+255),b
  6713  0014D2  0105               	movlb	5	; () banked
  6714  0014D4  0E05               	movlw	5
  6715  0014D6  0100               	movlb	0	; () banked
  6716  0014D8  6F8C               	movwf	(USBTransferOnePacket@data+1)& (0+255),b
  6717  0014DA  0105               	movlb	5	; () banked
  6718  0014DC  0E40               	movlw	64
  6719  0014DE  0100               	movlb	0	; () banked
  6720  0014E0  6F8B               	movwf	USBTransferOnePacket@data& (0+255),b
  6721  0014E2  0E40               	movlw	64
  6722  0014E4  0100               	movlb	0	; () banked
  6723  0014E6  6F8D               	movwf	USBTransferOnePacket@len& (0+255),b
  6724  0014E8  0E01               	movlw	1
  6725  0014EA  ECA2  F017         	call	_USBTransferOnePacket
  6726  0014EE  D106               	goto	L28
  6727  0014F0                     l7571:
  6728                           
  6729                           ;AccessB.c: 830: else if(ReceivedDataBuffer[3] == 10)
  6730  0014F0  0105               	movlb	5	; () banked
  6731  0014F2  5103               	movf	3,w,b
  6732  0014F4  0A0A               	xorlw	10
  6733  0014F6  A4D8               	btfss	status,2,c
  6734  0014F8  D04F               	goto	l7597
  6735                           
  6736                           ; BSR set to: 5
  6737                           ;AccessB.c: 831: {
  6738                           ;AccessB.c: 832: if(ReceivedDataBuffer[6] == 1)
  6739  0014FA  0105               	movlb	5	; () banked
  6740  0014FC  0506               	decf	6,w,b
  6741  0014FE  A4D8               	btfss	status,2,c
  6742  001500  D004               	goto	l7577
  6743                           
  6744                           ; BSR set to: 5
  6745                           ;AccessB.c: 833: {
  6746                           ;AccessB.c: 834: SSPBUF = ReceivedDataBuffer[1] | 0x01;
  6747  001502  0105               	movlb	5	; () banked
  6748  001504  5101               	movf	1,w,b
  6749  001506  0901               	iorlw	1
  6750  001508  D008               	goto	L30
  6751  00150A                     l7577:
  6752                           
  6753                           ; BSR set to: 5
  6754                           ;AccessB.c: 836: else if(ReceivedDataBuffer[6] == 2)
  6755  00150A  0105               	movlb	5	; () banked
  6756  00150C  5106               	movf	6,w,b
  6757  00150E  0A02               	xorlw	2
  6758  001510  A4D8               	btfss	status,2,c
  6759  001512  D004               	goto	l997
  6760                           
  6761                           ; BSR set to: 5
  6762                           ;AccessB.c: 837: {
  6763                           ;AccessB.c: 838: SSPBUF = ReceivedDataBuffer[1] & 0xFE;
  6764  001514  0105               	movlb	5	; () banked
  6765  001516  5101               	movf	1,w,b
  6766  001518  0BFE               	andlw	254
  6767  00151A                     L30:
  6768  00151A  6EC9               	movwf	4041,c	;volatile
  6769  00151C                     l997:
  6770  00151C  A69E               	btfss	3998,3,c	;volatile
  6771  00151E  D7FE               	goto	l997
  6772                           
  6773                           ;AccessB.c: 841: PIR1bits.SSPIF = 0;
  6774  001520  969E               	bcf	3998,3,c	;volatile
  6775                           
  6776                           ;AccessB.c: 842: if(!SSPCON2bits.ACKSTAT == 0)
  6777  001522  ACC5               	btfss	4037,6,c	;volatile
  6778  001524  D019               	goto	l1000
  6779                           
  6780                           ;AccessB.c: 843: {
  6781                           ;AccessB.c: 844: SSPCON2bits.PEN = 1;
  6782  001526  84C5               	bsf	4037,2,c	;volatile
  6783  001528                     l1001:
  6784  001528  A69E               	btfss	3998,3,c	;volatile
  6785  00152A  D7FE               	goto	l1001
  6786                           
  6787                           ;AccessB.c: 846: PIR1bits.SSPIF = 0;
  6788  00152C  969E               	bcf	3998,3,c	;volatile
  6789                           
  6790                           ;AccessB.c: 847: ToSendDataBuffer[0] = I2C_NAK;
  6791  00152E  0EFD               	movlw	253
  6792  001530  0105               	movlb	5	; () banked
  6793  001532  6F40               	movwf	64,b
  6794                           
  6795                           ; BSR set to: 5
  6796                           ;AccessB.c: 848: USBInHandle = USBTransferOnePacket(1,1,(uint8_t*) & ToSendDataBuffer[0]
      +                          ,64);
  6797  001534  0E01               	movlw	1
  6798  001536  0100               	movlb	0	; () banked
  6799  001538  6F8A               	movwf	USBTransferOnePacket@dir& (0+255),b
  6800  00153A  0105               	movlb	5	; () banked
  6801  00153C  0E05               	movlw	5
  6802  00153E  0100               	movlb	0	; () banked
  6803  001540  6F8C               	movwf	(USBTransferOnePacket@data+1)& (0+255),b
  6804  001542  0105               	movlb	5	; () banked
  6805  001544  0E40               	movlw	64
  6806  001546  0100               	movlb	0	; () banked
  6807  001548  6F8B               	movwf	USBTransferOnePacket@data& (0+255),b
  6808  00154A  0E40               	movlw	64
  6809  00154C  0100               	movlb	0	; () banked
  6810  00154E  6F8D               	movwf	USBTransferOnePacket@len& (0+255),b
  6811  001550  0E01               	movlw	1
  6812  001552  ECA2  F017         	call	_USBTransferOnePacket
  6813  001556  D0D2               	goto	L28
  6814  001558                     l1000:
  6815                           
  6816                           ;AccessB.c: 850: }
  6817                           ;AccessB.c: 851: SSPBUF = ReceivedDataBuffer[2];
  6818  001558  C502 FFC9          	movff	1282,4041	;volatile
  6819  00155C                     l1004:
  6820  00155C  A69E               	btfss	3998,3,c	;volatile
  6821  00155E  D7FE               	goto	l1004
  6822                           
  6823                           ;AccessB.c: 853: PIR1bits.SSPIF = 0;
  6824  001560  969E               	bcf	3998,3,c	;volatile
  6825                           
  6826                           ;AccessB.c: 854: if(!SSPCON2bits.ACKSTAT == 0)
  6827  001562  ACC5               	btfss	4037,6,c	;volatile
  6828  001564  D019               	goto	l7597
  6829                           
  6830                           ;AccessB.c: 855: {
  6831                           ;AccessB.c: 856: SSPCON2bits.PEN = 1;
  6832  001566  84C5               	bsf	4037,2,c	;volatile
  6833  001568                     l1008:
  6834  001568  A69E               	btfss	3998,3,c	;volatile
  6835  00156A  D7FE               	goto	l1008
  6836                           
  6837                           ;AccessB.c: 858: PIR1bits.SSPIF = 0;
  6838  00156C  969E               	bcf	3998,3,c	;volatile
  6839                           
  6840                           ;AccessB.c: 859: ToSendDataBuffer[0] = I2C_NAK;
  6841  00156E  0EFD               	movlw	253
  6842  001570  0105               	movlb	5	; () banked
  6843  001572  6F40               	movwf	64,b
  6844                           
  6845                           ; BSR set to: 5
  6846                           ;AccessB.c: 860: USBInHandle = USBTransferOnePacket(1,1,(uint8_t*) & ToSendDataBuffer[0]
      +                          ,64);
  6847  001574  0E01               	movlw	1
  6848  001576  0100               	movlb	0	; () banked
  6849  001578  6F8A               	movwf	USBTransferOnePacket@dir& (0+255),b
  6850  00157A  0105               	movlb	5	; () banked
  6851  00157C  0E05               	movlw	5
  6852  00157E  0100               	movlb	0	; () banked
  6853  001580  6F8C               	movwf	(USBTransferOnePacket@data+1)& (0+255),b
  6854  001582  0105               	movlb	5	; () banked
  6855  001584  0E40               	movlw	64
  6856  001586  0100               	movlb	0	; () banked
  6857  001588  6F8B               	movwf	USBTransferOnePacket@data& (0+255),b
  6858  00158A  0E40               	movlw	64
  6859  00158C  0100               	movlb	0	; () banked
  6860  00158E  6F8D               	movwf	USBTransferOnePacket@len& (0+255),b
  6861  001590  0E01               	movlw	1
  6862  001592  ECA2  F017         	call	_USBTransferOnePacket
  6863  001596  D0B2               	goto	L28
  6864  001598                     l7597:
  6865                           
  6866                           ;AccessB.c: 862: }
  6867                           ;AccessB.c: 863: }
  6868                           ;AccessB.c: 864: }
  6869                           ;AccessB.c: 867: if(ReceivedDataBuffer[5] > 0)
  6870  001598  0105               	movlb	5	; () banked
  6871  00159A  5105               	movf	5,w,b
  6872  00159C  B4D8               	btfsc	status,2,c
  6873  00159E  D096               	goto	l1011
  6874                           
  6875                           ; BSR set to: 5
  6876                           ;AccessB.c: 868: {
  6877                           ;AccessB.c: 869: for(int i = 0; i < ReceivedDataBuffer[5]; i++)
  6878  0015A0  0E00               	movlw	0
  6879  0015A2  0100               	movlb	0	; () banked
  6880  0015A4  6F9F               	movwf	(I2cTransference@i_3432+1)& (0+255),b
  6881  0015A6  0E00               	movlw	0
  6882  0015A8  0100               	movlb	0	; () banked
  6883  0015AA  6F9E               	movwf	I2cTransference@i_3432& (0+255),b
  6884  0015AC  D07B               	goto	l7611
  6885  0015AE                     l7601:
  6886                           
  6887                           ; BSR set to: 0
  6888  0015AE  A4C5               	btfss	4037,2,c	;volatile
  6889  0015B0  D004               	goto	u9190
  6890  0015B2  0100               	movlb	0	; () banked
  6891  0015B4  6B91               	clrf	??_I2cTransference& (0+255),b
  6892  0015B6  2B91               	incf	??_I2cTransference& (0+255),f,b
  6893  0015B8  D002               	goto	u9198
  6894  0015BA                     u9190:
  6895  0015BA  0100               	movlb	0	; () banked
  6896  0015BC  6B91               	clrf	??_I2cTransference& (0+255),b
  6897  0015BE                     u9198:
  6898  0015BE  A6C5               	btfss	4037,3,c	;volatile
  6899  0015C0  D004               	goto	u9200
  6900  0015C2  0100               	movlb	0	; () banked
  6901  0015C4  6B92               	clrf	(??_I2cTransference+1)& (0+255),b
  6902  0015C6  2B92               	incf	(??_I2cTransference+1)& (0+255),f,b
  6903  0015C8  D002               	goto	u9208
  6904  0015CA                     u9200:
  6905  0015CA  0100               	movlb	0	; () banked
  6906  0015CC  6B92               	clrf	(??_I2cTransference+1)& (0+255),b
  6907  0015CE                     u9208:
  6908  0015CE  A2C5               	btfss	4037,1,c	;volatile
  6909  0015D0  D004               	goto	u9210
  6910  0015D2  0100               	movlb	0	; () banked
  6911  0015D4  6B93               	clrf	(??_I2cTransference+2)& (0+255),b
  6912  0015D6  2B93               	incf	(??_I2cTransference+2)& (0+255),f,b
  6913  0015D8  D002               	goto	u9218
  6914  0015DA                     u9210:
  6915  0015DA  0100               	movlb	0	; () banked
  6916  0015DC  6B93               	clrf	(??_I2cTransference+2)& (0+255),b
  6917  0015DE                     u9218:
  6918  0015DE  A0C5               	btfss	4037,0,c	;volatile
  6919  0015E0  D004               	goto	u9220
  6920  0015E2  0100               	movlb	0	; () banked
  6921  0015E4  6B94               	clrf	(??_I2cTransference+3)& (0+255),b
  6922  0015E6  2B94               	incf	(??_I2cTransference+3)& (0+255),f,b
  6923  0015E8  D002               	goto	u9228
  6924  0015EA                     u9220:
  6925  0015EA  0100               	movlb	0	; () banked
  6926  0015EC  6B94               	clrf	(??_I2cTransference+3)& (0+255),b
  6927  0015EE                     u9228:
  6928  0015EE  A8C5               	btfss	4037,4,c	;volatile
  6929  0015F0  D004               	goto	u9230
  6930  0015F2  0100               	movlb	0	; () banked
  6931  0015F4  6B95               	clrf	(??_I2cTransference+4)& (0+255),b
  6932  0015F6  2B95               	incf	(??_I2cTransference+4)& (0+255),f,b
  6933  0015F8  D002               	goto	u9238
  6934  0015FA                     u9230:
  6935  0015FA  0100               	movlb	0	; () banked
  6936  0015FC  6B95               	clrf	(??_I2cTransference+4)& (0+255),b
  6937  0015FE                     u9238:
  6938  0015FE  A4C7               	btfss	4039,2,c	;volatile
  6939  001600  D002               	goto	u9240
  6940  001602  0E01               	movlw	1
  6941  001604  D001               	goto	u9246
  6942  001606                     u9240:
  6943  001606  0E00               	movlw	0
  6944  001608                     u9246:
  6945  001608  0100               	movlb	0	; () banked
  6946  00160A  1195               	iorwf	(??_I2cTransference+4)& (0+255),w,b
  6947  00160C  0100               	movlb	0	; () banked
  6948  00160E  1194               	iorwf	(??_I2cTransference+3)& (0+255),w,b
  6949  001610  0100               	movlb	0	; () banked
  6950  001612  1193               	iorwf	(??_I2cTransference+2)& (0+255),w,b
  6951  001614  0100               	movlb	0	; () banked
  6952  001616  1192               	iorwf	(??_I2cTransference+1)& (0+255),w,b
  6953  001618  0100               	movlb	0	; () banked
  6954  00161A  1191               	iorwf	??_I2cTransference& (0+255),w,b
  6955  00161C  0900               	iorlw	0
  6956  00161E  A4D8               	btfss	status,2,c
  6957  001620  D7C6               	goto	l7601
  6958                           
  6959                           ; BSR set to: 0
  6960                           ;AccessB.c: 872: SSPCON2bits.RCEN = 1;
  6961  001622  86C5               	bsf	4037,3,c	;volatile
  6962  001624                     l1017:
  6963  001624  A69E               	btfss	3998,3,c	;volatile
  6964  001626  D7FE               	goto	l1017
  6965                           
  6966                           ;AccessB.c: 874: PIR1bits.SSPIF = 0;
  6967  001628  969E               	bcf	3998,3,c	;volatile
  6968                           
  6969                           ;AccessB.c: 875: ToSendDataBuffer[i + 1] = SSPBUF;
  6970  00162A  0E01               	movlw	1
  6971  00162C  0100               	movlb	0	; () banked
  6972  00162E  259E               	addwf	I2cTransference@i_3432& (0+255),w,b
  6973  001630  0100               	movlb	0	; () banked
  6974  001632  6F91               	movwf	??_I2cTransference& (0+255),b
  6975  001634  0E00               	movlw	0
  6976  001636  0100               	movlb	0	; () banked
  6977  001638  219F               	addwfc	(I2cTransference@i_3432+1)& (0+255),w,b
  6978  00163A  0100               	movlb	0	; () banked
  6979  00163C  6F92               	movwf	(??_I2cTransference+1)& (0+255),b
  6980  00163E  0105               	movlb	5	; () banked
  6981  001640  0E40               	movlw	64
  6982  001642  0100               	movlb	0	; () banked
  6983  001644  2591               	addwf	??_I2cTransference& (0+255),w,b
  6984  001646  6ED9               	movwf	fsr2l,c
  6985  001648  0105               	movlb	5	; () banked
  6986  00164A  0E05               	movlw	5
  6987  00164C  0100               	movlb	0	; () banked
  6988  00164E  2192               	addwfc	(??_I2cTransference+1)& (0+255),w,b
  6989  001650  6EDA               	movwf	fsr2h,c
  6990  001652  CFC9 FFDF          	movff	4041,indf2	;volatile
  6991                           
  6992                           ; BSR set to: 0
  6993                           ;AccessB.c: 876: if(i == (ReceivedDataBuffer[5] - 1))
  6994  001656  0EFF               	movlw	255
  6995  001658  0100               	movlb	0	; () banked
  6996  00165A  6F91               	movwf	??_I2cTransference& (0+255),b
  6997  00165C  0EFF               	movlw	255
  6998  00165E  6F92               	movwf	(??_I2cTransference+1)& (0+255),b
  6999  001660  0105               	movlb	5	; () banked
  7000  001662  5105               	movf	5,w,b
  7001  001664  0100               	movlb	0	; () banked
  7002  001666  6F93               	movwf	(??_I2cTransference+2)& (0+255),b
  7003  001668  6B94               	clrf	(??_I2cTransference+3)& (0+255),b
  7004  00166A  0100               	movlb	0	; () banked
  7005  00166C  5191               	movf	??_I2cTransference& (0+255),w,b
  7006  00166E  0100               	movlb	0	; () banked
  7007  001670  2793               	addwf	(??_I2cTransference+2)& (0+255),f,b
  7008  001672  0100               	movlb	0	; () banked
  7009  001674  5192               	movf	(??_I2cTransference+1)& (0+255),w,b
  7010  001676  0100               	movlb	0	; () banked
  7011  001678  2394               	addwfc	(??_I2cTransference+3)& (0+255),f,b
  7012  00167A  0100               	movlb	0	; () banked
  7013  00167C  519F               	movf	(I2cTransference@i_3432+1)& (0+255),w,b
  7014  00167E  0100               	movlb	0	; () banked
  7015  001680  1994               	xorwf	(??_I2cTransference+3)& (0+255),w,b
  7016  001682  E104               	bnz	u9275
  7017  001684  0100               	movlb	0	; () banked
  7018  001686  519E               	movf	I2cTransference@i_3432& (0+255),w,b
  7019  001688  0100               	movlb	0	; () banked
  7020  00168A  1993               	xorwf	(??_I2cTransference+2)& (0+255),w,b
  7021  00168C                     u9275:
  7022  00168C  A4D8               	btfss	status,2,c
  7023  00168E  D002               	goto	l1020
  7024                           
  7025                           ; BSR set to: 0
  7026                           ;AccessB.c: 877: {
  7027                           ;AccessB.c: 878: SSPCON2bits.ACKDT = 1;
  7028  001690  8AC5               	bsf	4037,5,c	;volatile
  7029                           
  7030                           ;AccessB.c: 879: }
  7031  001692  D001               	goto	l1021
  7032  001694                     l1020:
  7033                           
  7034                           ; BSR set to: 0
  7035                           ;AccessB.c: 880: else
  7036                           ;AccessB.c: 881: {
  7037                           ;AccessB.c: 882: SSPCON2bits.ACKDT = 0;
  7038  001694  9AC5               	bcf	4037,5,c	;volatile
  7039  001696                     l1021:
  7040                           
  7041                           ; BSR set to: 0
  7042                           ;AccessB.c: 883: }
  7043                           ;AccessB.c: 884: SSPCON2bits.ACKEN = 1;
  7044  001696  88C5               	bsf	4037,4,c	;volatile
  7045  001698                     l1022:
  7046  001698  A69E               	btfss	3998,3,c	;volatile
  7047  00169A  D7FE               	goto	l1022
  7048                           
  7049                           ;AccessB.c: 886: PIR1bits.SSPIF = 0;
  7050  00169C  969E               	bcf	3998,3,c	;volatile
  7051  00169E  0100               	movlb	0	; () banked
  7052  0016A0  4B9E               	infsnz	I2cTransference@i_3432& (0+255),f,b
  7053  0016A2  2B9F               	incf	(I2cTransference@i_3432+1)& (0+255),f,b
  7054  0016A4                     l7611:
  7055                           
  7056                           ; BSR set to: 0
  7057  0016A4  0105               	movlb	5	; () banked
  7058  0016A6  5105               	movf	5,w,b
  7059  0016A8  0100               	movlb	0	; () banked
  7060  0016AA  6F91               	movwf	??_I2cTransference& (0+255),b
  7061  0016AC  6B92               	clrf	(??_I2cTransference+1)& (0+255),b
  7062  0016AE  0100               	movlb	0	; () banked
  7063  0016B0  519F               	movf	(I2cTransference@i_3432+1)& (0+255),w,b
  7064  0016B2  0A80               	xorlw	128
  7065  0016B4  0100               	movlb	0	; () banked
  7066  0016B6  6F93               	movwf	(??_I2cTransference+2)& (0+255),b
  7067  0016B8  5191               	movf	??_I2cTransference& (0+255),w,b
  7068  0016BA  0100               	movlb	0	; () banked
  7069  0016BC  5D9E               	subwf	I2cTransference@i_3432& (0+255),w,b
  7070  0016BE  0100               	movlb	0	; () banked
  7071  0016C0  5192               	movf	(??_I2cTransference+1)& (0+255),w,b
  7072  0016C2  0A80               	xorlw	128
  7073  0016C4  0100               	movlb	0	; () banked
  7074  0016C6  5993               	subwfb	(??_I2cTransference+2)& (0+255),w,b
  7075  0016C8  A0D8               	btfss	status,0,c
  7076  0016CA  D771               	goto	l7601
  7077  0016CC                     l1011:
  7078                           
  7079                           ;AccessB.c: 887: }
  7080                           ;AccessB.c: 888: }
  7081                           ;AccessB.c: 889: SSPCON2bits.PEN = 1;
  7082  0016CC  84C5               	bsf	4037,2,c	;volatile
  7083  0016CE                     l1026:
  7084  0016CE  A69E               	btfss	3998,3,c	;volatile
  7085  0016D0  D7FE               	goto	l1026
  7086                           
  7087                           ;AccessB.c: 891: PIR1bits.SSPIF = 0;
  7088  0016D2  969E               	bcf	3998,3,c	;volatile
  7089  0016D4                     l7613:
  7090                           
  7091                           ;AccessB.c: 892: }
  7092                           ;AccessB.c: 893: }
  7093                           ;AccessB.c: 894: ToSendDataBuffer[0] = I2C_ACK;
  7094  0016D4  0EFC               	movlw	252
  7095  0016D6  0105               	movlb	5	; () banked
  7096  0016D8  6F40               	movwf	64,b
  7097                           
  7098                           ; BSR set to: 5
  7099                           ;AccessB.c: 895: USBInHandle = USBTransferOnePacket(1,1,(uint8_t*) & ToSendDataBuffer[0]
      +                          ,64);
  7100  0016DA  0E01               	movlw	1
  7101  0016DC  0100               	movlb	0	; () banked
  7102  0016DE  6F8A               	movwf	USBTransferOnePacket@dir& (0+255),b
  7103  0016E0  0105               	movlb	5	; () banked
  7104  0016E2  0E05               	movlw	5
  7105  0016E4  0100               	movlb	0	; () banked
  7106  0016E6  6F8C               	movwf	(USBTransferOnePacket@data+1)& (0+255),b
  7107  0016E8  0105               	movlb	5	; () banked
  7108  0016EA  0E40               	movlw	64
  7109  0016EC  0100               	movlb	0	; () banked
  7110  0016EE  6F8B               	movwf	USBTransferOnePacket@data& (0+255),b
  7111  0016F0  0E40               	movlw	64
  7112  0016F2  0100               	movlb	0	; () banked
  7113  0016F4  6F8D               	movwf	USBTransferOnePacket@len& (0+255),b
  7114  0016F6  0E01               	movlw	1
  7115  0016F8  ECA2  F017         	call	_USBTransferOnePacket
  7116  0016FC                     L28:
  7117  0016FC  0100               	movlb	0	; () banked
  7118  0016FE  C08A  F02B         	movff	?_USBTransferOnePacket,_USBInHandle
  7119  001702  0100               	movlb	0	; () banked
  7120  001704  C08B  F02C         	movff	?_USBTransferOnePacket+1,_USBInHandle+1
  7121  001708                     l949:
  7122  001708  0012               	return	
  7123  00170A                     __end_of_I2cTransference:
  7124                           	opt stack 0
  7125                           tblptru	equ	0xFF8
  7126                           prodh	equ	0xFF4
  7127                           prodl	equ	0xFF3
  7128                           intcon	equ	0xFF2
  7129                           indf0	equ	0xFEF
  7130                           postinc0	equ	0xFEE
  7131                           fsr0h	equ	0xFEA
  7132                           fsr0l	equ	0xFE9
  7133                           wreg	equ	0xFE8
  7134                           indf2	equ	0xFDF
  7135                           postinc2	equ	0xFDE
  7136                           postdec2	equ	0xFDD
  7137                           fsr2h	equ	0xFDA
  7138                           fsr2l	equ	0xFD9
  7139                           status	equ	0xFD8
  7140                           
  7141 ;; *************** function _I2cCfg *****************
  7142 ;; Defined at:
  7143 ;;		line 697 in file "AccessB.c"
  7144 ;; Parameters:    Size  Location     Type
  7145 ;;		None
  7146 ;; Auto vars:     Size  Location     Type
  7147 ;;		None
  7148 ;; Return value:  Size  Location     Type
  7149 ;;		None               void
  7150 ;; Registers used:
  7151 ;;		None
  7152 ;; Tracked objects:
  7153 ;;		On entry : 0/0
  7154 ;;		On exit  : 0/0
  7155 ;;		Unchanged: 0/0
  7156 ;; Data sizes:     COMRAM   BANK0   BANK1   BANK2   BANK3   BANK4  BANK5h   BANK6   BANK7
  7157 ;;      Params:         0       0       0       0       0       0       0       0       0
  7158 ;;      Locals:         0       0       0       0       0       0       0       0       0
  7159 ;;      Temps:          0       0       0       0       0       0       0       0       0
  7160 ;;      Totals:         0       0       0       0       0       0       0       0       0
  7161 ;;Total ram usage:        0 bytes
  7162 ;; Hardware stack levels used:    1
  7163 ;; Hardware stack levels required when called:   12
  7164 ;; This function calls:
  7165 ;;		Nothing
  7166 ;; This function is called by:
  7167 ;;		_APP_DeviceCustomHIDTasks
  7168 ;; This function uses a non-reentrant model
  7169 ;;
  7170                           
  7171                           	psect	text16
  7172  0040AA                     __ptext16:
  7173                           	opt stack 0
  7174  0040AA                     _I2cCfg:
  7175                           	opt stack 17
  7176                           
  7177                           ;AccessB.c: 699: SSPSTAT = ReceivedDataBuffer[1];
  7178                           
  7179                           ;incstack = 0
  7180  0040AA  C501 FFC7          	movff	1281,4039	;volatile
  7181                           
  7182                           ;AccessB.c: 700: SSPCON1 = ReceivedDataBuffer[2];
  7183  0040AE  C502 FFC6          	movff	1282,4038	;volatile
  7184                           
  7185                           ;AccessB.c: 701: SSPADD = ReceivedDataBuffer[3];
  7186  0040B2  C503 FFC8          	movff	1283,4040	;volatile
  7187                           
  7188                           ;AccessB.c: 702: TRISBbits.RB0 = 1;
  7189  0040B6  8093               	bsf	3987,0,c	;volatile
  7190                           
  7191                           ;AccessB.c: 703: TRISBbits.RB1 = 1;
  7192  0040B8  8293               	bsf	3987,1,c	;volatile
  7193  0040BA  0012               	return	
  7194  0040BC                     __end_of_I2cCfg:
  7195                           	opt stack 0
  7196                           tblptru	equ	0xFF8
  7197                           prodh	equ	0xFF4
  7198                           prodl	equ	0xFF3
  7199                           intcon	equ	0xFF2
  7200                           indf0	equ	0xFEF
  7201                           postinc0	equ	0xFEE
  7202                           fsr0h	equ	0xFEA
  7203                           fsr0l	equ	0xFE9
  7204                           wreg	equ	0xFE8
  7205                           indf2	equ	0xFDF
  7206                           postinc2	equ	0xFDE
  7207                           postdec2	equ	0xFDD
  7208                           fsr2h	equ	0xFDA
  7209                           fsr2l	equ	0xFD9
  7210                           status	equ	0xFD8
  7211                           
  7212 ;; *************** function _EusartTx *****************
  7213 ;; Defined at:
  7214 ;;		line 1071 in file "AccessB.c"
  7215 ;; Parameters:    Size  Location     Type
  7216 ;;		None
  7217 ;; Auto vars:     Size  Location     Type
  7218 ;;  n               2   45[BANK0 ] int 
  7219 ;; Return value:  Size  Location     Type
  7220 ;;		None               void
  7221 ;; Registers used:
  7222 ;;		wreg, fsr2l, fsr2h, status,2, status,0
  7223 ;; Tracked objects:
  7224 ;;		On entry : 0/0
  7225 ;;		On exit  : 0/0
  7226 ;;		Unchanged: 0/0
  7227 ;; Data sizes:     COMRAM   BANK0   BANK1   BANK2   BANK3   BANK4  BANK5h   BANK6   BANK7
  7228 ;;      Params:         0       0       0       0       0       0       0       0       0
  7229 ;;      Locals:         0       2       0       0       0       0       0       0       0
  7230 ;;      Temps:          0       3       0       0       0       0       0       0       0
  7231 ;;      Totals:         0       5       0       0       0       0       0       0       0
  7232 ;;Total ram usage:        5 bytes
  7233 ;; Hardware stack levels used:    1
  7234 ;; Hardware stack levels required when called:   12
  7235 ;; This function calls:
  7236 ;;		Nothing
  7237 ;; This function is called by:
  7238 ;;		_APP_DeviceCustomHIDTasks
  7239 ;; This function uses a non-reentrant model
  7240 ;;
  7241                           
  7242                           	psect	text17
  7243  003B7A                     __ptext17:
  7244                           	opt stack 0
  7245  003B7A                     _EusartTx:
  7246                           	opt stack 17
  7247                           
  7248                           ;AccessB.c: 1077: for(int n = 0; n < ReceivedDataBuffer[1]; n++)
  7249                           
  7250                           ;incstack = 0
  7251  003B7A  0E00               	movlw	0
  7252  003B7C  0100               	movlb	0	; () banked
  7253  003B7E  6F8E               	movwf	(EusartTx@n+1)& (0+255),b
  7254  003B80  0E00               	movlw	0
  7255  003B82  0100               	movlb	0	; () banked
  7256  003B84  6F8D               	movwf	EusartTx@n& (0+255),b
  7257  003B86  D01B               	goto	l5543
  7258  003B88                     l5539:
  7259                           
  7260                           ; BSR set to: 0
  7261                           ;AccessB.c: 1078: {
  7262                           ;AccessB.c: 1079: TXREG = ReceivedDataBuffer[n+2];
  7263  003B88  0E02               	movlw	2
  7264  003B8A  0100               	movlb	0	; () banked
  7265  003B8C  258D               	addwf	EusartTx@n& (0+255),w,b
  7266  003B8E  0100               	movlb	0	; () banked
  7267  003B90  6F8A               	movwf	??_EusartTx& (0+255),b
  7268  003B92  0E00               	movlw	0
  7269  003B94  0100               	movlb	0	; () banked
  7270  003B96  218E               	addwfc	(EusartTx@n+1)& (0+255),w,b
  7271  003B98  0100               	movlb	0	; () banked
  7272  003B9A  6F8B               	movwf	(??_EusartTx+1)& (0+255),b
  7273  003B9C  0105               	movlb	5	; () banked
  7274  003B9E  0E00               	movlw	0
  7275  003BA0  0100               	movlb	0	; () banked
  7276  003BA2  258A               	addwf	??_EusartTx& (0+255),w,b
  7277  003BA4  6ED9               	movwf	fsr2l,c
  7278  003BA6  0105               	movlb	5	; () banked
  7279  003BA8  0E05               	movlw	5
  7280  003BAA  0100               	movlb	0	; () banked
  7281  003BAC  218B               	addwfc	(??_EusartTx+1)& (0+255),w,b
  7282  003BAE  6EDA               	movwf	fsr2h,c
  7283  003BB0  50DF               	movf	indf2,w,c
  7284  003BB2  6EAD               	movwf	4013,c	;volatile
  7285  003BB4                     l1097:
  7286  003BB4  A2AC               	btfss	4012,1,c	;volatile
  7287  003BB6  D7FE               	goto	l1097
  7288  003BB8  0100               	movlb	0	; () banked
  7289  003BBA  4B8D               	infsnz	EusartTx@n& (0+255),f,b
  7290  003BBC  2B8E               	incf	(EusartTx@n+1)& (0+255),f,b
  7291  003BBE                     l5543:
  7292                           
  7293                           ; BSR set to: 0
  7294  003BBE  0105               	movlb	5	; () banked
  7295  003BC0  5101               	movf	1,w,b
  7296  003BC2  0100               	movlb	0	; () banked
  7297  003BC4  6F8A               	movwf	??_EusartTx& (0+255),b
  7298  003BC6  6B8B               	clrf	(??_EusartTx+1)& (0+255),b
  7299  003BC8  0100               	movlb	0	; () banked
  7300  003BCA  518E               	movf	(EusartTx@n+1)& (0+255),w,b
  7301  003BCC  0A80               	xorlw	128
  7302  003BCE  0100               	movlb	0	; () banked
  7303  003BD0  6F8C               	movwf	(??_EusartTx+2)& (0+255),b
  7304  003BD2  518A               	movf	??_EusartTx& (0+255),w,b
  7305  003BD4  0100               	movlb	0	; () banked
  7306  003BD6  5D8D               	subwf	EusartTx@n& (0+255),w,b
  7307  003BD8  0100               	movlb	0	; () banked
  7308  003BDA  518B               	movf	(??_EusartTx+1)& (0+255),w,b
  7309  003BDC  0A80               	xorlw	128
  7310  003BDE  0100               	movlb	0	; () banked
  7311  003BE0  598C               	subwfb	(??_EusartTx+2)& (0+255),w,b
  7312  003BE2  B0D8               	btfsc	status,0,c
  7313                           
  7314                           ; BSR set to: 0
  7315                           
  7316                           ; BSR set to: 0
  7317  003BE4  0012               	return	
  7318  003BE6  D7D0               	goto	l5539
  7319  003BE8                     __end_of_EusartTx:
  7320                           	opt stack 0
  7321                           tblptru	equ	0xFF8
  7322                           prodh	equ	0xFF4
  7323                           prodl	equ	0xFF3
  7324                           intcon	equ	0xFF2
  7325                           indf0	equ	0xFEF
  7326                           postinc0	equ	0xFEE
  7327                           fsr0h	equ	0xFEA
  7328                           fsr0l	equ	0xFE9
  7329                           wreg	equ	0xFE8
  7330                           indf2	equ	0xFDF
  7331                           postinc2	equ	0xFDE
  7332                           postdec2	equ	0xFDD
  7333                           fsr2h	equ	0xFDA
  7334                           fsr2l	equ	0xFD9
  7335                           status	equ	0xFD8
  7336                           
  7337 ;; *************** function _EusartRx *****************
  7338 ;; Defined at:
  7339 ;;		line 1050 in file "AccessB.c"
  7340 ;; Parameters:    Size  Location     Type
  7341 ;;		None
  7342 ;; Auto vars:     Size  Location     Type
  7343 ;;  n               2   45[BANK0 ] int 
  7344 ;; Return value:  Size  Location     Type
  7345 ;;		None               void
  7346 ;; Registers used:
  7347 ;;		wreg, fsr2l, fsr2h, status,2, status,0
  7348 ;; Tracked objects:
  7349 ;;		On entry : 0/0
  7350 ;;		On exit  : 0/0
  7351 ;;		Unchanged: 0/0
  7352 ;; Data sizes:     COMRAM   BANK0   BANK1   BANK2   BANK3   BANK4  BANK5h   BANK6   BANK7
  7353 ;;      Params:         0       0       0       0       0       0       0       0       0
  7354 ;;      Locals:         0       2       0       0       0       0       0       0       0
  7355 ;;      Temps:          0       3       0       0       0       0       0       0       0
  7356 ;;      Totals:         0       5       0       0       0       0       0       0       0
  7357 ;;Total ram usage:        5 bytes
  7358 ;; Hardware stack levels used:    1
  7359 ;; Hardware stack levels required when called:   12
  7360 ;; This function calls:
  7361 ;;		Nothing
  7362 ;; This function is called by:
  7363 ;;		_APP_DeviceCustomHIDTasks
  7364 ;; This function uses a non-reentrant model
  7365 ;;
  7366                           
  7367                           	psect	text18
  7368  003B08                     __ptext18:
  7369                           	opt stack 0
  7370  003B08                     _EusartRx:
  7371                           	opt stack 17
  7372                           
  7373                           ;AccessB.c: 1054: if(ReceivedDataBuffer[1] == 1)
  7374                           
  7375                           ; BSR set to: 0
  7376                           ;incstack = 0
  7377  003B08  0105               	movlb	5	; () banked
  7378  003B0A  0501               	decf	1,w,b
  7379  003B0C  A4D8               	btfss	status,2,c
  7380  003B0E  D002               	goto	l1083
  7381                           
  7382                           ; BSR set to: 5
  7383                           ;AccessB.c: 1055: {
  7384                           ;AccessB.c: 1056: RCSTAbits.SREN = 1;
  7385  003B10  8AAB               	bsf	4011,5,c	;volatile
  7386                           
  7387                           ;AccessB.c: 1057: }
  7388  003B12  D004               	goto	l5551
  7389  003B14                     l1083:
  7390                           
  7391                           ; BSR set to: 5
  7392                           ;AccessB.c: 1058: else if(ReceivedDataBuffer[1] == 0)
  7393  003B14  0105               	movlb	5	; () banked
  7394  003B16  6701               	tstfsz	1,b
  7395  003B18  D001               	goto	l5551
  7396                           
  7397                           ; BSR set to: 5
  7398                           ;AccessB.c: 1059: {
  7399                           ;AccessB.c: 1060: RCSTAbits.CREN = 1;
  7400  003B1A  88AB               	bsf	4011,4,c	;volatile
  7401  003B1C                     l5551:
  7402                           
  7403                           ; BSR set to: 5
  7404                           ;AccessB.c: 1061: }
  7405                           ;AccessB.c: 1062: for(int n = 0; n < ReceivedDataBuffer[2]; n++)
  7406  003B1C  0E00               	movlw	0
  7407  003B1E  0100               	movlb	0	; () banked
  7408  003B20  6F8E               	movwf	(EusartRx@n+1)& (0+255),b
  7409  003B22  0E00               	movlw	0
  7410  003B24  0100               	movlb	0	; () banked
  7411  003B26  6F8D               	movwf	EusartRx@n& (0+255),b
  7412  003B28  D012               	goto	l5557
  7413  003B2A                     l1088:
  7414  003B2A  BA9E               	btfsc	3998,5,c	;volatile
  7415  003B2C  D7FE               	goto	l1088
  7416                           
  7417                           ;AccessB.c: 1065: PIR1bits.RCIF = 0;
  7418  003B2E  9A9E               	bcf	3998,5,c	;volatile
  7419                           
  7420                           ;AccessB.c: 1066: ToSendDataBuffer[n] = RCREG;
  7421  003B30  0105               	movlb	5	; () banked
  7422  003B32  0E40               	movlw	64
  7423  003B34  0100               	movlb	0	; () banked
  7424  003B36  258D               	addwf	EusartRx@n& (0+255),w,b
  7425  003B38  6ED9               	movwf	fsr2l,c
  7426  003B3A  0105               	movlb	5	; () banked
  7427  003B3C  0E05               	movlw	5
  7428  003B3E  0100               	movlb	0	; () banked
  7429  003B40  218E               	addwfc	(EusartRx@n+1)& (0+255),w,b
  7430  003B42  6EDA               	movwf	fsr2h,c
  7431  003B44  CFAE FFDF          	movff	4014,indf2	;volatile
  7432                           
  7433                           ; BSR set to: 0
  7434  003B48  0100               	movlb	0	; () banked
  7435  003B4A  4B8D               	infsnz	EusartRx@n& (0+255),f,b
  7436  003B4C  2B8E               	incf	(EusartRx@n+1)& (0+255),f,b
  7437  003B4E                     l5557:
  7438                           
  7439                           ; BSR set to: 0
  7440  003B4E  0105               	movlb	5	; () banked
  7441  003B50  5102               	movf	2,w,b
  7442  003B52  0100               	movlb	0	; () banked
  7443  003B54  6F8A               	movwf	??_EusartRx& (0+255),b
  7444  003B56  6B8B               	clrf	(??_EusartRx+1)& (0+255),b
  7445  003B58  0100               	movlb	0	; () banked
  7446  003B5A  518E               	movf	(EusartRx@n+1)& (0+255),w,b
  7447  003B5C  0A80               	xorlw	128
  7448  003B5E  0100               	movlb	0	; () banked
  7449  003B60  6F8C               	movwf	(??_EusartRx+2)& (0+255),b
  7450  003B62  518A               	movf	??_EusartRx& (0+255),w,b
  7451  003B64  0100               	movlb	0	; () banked
  7452  003B66  5D8D               	subwf	EusartRx@n& (0+255),w,b
  7453  003B68  0100               	movlb	0	; () banked
  7454  003B6A  518B               	movf	(??_EusartRx+1)& (0+255),w,b
  7455  003B6C  0A80               	xorlw	128
  7456  003B6E  0100               	movlb	0	; () banked
  7457  003B70  598C               	subwfb	(??_EusartRx+2)& (0+255),w,b
  7458  003B72  A0D8               	btfss	status,0,c
  7459  003B74  D7DA               	goto	l1088
  7460                           
  7461                           ; BSR set to: 0
  7462                           ;AccessB.c: 1067: }
  7463                           ;AccessB.c: 1068: RCSTAbits.CREN = 0;
  7464  003B76  98AB               	bcf	4011,4,c	;volatile
  7465                           
  7466                           ; BSR set to: 0
  7467  003B78  0012               	return	
  7468  003B7A                     __end_of_EusartRx:
  7469                           	opt stack 0
  7470                           tblptru	equ	0xFF8
  7471                           prodh	equ	0xFF4
  7472                           prodl	equ	0xFF3
  7473                           intcon	equ	0xFF2
  7474                           indf0	equ	0xFEF
  7475                           postinc0	equ	0xFEE
  7476                           fsr0h	equ	0xFEA
  7477                           fsr0l	equ	0xFE9
  7478                           wreg	equ	0xFE8
  7479                           indf2	equ	0xFDF
  7480                           postinc2	equ	0xFDE
  7481                           postdec2	equ	0xFDD
  7482                           fsr2h	equ	0xFDA
  7483                           fsr2l	equ	0xFD9
  7484                           status	equ	0xFD8
  7485                           
  7486 ;; *************** function _CcpCfg *****************
  7487 ;; Defined at:
  7488 ;;		line 898 in file "AccessB.c"
  7489 ;; Parameters:    Size  Location     Type
  7490 ;;		None
  7491 ;; Auto vars:     Size  Location     Type
  7492 ;;		None
  7493 ;; Return value:  Size  Location     Type
  7494 ;;		None               void
  7495 ;; Registers used:
  7496 ;;		wreg, status,2, status,0
  7497 ;; Tracked objects:
  7498 ;;		On entry : 0/0
  7499 ;;		On exit  : 0/0
  7500 ;;		Unchanged: 0/0
  7501 ;; Data sizes:     COMRAM   BANK0   BANK1   BANK2   BANK3   BANK4  BANK5h   BANK6   BANK7
  7502 ;;      Params:         0       0       0       0       0       0       0       0       0
  7503 ;;      Locals:         0       0       0       0       0       0       0       0       0
  7504 ;;      Temps:          0       0       0       0       0       0       0       0       0
  7505 ;;      Totals:         0       0       0       0       0       0       0       0       0
  7506 ;;Total ram usage:        0 bytes
  7507 ;; Hardware stack levels used:    1
  7508 ;; Hardware stack levels required when called:   12
  7509 ;; This function calls:
  7510 ;;		Nothing
  7511 ;; This function is called by:
  7512 ;;		_APP_DeviceCustomHIDTasks
  7513 ;; This function uses a non-reentrant model
  7514 ;;
  7515                           
  7516                           	psect	text19
  7517  003DD2                     __ptext19:
  7518                           	opt stack 0
  7519  003DD2                     _CcpCfg:
  7520                           	opt stack 17
  7521                           
  7522                           ;AccessB.c: 900: if(ReceivedDataBuffer[1] == 1)
  7523                           
  7524                           ; BSR set to: 0
  7525                           ;incstack = 0
  7526  003DD2  0105               	movlb	5	; () banked
  7527  003DD4  0501               	decf	1,w,b
  7528  003DD6  A4D8               	btfss	status,2,c
  7529  003DD8  D010               	goto	l5467
  7530                           
  7531                           ; BSR set to: 5
  7532                           ;AccessB.c: 901: {
  7533                           ;AccessB.c: 902: CCP1CON = ReceivedDataBuffer[2];
  7534  003DDA  C502 FFBD          	movff	1282,4029	;volatile
  7535                           
  7536                           ; BSR set to: 5
  7537                           ;AccessB.c: 903: if(ReceivedDataBuffer[2] > 7 || ReceivedDataBuffer[2] == 2)
  7538  003DDE  0E08               	movlw	8
  7539  003DE0  0105               	movlb	5	; () banked
  7540  003DE2  5D02               	subwf	2,w,b
  7541  003DE4  B0D8               	btfsc	status,0,c
  7542  003DE6  D005               	goto	l1034
  7543                           
  7544                           ; BSR set to: 5
  7545  003DE8  0105               	movlb	5	; () banked
  7546  003DEA  5102               	movf	2,w,b
  7547  003DEC  0A02               	xorlw	2
  7548  003DEE  A4D8               	btfss	status,2,c
  7549  003DF0  D002               	goto	l1032
  7550  003DF2                     l1034:
  7551                           
  7552                           ; BSR set to: 5
  7553                           ;AccessB.c: 904: {
  7554                           ;AccessB.c: 905: TRISCbits.RC2 = 0;
  7555  003DF2  9494               	bcf	3988,2,c	;volatile
  7556                           
  7557                           ;AccessB.c: 906: }
  7558  003DF4  D016               	goto	l1042
  7559  003DF6                     l1032:
  7560                           
  7561                           ; BSR set to: 5
  7562                           ;AccessB.c: 907: else
  7563                           ;AccessB.c: 908: {
  7564                           ;AccessB.c: 909: TRISCbits.RC2 = 1;
  7565  003DF6  8494               	bsf	3988,2,c	;volatile
  7566  003DF8  D014               	goto	l1042
  7567  003DFA                     l5467:
  7568                           
  7569                           ; BSR set to: 5
  7570                           ;AccessB.c: 912: else if(ReceivedDataBuffer[1] == 2)
  7571  003DFA  0105               	movlb	5	; () banked
  7572  003DFC  5101               	movf	1,w,b
  7573  003DFE  0A02               	xorlw	2
  7574  003E00  A4D8               	btfss	status,2,c
  7575  003E02  D00F               	goto	l1042
  7576                           
  7577                           ; BSR set to: 5
  7578                           ;AccessB.c: 913: {
  7579                           ;AccessB.c: 914: CCP2CON = ReceivedDataBuffer[2];
  7580  003E04  C502 FFBA          	movff	1282,4026	;volatile
  7581                           
  7582                           ; BSR set to: 5
  7583                           ;AccessB.c: 915: if(ReceivedDataBuffer[2] > 7 || ReceivedDataBuffer[2] == 2)
  7584  003E08  0E08               	movlw	8
  7585  003E0A  0105               	movlb	5	; () banked
  7586  003E0C  5D02               	subwf	2,w,b
  7587  003E0E  B0D8               	btfsc	status,0,c
  7588  003E10  D005               	goto	l1040
  7589                           
  7590                           ; BSR set to: 5
  7591  003E12  0105               	movlb	5	; () banked
  7592  003E14  5102               	movf	2,w,b
  7593  003E16  0A02               	xorlw	2
  7594  003E18  A4D8               	btfss	status,2,c
  7595  003E1A  D002               	goto	l1038
  7596  003E1C                     l1040:
  7597                           
  7598                           ; BSR set to: 5
  7599                           ;AccessB.c: 916: {
  7600                           ;AccessB.c: 917: TRISCbits.RC1 = 0;
  7601  003E1C  9294               	bcf	3988,1,c	;volatile
  7602                           
  7603                           ;AccessB.c: 918: }
  7604  003E1E  D001               	goto	l1042
  7605  003E20                     l1038:
  7606                           
  7607                           ; BSR set to: 5
  7608                           ;AccessB.c: 919: else
  7609                           ;AccessB.c: 920: {
  7610                           ;AccessB.c: 921: TRISCbits.RC1 = 1;
  7611  003E20  8294               	bsf	3988,1,c	;volatile
  7612  003E22                     l1042:
  7613                           
  7614                           ; BSR set to: 5
  7615  003E22  0012               	return	
  7616  003E24                     __end_of_CcpCfg:
  7617                           	opt stack 0
  7618                           tblptru	equ	0xFF8
  7619                           prodh	equ	0xFF4
  7620                           prodl	equ	0xFF3
  7621                           intcon	equ	0xFF2
  7622                           indf0	equ	0xFEF
  7623                           postinc0	equ	0xFEE
  7624                           fsr0h	equ	0xFEA
  7625                           fsr0l	equ	0xFE9
  7626                           wreg	equ	0xFE8
  7627                           indf2	equ	0xFDF
  7628                           postinc2	equ	0xFDE
  7629                           postdec2	equ	0xFDD
  7630                           fsr2h	equ	0xFDA
  7631                           fsr2l	equ	0xFD9
  7632                           status	equ	0xFD8
  7633                           
  7634 ;; *************** function _AnalogCmpCfg *****************
  7635 ;; Defined at:
  7636 ;;		line 288 in file "AccessB.c"
  7637 ;; Parameters:    Size  Location     Type
  7638 ;;		None
  7639 ;; Auto vars:     Size  Location     Type
  7640 ;;		None
  7641 ;; Return value:  Size  Location     Type
  7642 ;;		None               void
  7643 ;; Registers used:
  7644 ;;		wreg, status,2, status,0
  7645 ;; Tracked objects:
  7646 ;;		On entry : 0/0
  7647 ;;		On exit  : 0/0
  7648 ;;		Unchanged: 0/0
  7649 ;; Data sizes:     COMRAM   BANK0   BANK1   BANK2   BANK3   BANK4  BANK5h   BANK6   BANK7
  7650 ;;      Params:         0       0       0       0       0       0       0       0       0
  7651 ;;      Locals:         0       0       0       0       0       0       0       0       0
  7652 ;;      Temps:          0       2       0       0       0       0       0       0       0
  7653 ;;      Totals:         0       2       0       0       0       0       0       0       0
  7654 ;;Total ram usage:        2 bytes
  7655 ;; Hardware stack levels used:    1
  7656 ;; Hardware stack levels required when called:   12
  7657 ;; This function calls:
  7658 ;;		Nothing
  7659 ;; This function is called by:
  7660 ;;		_APP_DeviceCustomHIDTasks
  7661 ;; This function uses a non-reentrant model
  7662 ;;
  7663                           
  7664                           	psect	text20
  7665  003CBA                     __ptext20:
  7666                           	opt stack 0
  7667  003CBA                     _AnalogCmpCfg:
  7668                           	opt stack 17
  7669                           
  7670                           ;AccessB.c: 291: CMCON = ReceivedDataBuffer[1];
  7671                           
  7672                           ; BSR set to: 5
  7673                           ;incstack = 0
  7674  003CBA  C501 FFB4          	movff	1281,4020	;volatile
  7675                           
  7676                           ;AccessB.c: 293: switch (CMCON & 0x07) {
  7677  003CBE  D009               	goto	l5109
  7678  003CC0                     l5093:
  7679                           
  7680                           ;AccessB.c: 295: TRISA = 0b00001111;
  7681  003CC0  0E0F               	movlw	15
  7682  003CC2  D001               	goto	L32
  7683  003CC4                     l5095:
  7684                           
  7685                           ;AccessB.c: 299: TRISA = 0b00001001;
  7686  003CC4  0E09               	movlw	9
  7687  003CC6                     L32:
  7688  003CC6  6E92               	movwf	3986,c	;volatile
  7689                           
  7690                           ;AccessB.c: 304: break;
  7691  003CC8  D028               	goto	l798
  7692  003CCA                     l5103:
  7693                           
  7694                           ;AccessB.c: 315: TRISA = 0b00001011;
  7695  003CCA  0E0B               	movlw	11
  7696  003CCC  D7FC               	goto	L32
  7697  003CCE                     l5107:
  7698                           
  7699                           ;AccessB.c: 323: TRISA = 0b00000000;
  7700  003CCE  0E00               	movlw	0
  7701  003CD0  D7FA               	goto	L32
  7702  003CD2                     l5109:
  7703  003CD2  50B4               	movf	4020,w,c	;volatile
  7704  003CD4  0B07               	andlw	7
  7705  003CD6  0100               	movlb	0	; () banked
  7706  003CD8  6F8A               	movwf	??_AnalogCmpCfg& (0+255),b
  7707  003CDA  6B8B               	clrf	(??_AnalogCmpCfg+1)& (0+255),b
  7708                           
  7709                           ; Switch on 2 bytes has been partitioned into a top level switch of size 1, and 1 sub-sw
      +                          itches
  7710                           ; Switch size 1, requested type "space"
  7711                           ; Number of cases is 1, Range of values is 0 to 0
  7712                           ; switch strategies available:
  7713                           ; Name         Instructions Cycles
  7714                           ; simple_byte            4     3 (average)
  7715                           ;	Chosen strategy is simple_byte
  7716  003CDC  0100               	movlb	0	; () banked
  7717  003CDE  518B               	movf	(??_AnalogCmpCfg+1)& (0+255),w,b
  7718  003CE0  0A00               	xorlw	0	; case 0
  7719  003CE2  A4D8               	btfss	status,2,c
  7720  003CE4  D01A               	goto	l798
  7721                           
  7722                           ; BSR set to: 0
  7723                           ; Switch size 1, requested type "space"
  7724                           ; Number of cases is 8, Range of values is 0 to 7
  7725                           ; switch strategies available:
  7726                           ; Name         Instructions Cycles
  7727                           ; simple_byte           25    13 (average)
  7728                           ;	Chosen strategy is simple_byte
  7729  003CE6  0100               	movlb	0	; () banked
  7730  003CE8  518A               	movf	??_AnalogCmpCfg& (0+255),w,b
  7731  003CEA  0A00               	xorlw	0	; case 0
  7732  003CEC  B4D8               	btfsc	status,2,c
  7733  003CEE  D7E8               	goto	l5093
  7734  003CF0  0A01               	xorlw	1	; case 1
  7735  003CF2  B4D8               	btfsc	status,2,c
  7736  003CF4  D7E7               	goto	l5095
  7737  003CF6  0A03               	xorlw	3	; case 2
  7738  003CF8  B4D8               	btfsc	status,2,c
  7739  003CFA  D7E2               	goto	l5093
  7740  003CFC  0A01               	xorlw	1	; case 3
  7741  003CFE  B4D8               	btfsc	status,2,c
  7742  003D00  D7DF               	goto	l5093
  7743  003D02  0A07               	xorlw	7	; case 4
  7744  003D04  B4D8               	btfsc	status,2,c
  7745  003D06  D7E1               	goto	l5103
  7746  003D08  0A01               	xorlw	1	; case 5
  7747  003D0A  B4D8               	btfsc	status,2,c
  7748  003D0C  D7DE               	goto	l5103
  7749  003D0E  0A03               	xorlw	3	; case 6
  7750  003D10  B4D8               	btfsc	status,2,c
  7751  003D12  D7D6               	goto	l5093
  7752  003D14  0A01               	xorlw	1	; case 7
  7753  003D16  B4D8               	btfsc	status,2,c
  7754  003D18  D7DA               	goto	l5107
  7755  003D1A                     l798:
  7756  003D1A  0012               	return	
  7757  003D1C                     __end_of_AnalogCmpCfg:
  7758                           	opt stack 0
  7759                           tblptru	equ	0xFF8
  7760                           prodh	equ	0xFF4
  7761                           prodl	equ	0xFF3
  7762                           intcon	equ	0xFF2
  7763                           indf0	equ	0xFEF
  7764                           postinc0	equ	0xFEE
  7765                           fsr0h	equ	0xFEA
  7766                           fsr0l	equ	0xFE9
  7767                           wreg	equ	0xFE8
  7768                           indf2	equ	0xFDF
  7769                           postinc2	equ	0xFDE
  7770                           postdec2	equ	0xFDD
  7771                           fsr2h	equ	0xFDA
  7772                           fsr2l	equ	0xFD9
  7773                           status	equ	0xFD8
  7774                           
  7775 ;; *************** function _AdcValue *****************
  7776 ;; Defined at:
  7777 ;;		line 260 in file "AccessB.c"
  7778 ;; Parameters:    Size  Location     Type
  7779 ;;		None
  7780 ;; Auto vars:     Size  Location     Type
  7781 ;;		None
  7782 ;; Return value:  Size  Location     Type
  7783 ;;		None               void
  7784 ;; Registers used:
  7785 ;;		wreg, fsr2l, fsr2h, status,2, status,0, prodl, prodh, cstack
  7786 ;; Tracked objects:
  7787 ;;		On entry : 0/0
  7788 ;;		On exit  : 0/0
  7789 ;;		Unchanged: 0/0
  7790 ;; Data sizes:     COMRAM   BANK0   BANK1   BANK2   BANK3   BANK4  BANK5h   BANK6   BANK7
  7791 ;;      Params:         0       0       0       0       0       0       0       0       0
  7792 ;;      Locals:         0       6       0       0       0       0       0       0       0
  7793 ;;      Temps:          0       1       0       0       0       0       0       0       0
  7794 ;;      Totals:         0       7       0       0       0       0       0       0       0
  7795 ;;Total ram usage:        7 bytes
  7796 ;; Hardware stack levels used:    1
  7797 ;; Hardware stack levels required when called:   13
  7798 ;; This function calls:
  7799 ;;		_USBTransferOnePacket
  7800 ;; This function is called by:
  7801 ;;		_APP_DeviceCustomHIDTasks
  7802 ;; This function uses a non-reentrant model
  7803 ;;
  7804                           
  7805                           	psect	text21
  7806  0024EC                     __ptext21:
  7807                           	opt stack 0
  7808  0024EC                     _AdcValue:
  7809                           	opt stack 16
  7810                           
  7811                           ;AccessB.c: 262: if (!(USBInHandle==0?0:((volatile BDT_ENTRY*)USBInHandle)->STAT.UOWN)) 
      +                          {
  7812                           
  7813                           ;incstack = 0
  7814  0024EC  502C               	movf	_USBInHandle+1,w,c
  7815  0024EE  102B               	iorwf	_USBInHandle,w,c
  7816  0024F0  B4D8               	btfsc	status,2,c
  7817  0024F2  D013               	goto	l7269
  7818  0024F4  C02B  FFD9         	movff	_USBInHandle,fsr2l
  7819  0024F8  C02C  FFDA         	movff	_USBInHandle+1,fsr2h
  7820  0024FC  AEDF               	btfss	indf2,7,c
  7821  0024FE  D004               	goto	u8360
  7822  002500  0100               	movlb	0	; () banked
  7823  002502  6B91               	clrf	??_AdcValue& (0+255),b
  7824  002504  2B91               	incf	??_AdcValue& (0+255),f,b
  7825  002506  D002               	goto	u8368
  7826  002508                     u8360:
  7827  002508  0100               	movlb	0	; () banked
  7828  00250A  6B91               	clrf	??_AdcValue& (0+255),b
  7829  00250C                     u8368:
  7830  00250C  0100               	movlb	0	; () banked
  7831  00250E  5191               	movf	??_AdcValue& (0+255),w,b
  7832  002510  0100               	movlb	0	; () banked
  7833  002512  6F92               	movwf	_AdcValue$3344& (0+255),b
  7834  002514  0100               	movlb	0	; () banked
  7835  002516  6B93               	clrf	(_AdcValue$3344+1)& (0+255),b
  7836  002518  D006               	goto	l7271
  7837  00251A                     l7269:
  7838  00251A  0E00               	movlw	0
  7839  00251C  0100               	movlb	0	; () banked
  7840  00251E  6F93               	movwf	(_AdcValue$3344+1)& (0+255),b
  7841  002520  0E00               	movlw	0
  7842  002522  0100               	movlb	0	; () banked
  7843  002524  6F92               	movwf	_AdcValue$3344& (0+255),b
  7844  002526                     l7271:
  7845                           
  7846                           ; BSR set to: 0
  7847  002526  0100               	movlb	0	; () banked
  7848  002528  5193               	movf	(_AdcValue$3344+1)& (0+255),w,b
  7849  00252A  1192               	iorwf	_AdcValue$3344& (0+255),w,b
  7850  00252C  A4D8               	btfss	status,2,c
  7851  00252E  D08C               	goto	l785
  7852                           
  7853                           ; BSR set to: 0
  7854                           ;AccessB.c: 264: ToSendDataBuffer[0] = ADC_VALUE;
  7855  002530  0E07               	movlw	7
  7856  002532  0105               	movlb	5	; () banked
  7857  002534  6F40               	movwf	64,b
  7858                           
  7859                           ; BSR set to: 5
  7860                           ;AccessB.c: 265: ToSendDataBuffer[1] = CONFIRM_CMD;
  7861  002536  0105               	movlb	5	; () banked
  7862  002538  6941               	setf	65,b
  7863                           
  7864                           ; BSR set to: 5
  7865                           ;AccessB.c: 266: USBInHandle = USBTransferOnePacket(1,1,(uint8_t*) & ToSendDataBuffer[0]
      +                          ,64);
  7866  00253A  0E01               	movlw	1
  7867  00253C  0100               	movlb	0	; () banked
  7868  00253E  6F8A               	movwf	USBTransferOnePacket@dir& (0+255),b
  7869  002540  0105               	movlb	5	; () banked
  7870  002542  0E05               	movlw	5
  7871  002544  0100               	movlb	0	; () banked
  7872  002546  6F8C               	movwf	(USBTransferOnePacket@data+1)& (0+255),b
  7873  002548  0105               	movlb	5	; () banked
  7874  00254A  0E40               	movlw	64
  7875  00254C  0100               	movlb	0	; () banked
  7876  00254E  6F8B               	movwf	USBTransferOnePacket@data& (0+255),b
  7877  002550  0E40               	movlw	64
  7878  002552  0100               	movlb	0	; () banked
  7879  002554  6F8D               	movwf	USBTransferOnePacket@len& (0+255),b
  7880  002556  0E01               	movlw	1
  7881  002558  ECA2  F017         	call	_USBTransferOnePacket
  7882  00255C  0100               	movlb	0	; () banked
  7883  00255E  C08A  F02B         	movff	?_USBTransferOnePacket,_USBInHandle
  7884  002562  0100               	movlb	0	; () banked
  7885  002564  C08B  F02C         	movff	?_USBTransferOnePacket+1,_USBInHandle+1
  7886  002568                     l7279:
  7887                           
  7888                           ; BSR set to: 0
  7889  002568  502C               	movf	_USBInHandle+1,w,c
  7890  00256A  102B               	iorwf	_USBInHandle,w,c
  7891  00256C  B4D8               	btfsc	status,2,c
  7892  00256E  D013               	goto	l7283
  7893                           
  7894                           ; BSR set to: 0
  7895  002570  C02B  FFD9         	movff	_USBInHandle,fsr2l
  7896  002574  C02C  FFDA         	movff	_USBInHandle+1,fsr2h
  7897  002578  AEDF               	btfss	indf2,7,c
  7898  00257A  D004               	goto	u8390
  7899  00257C  0100               	movlb	0	; () banked
  7900  00257E  6B91               	clrf	??_AdcValue& (0+255),b
  7901  002580  2B91               	incf	??_AdcValue& (0+255),f,b
  7902  002582  D002               	goto	u8398
  7903  002584                     u8390:
  7904  002584  0100               	movlb	0	; () banked
  7905  002586  6B91               	clrf	??_AdcValue& (0+255),b
  7906  002588                     u8398:
  7907  002588  0100               	movlb	0	; () banked
  7908  00258A  5191               	movf	??_AdcValue& (0+255),w,b
  7909  00258C  0100               	movlb	0	; () banked
  7910  00258E  6F94               	movwf	_AdcValue$3345& (0+255),b
  7911  002590  0100               	movlb	0	; () banked
  7912  002592  6B95               	clrf	(_AdcValue$3345+1)& (0+255),b
  7913  002594  D006               	goto	l7285
  7914  002596                     l7283:
  7915                           
  7916                           ; BSR set to: 0
  7917  002596  0E00               	movlw	0
  7918  002598  0100               	movlb	0	; () banked
  7919  00259A  6F95               	movwf	(_AdcValue$3345+1)& (0+255),b
  7920  00259C  0E00               	movlw	0
  7921  00259E  0100               	movlb	0	; () banked
  7922  0025A0  6F94               	movwf	_AdcValue$3345& (0+255),b
  7923  0025A2                     l7285:
  7924                           
  7925                           ; BSR set to: 0
  7926  0025A2  0100               	movlb	0	; () banked
  7927  0025A4  5195               	movf	(_AdcValue$3345+1)& (0+255),w,b
  7928  0025A6  1194               	iorwf	_AdcValue$3345& (0+255),w,b
  7929  0025A8  A4D8               	btfss	status,2,c
  7930  0025AA  D7DE               	goto	l7279
  7931                           
  7932                           ; BSR set to: 0
  7933                           ;AccessB.c: 270: }
  7934                           ;AccessB.c: 273: if (!(USBInHandle==0?0:((volatile BDT_ENTRY*)USBInHandle)->STAT.UOWN)) 
      +                          {
  7935                           
  7936                           ; BSR set to: 0
  7937  0025AC  502C               	movf	_USBInHandle+1,w,c
  7938  0025AE  102B               	iorwf	_USBInHandle,w,c
  7939  0025B0  B4D8               	btfsc	status,2,c
  7940  0025B2  D013               	goto	l7291
  7941                           
  7942                           ; BSR set to: 0
  7943  0025B4  C02B  FFD9         	movff	_USBInHandle,fsr2l
  7944  0025B8  C02C  FFDA         	movff	_USBInHandle+1,fsr2h
  7945  0025BC  AEDF               	btfss	indf2,7,c
  7946  0025BE  D004               	goto	u8420
  7947  0025C0  0100               	movlb	0	; () banked
  7948  0025C2  6B91               	clrf	??_AdcValue& (0+255),b
  7949  0025C4  2B91               	incf	??_AdcValue& (0+255),f,b
  7950  0025C6  D002               	goto	u8428
  7951  0025C8                     u8420:
  7952  0025C8  0100               	movlb	0	; () banked
  7953  0025CA  6B91               	clrf	??_AdcValue& (0+255),b
  7954  0025CC                     u8428:
  7955  0025CC  0100               	movlb	0	; () banked
  7956  0025CE  5191               	movf	??_AdcValue& (0+255),w,b
  7957  0025D0  0100               	movlb	0	; () banked
  7958  0025D2  6F96               	movwf	_AdcValue$3346& (0+255),b
  7959  0025D4  0100               	movlb	0	; () banked
  7960  0025D6  6B97               	clrf	(_AdcValue$3346+1)& (0+255),b
  7961  0025D8  D006               	goto	l7293
  7962  0025DA                     l7291:
  7963                           
  7964                           ; BSR set to: 0
  7965  0025DA  0E00               	movlw	0
  7966  0025DC  0100               	movlb	0	; () banked
  7967  0025DE  6F97               	movwf	(_AdcValue$3346+1)& (0+255),b
  7968  0025E0  0E00               	movlw	0
  7969  0025E2  0100               	movlb	0	; () banked
  7970  0025E4  6F96               	movwf	_AdcValue$3346& (0+255),b
  7971  0025E6                     l7293:
  7972                           
  7973                           ; BSR set to: 0
  7974  0025E6  0100               	movlb	0	; () banked
  7975  0025E8  5197               	movf	(_AdcValue$3346+1)& (0+255),w,b
  7976  0025EA  1196               	iorwf	_AdcValue$3346& (0+255),w,b
  7977  0025EC  A4D8               	btfss	status,2,c
  7978  0025EE  D02C               	goto	l785
  7979                           
  7980                           ; BSR set to: 0
  7981                           ;AccessB.c: 276: ADCON0bits.CHS = ReceivedDataBuffer[1];
  7982  0025F0  C501 F091          	movff	1281,??_AdcValue
  7983  0025F4  0100               	movlb	0	; () banked
  7984  0025F6  4791               	rlncf	??_AdcValue& (0+255),f,b
  7985  0025F8  4791               	rlncf	??_AdcValue& (0+255),f,b
  7986  0025FA  50C2               	movf	4034,w,c	;volatile
  7987  0025FC  0100               	movlb	0	; () banked
  7988  0025FE  1991               	xorwf	??_AdcValue& (0+255),w,b
  7989  002600  0BC3               	andlw	-61
  7990  002602  1991               	xorwf	??_AdcValue& (0+255),w,b
  7991  002604  6EC2               	movwf	4034,c	;volatile
  7992                           
  7993                           ; BSR set to: 0
  7994                           ;AccessB.c: 277: ADCON0bits.GODONE = 1;
  7995  002606  82C2               	bsf	4034,1,c	;volatile
  7996  002608                     l782:
  7997  002608  B2C2               	btfsc	4034,1,c	;volatile
  7998  00260A  D7FE               	goto	l782
  7999                           
  8000                           ;AccessB.c: 279: }
  8001                           ;AccessB.c: 280: ToSendDataBuffer[0] = ADC_VALUE;
  8002  00260C  0E07               	movlw	7
  8003  00260E  0105               	movlb	5	; () banked
  8004  002610  6F40               	movwf	64,b
  8005                           
  8006                           ; BSR set to: 5
  8007                           ;AccessB.c: 281: ToSendDataBuffer[1] = ADRESL;
  8008  002612  CFC3 F541          	movff	4035,1345	;volatile
  8009                           
  8010                           ; BSR set to: 5
  8011                           ;AccessB.c: 282: ToSendDataBuffer[2] = ADRESH;
  8012  002616  CFC4 F542          	movff	4036,1346	;volatile
  8013                           
  8014                           ; BSR set to: 5
  8015                           ;AccessB.c: 283: USBInHandle = USBTransferOnePacket(1,1,(uint8_t*) & ToSendDataBuffer[0]
      +                          ,64);
  8016  00261A  0E01               	movlw	1
  8017  00261C  0100               	movlb	0	; () banked
  8018  00261E  6F8A               	movwf	USBTransferOnePacket@dir& (0+255),b
  8019  002620  0105               	movlb	5	; () banked
  8020  002622  0E05               	movlw	5
  8021  002624  0100               	movlb	0	; () banked
  8022  002626  6F8C               	movwf	(USBTransferOnePacket@data+1)& (0+255),b
  8023  002628  0105               	movlb	5	; () banked
  8024  00262A  0E40               	movlw	64
  8025  00262C  0100               	movlb	0	; () banked
  8026  00262E  6F8B               	movwf	USBTransferOnePacket@data& (0+255),b
  8027  002630  0E40               	movlw	64
  8028  002632  0100               	movlb	0	; () banked
  8029  002634  6F8D               	movwf	USBTransferOnePacket@len& (0+255),b
  8030  002636  0E01               	movlw	1
  8031  002638  ECA2  F017         	call	_USBTransferOnePacket
  8032  00263C  0100               	movlb	0	; () banked
  8033  00263E  C08A  F02B         	movff	?_USBTransferOnePacket,_USBInHandle
  8034  002642  0100               	movlb	0	; () banked
  8035  002644  C08B  F02C         	movff	?_USBTransferOnePacket+1,_USBInHandle+1
  8036  002648                     l785:
  8037                           
  8038                           ; BSR set to: 0
  8039  002648  0012               	return	
  8040  00264A                     __end_of_AdcValue:
  8041                           	opt stack 0
  8042                           tblptru	equ	0xFF8
  8043                           prodh	equ	0xFF4
  8044                           prodl	equ	0xFF3
  8045                           intcon	equ	0xFF2
  8046                           indf0	equ	0xFEF
  8047                           postinc0	equ	0xFEE
  8048                           fsr0h	equ	0xFEA
  8049                           fsr0l	equ	0xFE9
  8050                           wreg	equ	0xFE8
  8051                           indf2	equ	0xFDF
  8052                           postinc2	equ	0xFDE
  8053                           postdec2	equ	0xFDD
  8054                           fsr2h	equ	0xFDA
  8055                           fsr2l	equ	0xFD9
  8056                           status	equ	0xFD8
  8057                           
  8058 ;; *************** function _USBTransferOnePacket *****************
  8059 ;; Defined at:
  8060 ;;		line 1009 in file "usb_device.c"
  8061 ;; Parameters:    Size  Location     Type
  8062 ;;  ep              1    wreg     unsigned char 
  8063 ;;  dir             1   42[BANK0 ] unsigned char 
  8064 ;;  data            2   43[BANK0 ] PTR unsigned char 
  8065 ;;		 -> ReceivedDataBuffer(64), ToSendDataBuffer(64), 
  8066 ;;  len             1   45[BANK0 ] unsigned char 
  8067 ;; Auto vars:     Size  Location     Type
  8068 ;;  ep              1   46[BANK0 ] unsigned char 
  8069 ;;  handle          2   47[BANK0 ] PTR volatile struct __BD
  8070 ;;		 -> NULL(0), BDT(32), 
  8071 ;; Return value:  Size  Location     Type
  8072 ;;                  2   42[BANK0 ] PTR void 
  8073 ;; Registers used:
  8074 ;;		wreg, fsr2l, fsr2h, status,2, status,0, prodl, prodh
  8075 ;; Tracked objects:
  8076 ;;		On entry : 0/0
  8077 ;;		On exit  : 0/0
  8078 ;;		Unchanged: 0/0
  8079 ;; Data sizes:     COMRAM   BANK0   BANK1   BANK2   BANK3   BANK4  BANK5h   BANK6   BANK7
  8080 ;;      Params:         0       4       0       0       0       0       0       0       0
  8081 ;;      Locals:         0       3       0       0       0       0       0       0       0
  8082 ;;      Temps:          0       0       0       0       0       0       0       0       0
  8083 ;;      Totals:         0       7       0       0       0       0       0       0       0
  8084 ;;Total ram usage:        7 bytes
  8085 ;; Hardware stack levels used:    1
  8086 ;; Hardware stack levels required when called:   12
  8087 ;; This function calls:
  8088 ;;		Nothing
  8089 ;; This function is called by:
  8090 ;;		_APP_DeviceCustomHIDTasks
  8091 ;;		_ReadSfr
  8092 ;;		_WriteSfr
  8093 ;;		_AdcValue
  8094 ;;		_SpiTransference
  8095 ;;		_I2cTransference
  8096 ;;		_SfrReadBitValue
  8097 ;;		_Test
  8098 ;; This function uses a non-reentrant model
  8099 ;;
  8100                           
  8101                           	psect	text22
  8102  002F44                     __ptext22:
  8103                           	opt stack 0
  8104  002F44                     _USBTransferOnePacket:
  8105                           	opt stack 16
  8106                           
  8107                           ; BSR set to: 0
  8108                           ;incstack = 0
  8109                           ;USBTransferOnePacket@ep stored from wreg
  8110  002F44  0100               	movlb	0	; () banked
  8111  002F46  6F8E               	movwf	USBTransferOnePacket@ep& (0+255),b
  8112                           
  8113                           ; BSR set to: 0
  8114                           ;usb_device.c: 1011: volatile BDT_ENTRY* handle;
  8115                           ;usb_device.c: 1014: if(dir != 0)
  8116  002F48  0100               	movlb	0	; () banked
  8117  002F4A  518A               	movf	USBTransferOnePacket@dir& (0+255),w,b
  8118  002F4C  B4D8               	btfsc	status,2,c
  8119  002F4E  D00A               	goto	l6951
  8120                           
  8121                           ; BSR set to: 0
  8122                           ;usb_device.c: 1015: {
  8123                           ;usb_device.c: 1017: handle = pBDTEntryIn[ep];
  8124  002F50  0100               	movlb	0	; () banked
  8125  002F52  518E               	movf	USBTransferOnePacket@ep& (0+255),w,b
  8126  002F54  0D02               	mullw	2
  8127  002F56  0100               	movlb	0	; () banked
  8128  002F58  0EAB               	movlw	low _pBDTEntryIn
  8129  002F5A  24F3               	addwf	prodl,w,c
  8130  002F5C  6ED9               	movwf	fsr2l,c
  8131  002F5E  0100               	movlb	0	; () banked
  8132  002F60  0E00               	movlw	high _pBDTEntryIn
  8133  002F62  D009               	goto	L33
  8134  002F64                     l6951:
  8135                           
  8136                           ; BSR set to: 0
  8137                           ;usb_device.c: 1019: else
  8138                           ;usb_device.c: 1020: {
  8139                           ;usb_device.c: 1022: handle = pBDTEntryOut[ep];
  8140  002F64  0100               	movlb	0	; () banked
  8141  002F66  518E               	movf	USBTransferOnePacket@ep& (0+255),w,b
  8142  002F68  0D02               	mullw	2
  8143  002F6A  0100               	movlb	0	; () banked
  8144  002F6C  0EAF               	movlw	low _pBDTEntryOut
  8145  002F6E  24F3               	addwf	prodl,w,c
  8146  002F70  6ED9               	movwf	fsr2l,c
  8147  002F72  0100               	movlb	0	; () banked
  8148  002F74  0E00               	movlw	high _pBDTEntryOut
  8149  002F76                     L33:
  8150  002F76  20F4               	addwfc	prodh,w,c
  8151  002F78  6EDA               	movwf	fsr2h,c
  8152  002F7A  0100               	movlb	0	; () banked
  8153  002F7C  CFDE F08F          	movff	postinc2,USBTransferOnePacket@handle
  8154  002F80  0100               	movlb	0	; () banked
  8155  002F82  CFDD F090          	movff	postdec2,USBTransferOnePacket@handle+1
  8156                           
  8157                           ; BSR set to: 0
  8158                           ;usb_device.c: 1023: }
  8159                           ;usb_device.c: 1027: if(handle == 0)
  8160                           
  8161                           ; BSR set to: 0
  8162  002F86  0100               	movlb	0	; () banked
  8163  002F88  5190               	movf	(USBTransferOnePacket@handle+1)& (0+255),w,b
  8164  002F8A  118F               	iorwf	USBTransferOnePacket@handle& (0+255),w,b
  8165  002F8C  A4D8               	btfss	status,2,c
  8166  002F8E  D007               	goto	l6959
  8167                           
  8168                           ; BSR set to: 0
  8169                           ;usb_device.c: 1028: {
  8170                           ;usb_device.c: 1029: return 0;
  8171  002F90  0E00               	movlw	0
  8172  002F92  0100               	movlb	0	; () banked
  8173  002F94  6F8B               	movwf	(?_USBTransferOnePacket+1)& (0+255),b
  8174  002F96  0E00               	movlw	0
  8175  002F98  0100               	movlb	0	; () banked
  8176  002F9A  6F8A               	movwf	?_USBTransferOnePacket& (0+255),b
  8177  002F9C  D04E               	goto	l179
  8178  002F9E                     l6959:
  8179                           
  8180                           ; BSR set to: 0
  8181                           ;usb_device.c: 1030: }
  8182                           ;usb_device.c: 1043: handle->ADR = ((uint16_t)(data));
  8183  002F9E  0100               	movlb	0	; () banked
  8184  002FA0  EE20 F002          	lfsr	2,2
  8185  002FA4  0100               	movlb	0	; () banked
  8186  002FA6  518F               	movf	USBTransferOnePacket@handle& (0+255),w,b
  8187  002FA8  26D9               	addwf	fsr2l,f,c
  8188  002FAA  0100               	movlb	0	; () banked
  8189  002FAC  5190               	movf	(USBTransferOnePacket@handle+1)& (0+255),w,b
  8190  002FAE  22DA               	addwfc	fsr2h,f,c
  8191  002FB0  0100               	movlb	0	; () banked
  8192  002FB2  C08B  FFDE         	movff	USBTransferOnePacket@data,postinc2
  8193  002FB6  0100               	movlb	0	; () banked
  8194  002FB8  C08C  FFDD         	movff	USBTransferOnePacket@data+1,postdec2
  8195                           
  8196                           ;usb_device.c: 1044: handle->CNT = len;
  8197  002FBC  0100               	movlb	0	; () banked
  8198  002FBE  EE20 F001          	lfsr	2,1
  8199  002FC2  0100               	movlb	0	; () banked
  8200  002FC4  518F               	movf	USBTransferOnePacket@handle& (0+255),w,b
  8201  002FC6  26D9               	addwf	fsr2l,f,c
  8202  002FC8  0100               	movlb	0	; () banked
  8203  002FCA  5190               	movf	(USBTransferOnePacket@handle+1)& (0+255),w,b
  8204  002FCC  22DA               	addwfc	fsr2h,f,c
  8205  002FCE  0100               	movlb	0	; () banked
  8206  002FD0  C08D  FFDF         	movff	USBTransferOnePacket@len,indf2
  8207                           
  8208                           ; BSR set to: 0
  8209                           ;usb_device.c: 1045: handle->STAT.Val &= 0x40;
  8210  002FD4  C08F  FFD9         	movff	USBTransferOnePacket@handle,fsr2l
  8211  002FD8  C090  FFDA         	movff	USBTransferOnePacket@handle+1,fsr2h
  8212  002FDC  0E40               	movlw	64
  8213  002FDE  16DF               	andwf	indf2,f,c
  8214                           
  8215                           ; BSR set to: 0
  8216                           ;usb_device.c: 1046: handle->STAT.Val |= (0x08 & 0x08);
  8217  002FE0  C08F  FFD9         	movff	USBTransferOnePacket@handle,fsr2l
  8218  002FE4  C090  FFDA         	movff	USBTransferOnePacket@handle+1,fsr2h
  8219  002FE8  0E00               	movlw	0
  8220  002FEA  86DB               	bsf	plusw2,3,c
  8221                           
  8222                           ; BSR set to: 0
  8223                           ;usb_device.c: 1047: handle->STAT.Val |= 0x80;
  8224  002FEC  C08F  FFD9         	movff	USBTransferOnePacket@handle,fsr2l
  8225  002FF0  C090  FFDA         	movff	USBTransferOnePacket@handle+1,fsr2h
  8226  002FF4  0E00               	movlw	0
  8227  002FF6  8EDB               	bsf	plusw2,7,c
  8228                           
  8229                           ; BSR set to: 0
  8230                           ;usb_device.c: 1050: if(dir != 0)
  8231  002FF8  0100               	movlb	0	; () banked
  8232  002FFA  518A               	movf	USBTransferOnePacket@dir& (0+255),w,b
  8233  002FFC  B4D8               	btfsc	status,2,c
  8234  002FFE  D00A               	goto	l6971
  8235                           
  8236                           ; BSR set to: 0
  8237                           ;usb_device.c: 1051: {
  8238                           ;usb_device.c: 1053: {((uint8_t_VAL*)&pBDTEntryIn[ep])->Val ^= 0x0004;};
  8239  003000  0100               	movlb	0	; () banked
  8240  003002  518E               	movf	USBTransferOnePacket@ep& (0+255),w,b
  8241  003004  0D02               	mullw	2
  8242  003006  0100               	movlb	0	; () banked
  8243  003008  0EAB               	movlw	low _pBDTEntryIn
  8244  00300A  24F3               	addwf	prodl,w,c
  8245  00300C  6ED9               	movwf	fsr2l,c
  8246  00300E  0100               	movlb	0	; () banked
  8247  003010  0E00               	movlw	high _pBDTEntryIn
  8248  003012  D009               	goto	L34
  8249  003014                     l6971:
  8250                           
  8251                           ; BSR set to: 0
  8252                           ;usb_device.c: 1055: else
  8253                           ;usb_device.c: 1056: {
  8254                           ;usb_device.c: 1058: {((uint8_t_VAL*)&pBDTEntryOut[ep])->Val ^= 0x0004;};
  8255  003014  0100               	movlb	0	; () banked
  8256  003016  518E               	movf	USBTransferOnePacket@ep& (0+255),w,b
  8257  003018  0D02               	mullw	2
  8258  00301A  0100               	movlb	0	; () banked
  8259  00301C  0EAF               	movlw	low _pBDTEntryOut
  8260  00301E  24F3               	addwf	prodl,w,c
  8261  003020  6ED9               	movwf	fsr2l,c
  8262  003022  0100               	movlb	0	; () banked
  8263  003024  0E00               	movlw	high _pBDTEntryOut
  8264  003026                     L34:
  8265  003026  20F4               	addwfc	prodh,w,c
  8266  003028  6EDA               	movwf	fsr2h,c
  8267  00302A  0E04               	movlw	4
  8268  00302C  1ADF               	xorwf	indf2,f,c
  8269                           
  8270                           ; BSR set to: 0
  8271                           ;usb_device.c: 1059: }
  8272                           ;usb_device.c: 1060: return (void*)handle;
  8273                           
  8274                           ; BSR set to: 0
  8275  00302E  0100               	movlb	0	; () banked
  8276  003030  C090  F08B         	movff	USBTransferOnePacket@handle+1,?_USBTransferOnePacket+1
  8277  003034  0100               	movlb	0	; () banked
  8278  003036  C08F  F08A         	movff	USBTransferOnePacket@handle,?_USBTransferOnePacket
  8279  00303A                     l179:
  8280                           
  8281                           ; BSR set to: 0
  8282  00303A  0012               	return	
  8283  00303C                     __end_of_USBTransferOnePacket:
  8284                           	opt stack 0
  8285                           tblptru	equ	0xFF8
  8286                           prodh	equ	0xFF4
  8287                           prodl	equ	0xFF3
  8288                           intcon	equ	0xFF2
  8289                           indf0	equ	0xFEF
  8290                           postinc0	equ	0xFEE
  8291                           fsr0h	equ	0xFEA
  8292                           fsr0l	equ	0xFE9
  8293                           wreg	equ	0xFE8
  8294                           indf2	equ	0xFDF
  8295                           postinc2	equ	0xFDE
  8296                           postdec2	equ	0xFDD
  8297                           plusw2	equ	0xFDB
  8298                           fsr2h	equ	0xFDA
  8299                           fsr2l	equ	0xFD9
  8300                           status	equ	0xFD8
  8301                           
  8302 ;; *************** function _AdcCfg *****************
  8303 ;; Defined at:
  8304 ;;		line 187 in file "AccessB.c"
  8305 ;; Parameters:    Size  Location     Type
  8306 ;;		None
  8307 ;; Auto vars:     Size  Location     Type
  8308 ;;		None
  8309 ;; Return value:  Size  Location     Type
  8310 ;;		None               void
  8311 ;; Registers used:
  8312 ;;		wreg, status,2, status,0
  8313 ;; Tracked objects:
  8314 ;;		On entry : 0/0
  8315 ;;		On exit  : 0/0
  8316 ;;		Unchanged: 0/0
  8317 ;; Data sizes:     COMRAM   BANK0   BANK1   BANK2   BANK3   BANK4  BANK5h   BANK6   BANK7
  8318 ;;      Params:         0       0       0       0       0       0       0       0       0
  8319 ;;      Locals:         0       0       0       0       0       0       0       0       0
  8320 ;;      Temps:          0       2       0       0       0       0       0       0       0
  8321 ;;      Totals:         0       2       0       0       0       0       0       0       0
  8322 ;;Total ram usage:        2 bytes
  8323 ;; Hardware stack levels used:    1
  8324 ;; Hardware stack levels required when called:   12
  8325 ;; This function calls:
  8326 ;;		Nothing
  8327 ;; This function is called by:
  8328 ;;		_APP_DeviceCustomHIDTasks
  8329 ;; This function uses a non-reentrant model
  8330 ;;
  8331                           
  8332                           	psect	text23
  8333  0033D4                     __ptext23:
  8334                           	opt stack 0
  8335  0033D4                     _AdcCfg:
  8336                           	opt stack 17
  8337                           
  8338                           ;AccessB.c: 189: ADCON0Tmp = ADCON0;
  8339                           
  8340                           ; BSR set to: 0
  8341                           ;incstack = 0
  8342  0033D4  0100               	movlb	0	; () banked
  8343  0033D6  CFC2 F0B3          	movff	4034,_ADCON0Tmp	;volatile
  8344  0033DA  0100               	movlb	0	; () banked
  8345  0033DC  6BB4               	clrf	(_ADCON0Tmp+1)& (0+255),b
  8346                           
  8347                           ;AccessB.c: 190: ADCON2Tmp = ADCON2;
  8348  0033DE  0100               	movlb	0	; () banked
  8349  0033E0  CFC0 F0B5          	movff	4032,_ADCON2Tmp	;volatile
  8350  0033E4  0100               	movlb	0	; () banked
  8351  0033E6  6BB6               	clrf	(_ADCON2Tmp+1)& (0+255),b
  8352                           
  8353                           ; BSR set to: 0
  8354                           ;AccessB.c: 192: ADCON0 = ReceivedDataBuffer[1] | (ADCON0Tmp & 0x03);
  8355  0033E8  0100               	movlb	0	; () banked
  8356  0033EA  51B3               	movf	_ADCON0Tmp& (0+255),w,b
  8357  0033EC  0B03               	andlw	3
  8358  0033EE  0105               	movlb	5	; () banked
  8359  0033F0  1101               	iorwf	1,w,b
  8360  0033F2  6EC2               	movwf	4034,c	;volatile
  8361                           
  8362                           ; BSR set to: 5
  8363                           ;AccessB.c: 193: ADCON1 = ReceivedDataBuffer[2];
  8364  0033F4  C502 FFC1          	movff	1282,4033	;volatile
  8365                           
  8366                           ; BSR set to: 5
  8367                           ;AccessB.c: 194: ADCON2 = ReceivedDataBuffer[3];
  8368  0033F8  C503 FFC0          	movff	1283,4032	;volatile
  8369                           
  8370                           ;AccessB.c: 197: switch (ADCON1 & 0xF) {
  8371  0033FC  D020               	goto	l5041
  8372  0033FE                     l5019:
  8373                           
  8374                           ;AccessB.c: 209: TRISA = 0x2F;
  8375  0033FE  0E2F               	movlw	47
  8376  003400  6E92               	movwf	3986,c	;volatile
  8377                           
  8378                           ;AccessB.c: 210: TRISB = 0x1F;
  8379  003402  0E1F               	movlw	31
  8380  003404  D00F               	goto	L38
  8381  003406                     l5021:
  8382                           
  8383                           ;AccessB.c: 214: TRISA = 0x2F;
  8384  003406  0E2F               	movlw	47
  8385  003408  6E92               	movwf	3986,c	;volatile
  8386                           
  8387                           ;AccessB.c: 215: TRISB = 0x1E;
  8388  00340A  0E1E               	movlw	30
  8389  00340C  D00B               	goto	L38
  8390  00340E                     l5023:
  8391                           
  8392                           ;AccessB.c: 219: TRISA = 0x2F;
  8393  00340E  0E2F               	movlw	47
  8394  003410  6E92               	movwf	3986,c	;volatile
  8395                           
  8396                           ;AccessB.c: 220: TRISB = 0x0D;
  8397  003412  0E0D               	movlw	13
  8398  003414  D007               	goto	L38
  8399  003416                     l5025:
  8400                           
  8401                           ;AccessB.c: 224: TRISA = 0x2F;
  8402  003416  0E2F               	movlw	47
  8403  003418  6E92               	movwf	3986,c	;volatile
  8404                           
  8405                           ;AccessB.c: 225: TRISB = 0x0C;
  8406  00341A  0E0C               	movlw	12
  8407  00341C  D003               	goto	L38
  8408  00341E                     l5027:
  8409                           
  8410                           ;AccessB.c: 229: TRISA = 0x2F;
  8411  00341E  0E2F               	movlw	47
  8412  003420  6E92               	movwf	3986,c	;volatile
  8413                           
  8414                           ;AccessB.c: 230: TRISB = 0x04;
  8415  003422  0E04               	movlw	4
  8416  003424                     L38:
  8417  003424  6E93               	movwf	3987,c	;volatile
  8418                           
  8419                           ;AccessB.c: 231: break;
  8420  003426  D03C               	goto	l762
  8421  003428                     l5029:
  8422                           
  8423                           ;AccessB.c: 234: TRISA = 0x2F;
  8424  003428  0E2F               	movlw	47
  8425  00342A  D007               	goto	L42
  8426  00342C                     l5031:
  8427                           
  8428                           ;AccessB.c: 238: TRISA = 0x0F;
  8429  00342C  0E0F               	movlw	15
  8430  00342E  D005               	goto	L42
  8431  003430                     l5033:
  8432                           
  8433                           ;AccessB.c: 242: TRISA = 0x07;
  8434  003430  0E07               	movlw	7
  8435  003432  D003               	goto	L42
  8436  003434                     l5035:
  8437                           
  8438                           ;AccessB.c: 246: TRISA = 0x03;
  8439  003434  0E03               	movlw	3
  8440  003436  D001               	goto	L42
  8441  003438                     l5037:
  8442                           
  8443                           ;AccessB.c: 250: TRISA = 0x01;
  8444  003438  0E01               	movlw	1
  8445  00343A                     L42:
  8446  00343A  6E92               	movwf	3986,c	;volatile
  8447                           
  8448                           ;AccessB.c: 251: break;
  8449  00343C  D031               	goto	l762
  8450  00343E                     l5041:
  8451  00343E  50C1               	movf	4033,w,c	;volatile
  8452  003440  0B0F               	andlw	15
  8453  003442  0100               	movlb	0	; () banked
  8454  003444  6F8A               	movwf	??_AdcCfg& (0+255),b
  8455  003446  6B8B               	clrf	(??_AdcCfg+1)& (0+255),b
  8456                           
  8457                           ; Switch on 2 bytes has been partitioned into a top level switch of size 1, and 1 sub-sw
      +                          itches
  8458                           ; Switch size 1, requested type "space"
  8459                           ; Number of cases is 1, Range of values is 0 to 0
  8460                           ; switch strategies available:
  8461                           ; Name         Instructions Cycles
  8462                           ; simple_byte            4     3 (average)
  8463                           ;	Chosen strategy is simple_byte
  8464  003448  0100               	movlb	0	; () banked
  8465  00344A  518B               	movf	(??_AdcCfg+1)& (0+255),w,b
  8466  00344C  0A00               	xorlw	0	; case 0
  8467  00344E  A4D8               	btfss	status,2,c
  8468  003450  D027               	goto	l762
  8469                           
  8470                           ; BSR set to: 0
  8471                           ; Switch size 1, requested type "space"
  8472                           ; Number of cases is 13, Range of values is 0 to 15
  8473                           ; switch strategies available:
  8474                           ; Name         Instructions Cycles
  8475                           ; simple_byte           40    21 (average)
  8476                           ;	Chosen strategy is simple_byte
  8477  003452  0100               	movlb	0	; () banked
  8478  003454  518A               	movf	??_AdcCfg& (0+255),w,b
  8479  003456  0A00               	xorlw	0	; case 0
  8480  003458  B4D8               	btfsc	status,2,c
  8481  00345A  D7D1               	goto	l5019
  8482  00345C  0A01               	xorlw	1	; case 1
  8483  00345E  B4D8               	btfsc	status,2,c
  8484  003460  D7CE               	goto	l5019
  8485  003462  0A03               	xorlw	3	; case 2
  8486  003464  B4D8               	btfsc	status,2,c
  8487  003466  D7CB               	goto	l5019
  8488  003468  0A01               	xorlw	1	; case 3
  8489  00346A  B4D8               	btfsc	status,2,c
  8490  00346C  D7CC               	goto	l5021
  8491  00346E  0A07               	xorlw	7	; case 4
  8492  003470  B4D8               	btfsc	status,2,c
  8493  003472  D7CD               	goto	l5023
  8494  003474  0A01               	xorlw	1	; case 5
  8495  003476  B4D8               	btfsc	status,2,c
  8496  003478  D7CE               	goto	l5025
  8497  00347A  0A03               	xorlw	3	; case 6
  8498  00347C  B4D8               	btfsc	status,2,c
  8499  00347E  D7CF               	goto	l5027
  8500  003480  0A0C               	xorlw	12	; case 10
  8501  003482  B4D8               	btfsc	status,2,c
  8502  003484  D7D1               	goto	l5029
  8503  003486  0A01               	xorlw	1	; case 11
  8504  003488  B4D8               	btfsc	status,2,c
  8505  00348A  D7D0               	goto	l5031
  8506  00348C  0A07               	xorlw	7	; case 12
  8507  00348E  B4D8               	btfsc	status,2,c
  8508  003490  D7CF               	goto	l5033
  8509  003492  0A01               	xorlw	1	; case 13
  8510  003494  B4D8               	btfsc	status,2,c
  8511  003496  D7CE               	goto	l5035
  8512  003498  0A03               	xorlw	3	; case 14
  8513  00349A  B4D8               	btfsc	status,2,c
  8514  00349C  D7CD               	goto	l5037
  8515  00349E  0A01               	xorlw	1	; case 15
  8516  0034A0                     l762:
  8517  0034A0  0012               	return	
  8518  0034A2                     __end_of_AdcCfg:
  8519                           	opt stack 0
  8520                           tblptru	equ	0xFF8
  8521                           prodh	equ	0xFF4
  8522                           prodl	equ	0xFF3
  8523                           intcon	equ	0xFF2
  8524                           indf0	equ	0xFEF
  8525                           postinc0	equ	0xFEE
  8526                           fsr0h	equ	0xFEA
  8527                           fsr0l	equ	0xFE9
  8528                           wreg	equ	0xFE8
  8529                           indf2	equ	0xFDF
  8530                           postinc2	equ	0xFDE
  8531                           postdec2	equ	0xFDD
  8532                           plusw2	equ	0xFDB
  8533                           fsr2h	equ	0xFDA
  8534                           fsr2l	equ	0xFD9
  8535                           status	equ	0xFD8
  8536                           
  8537 ;; *************** function _AdcBufferedRead *****************
  8538 ;; Defined at:
  8539 ;;		line 1084 in file "AccessB.c"
  8540 ;; Parameters:    Size  Location     Type
  8541 ;;		None
  8542 ;; Auto vars:     Size  Location     Type
  8543 ;;		None
  8544 ;; Return value:  Size  Location     Type
  8545 ;;		None               void
  8546 ;; Registers used:
  8547 ;;		wreg, status,2, status,0
  8548 ;; Tracked objects:
  8549 ;;		On entry : 0/0
  8550 ;;		On exit  : 0/0
  8551 ;;		Unchanged: 0/0
  8552 ;; Data sizes:     COMRAM   BANK0   BANK1   BANK2   BANK3   BANK4  BANK5h   BANK6   BANK7
  8553 ;;      Params:         0       0       0       0       0       0       0       0       0
  8554 ;;      Locals:         0       0       0       0       0       0       0       0       0
  8555 ;;      Temps:          0       0       0       0       0       0       0       0       0
  8556 ;;      Totals:         0       0       0       0       0       0       0       0       0
  8557 ;;Total ram usage:        0 bytes
  8558 ;; Hardware stack levels used:    1
  8559 ;; Hardware stack levels required when called:   12
  8560 ;; This function calls:
  8561 ;;		Nothing
  8562 ;; This function is called by:
  8563 ;;		_APP_DeviceCustomHIDTasks
  8564 ;; This function uses a non-reentrant model
  8565 ;;
  8566                           
  8567                           	psect	text24
  8568  003300                     __ptext24:
  8569                           	opt stack 0
  8570  003300                     _AdcBufferedRead:
  8571                           	opt stack 17
  8572                           
  8573                           ;AccessB.c: 1086: if(ReceivedDataBuffer[1] == ADC_START)
  8574                           
  8575                           ;incstack = 0
  8576  003300  0105               	movlb	5	; () banked
  8577  003302  5101               	movf	1,w,b
  8578  003304  0AFB               	xorlw	251
  8579  003306  A4D8               	btfss	status,2,c
  8580  003308  D05B               	goto	l5587
  8581                           
  8582                           ; BSR set to: 5
  8583                           ;AccessB.c: 1087: {
  8584                           ;AccessB.c: 1088: PIR1bits.ADIF = 0;
  8585  00330A  9C9E               	bcf	3998,6,c	;volatile
  8586                           
  8587                           ;AccessB.c: 1089: PIE1bits.ADIE = 1;
  8588  00330C  8C9D               	bsf	3997,6,c	;volatile
  8589                           
  8590                           ;AccessB.c: 1090: INTCONbits.PEIE = 1;
  8591  00330E  8CF2               	bsf	intcon,6,c	;volatile
  8592                           
  8593                           ; BSR set to: 5
  8594                           ;AccessB.c: 1091: BufferCounter = 0;
  8595  003310  0E00               	movlw	0
  8596  003312  6E2A               	movwf	_BufferCounter+1,c	;volatile
  8597  003314  0E00               	movlw	0
  8598  003316  6E29               	movwf	_BufferCounter,c	;volatile
  8599                           
  8600                           ;AccessB.c: 1092: BufferPingPong = 0;
  8601  003318  0E00               	movlw	0
  8602  00331A  0100               	movlb	0	; () banked
  8603  00331C  6FB8               	movwf	(_BufferPingPong+1)& (0+255),b	;volatile
  8604  00331E  0E00               	movlw	0
  8605  003320  0100               	movlb	0	; () banked
  8606  003322  6FB7               	movwf	_BufferPingPong& (0+255),b	;volatile
  8607                           
  8608                           ;AccessB.c: 1093: switch (ReceivedDataBuffer[1]) {
  8609  003324  D02A               	goto	l5585
  8610  003326                     l1106:
  8611                           
  8612                           ; BSR set to: 5
  8613                           ;AccessB.c: 1095: ADCON0bits.CHS = 0;
  8614  003326  94C2               	bcf	4034,2,c	;volatile
  8615  003328  96C2               	bcf	4034,3,c	;volatile
  8616  00332A  98C2               	bcf	4034,4,c	;volatile
  8617  00332C  9AC2               	bcf	4034,5,c	;volatile
  8618                           
  8619                           ;AccessB.c: 1096: break;
  8620  00332E  D045               	goto	l1107
  8621  003330                     l5565:
  8622                           
  8623                           ; BSR set to: 5
  8624                           ;AccessB.c: 1098: ADCON0bits.CHS = 1;
  8625  003330  50C2               	movf	4034,w,c	;volatile
  8626  003332  0BC3               	andlw	-61
  8627  003334  0904               	iorlw	4
  8628  003336  D01F               	goto	L50
  8629  003338                     l5567:
  8630                           
  8631                           ; BSR set to: 5
  8632                           ;AccessB.c: 1101: ADCON0bits.CHS = 2;
  8633  003338  50C2               	movf	4034,w,c	;volatile
  8634  00333A  0BC3               	andlw	-61
  8635  00333C  0908               	iorlw	8
  8636  00333E  D01B               	goto	L50
  8637  003340                     l5569:
  8638                           
  8639                           ; BSR set to: 5
  8640                           ;AccessB.c: 1104: ADCON0bits.CHS = 3;
  8641  003340  50C2               	movf	4034,w,c	;volatile
  8642  003342  0BC3               	andlw	-61
  8643  003344  090C               	iorlw	12
  8644  003346  D017               	goto	L50
  8645  003348                     l5571:
  8646                           
  8647                           ; BSR set to: 5
  8648                           ;AccessB.c: 1107: ADCON0bits.CHS = 4;
  8649  003348  50C2               	movf	4034,w,c	;volatile
  8650  00334A  0BC3               	andlw	-61
  8651  00334C  0910               	iorlw	16
  8652  00334E  D013               	goto	L50
  8653  003350                     l5573:
  8654                           
  8655                           ; BSR set to: 5
  8656                           ;AccessB.c: 1110: ADCON0bits.CHS = 8;
  8657  003350  50C2               	movf	4034,w,c	;volatile
  8658  003352  0BC3               	andlw	-61
  8659  003354  0920               	iorlw	32
  8660  003356  D00F               	goto	L50
  8661  003358                     l5575:
  8662                           
  8663                           ; BSR set to: 5
  8664                           ;AccessB.c: 1113: ADCON0bits.CHS = 9;
  8665  003358  50C2               	movf	4034,w,c	;volatile
  8666  00335A  0BC3               	andlw	-61
  8667  00335C  0924               	iorlw	36
  8668  00335E  D00B               	goto	L50
  8669  003360                     l5577:
  8670                           
  8671                           ; BSR set to: 5
  8672                           ;AccessB.c: 1116: ADCON0bits.CHS = 10;
  8673  003360  50C2               	movf	4034,w,c	;volatile
  8674  003362  0BC3               	andlw	-61
  8675  003364  0928               	iorlw	40
  8676  003366  D007               	goto	L50
  8677  003368                     l5579:
  8678                           
  8679                           ; BSR set to: 5
  8680                           ;AccessB.c: 1119: ADCON0bits.CHS = 11;
  8681  003368  50C2               	movf	4034,w,c	;volatile
  8682  00336A  0BC3               	andlw	-61
  8683  00336C  092C               	iorlw	44
  8684  00336E  D003               	goto	L50
  8685  003370                     l5581:
  8686                           
  8687                           ; BSR set to: 5
  8688                           ;AccessB.c: 1122: ADCON0bits.CHS = 12;
  8689  003370  50C2               	movf	4034,w,c	;volatile
  8690  003372  0BC3               	andlw	-61
  8691  003374  0930               	iorlw	48
  8692  003376                     L50:
  8693  003376  6EC2               	movwf	4034,c	;volatile
  8694                           
  8695                           ;AccessB.c: 1123: break;
  8696  003378  D020               	goto	l1107
  8697  00337A                     l5585:
  8698  00337A  0105               	movlb	5	; () banked
  8699  00337C  5101               	movf	1,w,b
  8700                           
  8701                           ; Switch size 1, requested type "space"
  8702                           ; Number of cases is 10, Range of values is 0 to 12
  8703                           ; switch strategies available:
  8704                           ; Name         Instructions Cycles
  8705                           ; simple_byte           31    16 (average)
  8706                           ;	Chosen strategy is simple_byte
  8707  00337E  0A00               	xorlw	0	; case 0
  8708  003380  B4D8               	btfsc	status,2,c
  8709  003382  D7D1               	goto	l1106
  8710  003384  0A01               	xorlw	1	; case 1
  8711  003386  B4D8               	btfsc	status,2,c
  8712  003388  D7D3               	goto	l5565
  8713  00338A  0A03               	xorlw	3	; case 2
  8714  00338C  B4D8               	btfsc	status,2,c
  8715  00338E  D7D4               	goto	l5567
  8716  003390  0A01               	xorlw	1	; case 3
  8717  003392  B4D8               	btfsc	status,2,c
  8718  003394  D7D5               	goto	l5569
  8719  003396  0A07               	xorlw	7	; case 4
  8720  003398  B4D8               	btfsc	status,2,c
  8721  00339A  D7D6               	goto	l5571
  8722  00339C  0A0C               	xorlw	12	; case 8
  8723  00339E  B4D8               	btfsc	status,2,c
  8724  0033A0  D7D7               	goto	l5573
  8725  0033A2  0A01               	xorlw	1	; case 9
  8726  0033A4  B4D8               	btfsc	status,2,c
  8727  0033A6  D7D8               	goto	l5575
  8728  0033A8  0A03               	xorlw	3	; case 10
  8729  0033AA  B4D8               	btfsc	status,2,c
  8730  0033AC  D7D9               	goto	l5577
  8731  0033AE  0A01               	xorlw	1	; case 11
  8732  0033B0  B4D8               	btfsc	status,2,c
  8733  0033B2  D7DA               	goto	l5579
  8734  0033B4  0A07               	xorlw	7	; case 12
  8735  0033B6  B4D8               	btfsc	status,2,c
  8736  0033B8  D7DB               	goto	l5581
  8737  0033BA                     l1107:
  8738                           
  8739                           ; BSR set to: 5
  8740                           ;AccessB.c: 1125: ADCON0bits.ADON = 1;
  8741  0033BA  80C2               	bsf	4034,0,c	;volatile
  8742                           
  8743                           ;AccessB.c: 1126: ADCON0bits.GODONE = 1;
  8744  0033BC  82C2               	bsf	4034,1,c	;volatile
  8745                           
  8746                           ;AccessB.c: 1143: }
  8747  0033BE  D009               	goto	l1119
  8748  0033C0                     l5587:
  8749                           
  8750                           ; BSR set to: 5
  8751                           ;AccessB.c: 1144: else if(ReceivedDataBuffer[1] == ADC_STOP)
  8752  0033C0  0105               	movlb	5	; () banked
  8753  0033C2  5101               	movf	1,w,b
  8754  0033C4  0AFA               	xorlw	250
  8755  0033C6  A4D8               	btfss	status,2,c
  8756  0033C8  D004               	goto	l1119
  8757                           
  8758                           ; BSR set to: 5
  8759                           ;AccessB.c: 1145: {
  8760                           ;AccessB.c: 1146: ADCON0bits.ADON = 0;
  8761  0033CA  90C2               	bcf	4034,0,c	;volatile
  8762                           
  8763                           ;AccessB.c: 1147: PIE1bits.ADIE = 0;
  8764  0033CC  9C9D               	bcf	3997,6,c	;volatile
  8765                           
  8766                           ;AccessB.c: 1148: PIR1bits.ADIF = 0;
  8767  0033CE  9C9E               	bcf	3998,6,c	;volatile
  8768                           
  8769                           ;AccessB.c: 1149: INTCONbits.PEIE =0;
  8770  0033D0  9CF2               	bcf	intcon,6,c	;volatile
  8771  0033D2                     l1119:
  8772                           
  8773                           ; BSR set to: 5
  8774  0033D2  0012               	return	
  8775  0033D4                     __end_of_AdcBufferedRead:
  8776                           	opt stack 0
  8777                           tblptru	equ	0xFF8
  8778                           prodh	equ	0xFF4
  8779                           prodl	equ	0xFF3
  8780                           intcon	equ	0xFF2
  8781                           indf0	equ	0xFEF
  8782                           postinc0	equ	0xFEE
  8783                           fsr0h	equ	0xFEA
  8784                           fsr0l	equ	0xFE9
  8785                           wreg	equ	0xFE8
  8786                           indf2	equ	0xFDF
  8787                           postinc2	equ	0xFDE
  8788                           postdec2	equ	0xFDD
  8789                           plusw2	equ	0xFDB
  8790                           fsr2h	equ	0xFDA
  8791                           fsr2l	equ	0xFD9
  8792                           status	equ	0xFD8
  8793                           
  8794 ;; *************** function _ISRLowPriority *****************
  8795 ;; Defined at:
  8796 ;;		line 111 in file "system.c"
  8797 ;; Parameters:    Size  Location     Type
  8798 ;;		None
  8799 ;; Auto vars:     Size  Location     Type
  8800 ;;		None
  8801 ;; Return value:  Size  Location     Type
  8802 ;;		None               void
  8803 ;; Registers used:
  8804 ;;		wreg, fsr2l, fsr2h, status,2, status,0, prodl, prodh, cstack
  8805 ;; Tracked objects:
  8806 ;;		On entry : 0/0
  8807 ;;		On exit  : 0/0
  8808 ;;		Unchanged: 0/0
  8809 ;; Data sizes:     COMRAM   BANK0   BANK1   BANK2   BANK3   BANK4  BANK5h   BANK6   BANK7
  8810 ;;      Params:         0       0       0       0       0       0       0       0       0
  8811 ;;      Locals:         2       0       0       0       0       0       0       0       0
  8812 ;;      Temps:         19       0       0       0       0       0       0       0       0
  8813 ;;      Totals:        21       0       0       0       0       0       0       0       0
  8814 ;;Total ram usage:       21 bytes
  8815 ;; Hardware stack levels used:    1
  8816 ;; Hardware stack levels required when called:   11
  8817 ;; This function calls:
  8818 ;;		i1_USBTransferOnePacket
  8819 ;; This function is called by:
  8820 ;;		Interrupt level 1
  8821 ;; This function uses a non-reentrant model
  8822 ;;
  8823                           
  8824                           	psect	intcodelo
  8825  000018                     __pintcodelo:
  8826                           	opt stack 0
  8827  000018                     _ISRLowPriority:
  8828                           	opt stack 16
  8829                           
  8830                           ; BSR set to: 5
  8831                           ;incstack = 0
  8832  000018  CFD8 F00A          	movff	status,??_ISRLowPriority+2
  8833  00001C  CFE8 F00B          	movff	wreg,??_ISRLowPriority+3
  8834  000020  CFE0 F00C          	movff	bsr,??_ISRLowPriority+4
  8835  000024  CFFA F00D          	movff	pclath,??_ISRLowPriority+5
  8836  000028  CFFB F00E          	movff	pclatu,??_ISRLowPriority+6
  8837  00002C  CFE9 F00F          	movff	fsr0l,??_ISRLowPriority+7
  8838  000030  CFEA F010          	movff	fsr0h,??_ISRLowPriority+8
  8839  000034  CFE1 F011          	movff	fsr1l,??_ISRLowPriority+9
  8840  000038  CFE2 F012          	movff	fsr1h,??_ISRLowPriority+10
  8841  00003C  CFD9 F013          	movff	fsr2l,??_ISRLowPriority+11
  8842  000040  CFDA F014          	movff	fsr2h,??_ISRLowPriority+12
  8843  000044  CFF3 F015          	movff	prodl,??_ISRLowPriority+13
  8844  000048  CFF4 F016          	movff	prodh,??_ISRLowPriority+14
  8845  00004C  CFF6 F017          	movff	tblptrl,??_ISRLowPriority+15
  8846  000050  CFF7 F018          	movff	tblptrh,??_ISRLowPriority+16
  8847  000054  CFF8 F019          	movff	tblptru,??_ISRLowPriority+17
  8848  000058  CFF5 F01A          	movff	tablat,??_ISRLowPriority+18
  8849                           
  8850                           ;system.c: 114: if(PIE1bits.ADIE && PIR1bits.ADIF)
  8851  00005C  BC9D               	btfsc	3997,6,c	;volatile
  8852  00005E  AC9E               	btfss	3998,6,c	;volatile
  8853  000060  D079               	goto	i1l476
  8854                           
  8855                           ;system.c: 115: {
  8856                           ;system.c: 116: if(BufferCounter + 1 == 61)
  8857  000062  0E01               	movlw	1
  8858  000064  2429               	addwf	_BufferCounter,w,c	;volatile
  8859  000066  6E08               	movwf	??_ISRLowPriority& (0+255),c
  8860  000068  0E00               	movlw	0
  8861  00006A  202A               	addwfc	_BufferCounter+1,w,c	;volatile
  8862  00006C  6E09               	movwf	(??_ISRLowPriority+1)& (0+255),c
  8863  00006E  5008               	movf	??_ISRLowPriority,w,c
  8864  000070  0A3D               	xorlw	61
  8865  000072  1009               	iorwf	??_ISRLowPriority+1,w,c
  8866  000074  A4D8               	btfss	status,2,c
  8867  000076  D04C               	goto	i1l6229
  8868                           
  8869                           ;system.c: 117: {
  8870                           ;system.c: 118: if(!(USBInHandle==0?0:((volatile BDT_ENTRY*)USBInHandle)->STAT.UOWN))
  8871  000078  502C               	movf	_USBInHandle+1,w,c
  8872  00007A  102B               	iorwf	_USBInHandle,w,c
  8873  00007C  B4D8               	btfsc	status,2,c
  8874  00007E  D00E               	goto	i1l6209
  8875  000080  C02B  FFD9         	movff	_USBInHandle,fsr2l
  8876  000084  C02C  FFDA         	movff	_USBInHandle+1,fsr2h
  8877  000088  AEDF               	btfss	indf2,7,c
  8878  00008A  D003               	goto	i1u708_20
  8879  00008C  6A08               	clrf	??_ISRLowPriority& (0+255),c
  8880  00008E  2A08               	incf	??_ISRLowPriority& (0+255),f,c
  8881  000090  D001               	goto	i1u708_28
  8882  000092                     i1u708_20:
  8883  000092  6A08               	clrf	??_ISRLowPriority& (0+255),c
  8884  000094                     i1u708_28:
  8885  000094  5008               	movf	??_ISRLowPriority,w,c
  8886  000096  6E1B               	movwf	_ISRLowPriority$1906,c
  8887  000098  6A1C               	clrf	_ISRLowPriority$1906+1,c
  8888  00009A  D004               	goto	i1l6211
  8889  00009C                     i1l6209:
  8890  00009C  0E00               	movlw	0
  8891  00009E  6E1C               	movwf	_ISRLowPriority$1906+1,c
  8892  0000A0  0E00               	movlw	0
  8893  0000A2  6E1B               	movwf	_ISRLowPriority$1906,c
  8894  0000A4                     i1l6211:
  8895  0000A4  501C               	movf	_ISRLowPriority$1906+1,w,c
  8896  0000A6  101B               	iorwf	_ISRLowPriority$1906,w,c
  8897  0000A8  A4D8               	btfss	status,2,c
  8898  0000AA  D054               	goto	i1l476
  8899                           
  8900                           ;system.c: 119: {
  8901                           ;system.c: 120: ToSendDataBuffer[BufferCounter] = ADRESL;
  8902  0000AC  0105               	movlb	5	; () banked
  8903  0000AE  0E40               	movlw	64
  8904  0000B0  2429               	addwf	_BufferCounter,w,c	;volatile
  8905  0000B2  6ED9               	movwf	fsr2l,c
  8906  0000B4  0105               	movlb	5	; () banked
  8907  0000B6  0E05               	movlw	5
  8908  0000B8  202A               	addwfc	_BufferCounter+1,w,c	;volatile
  8909  0000BA  6EDA               	movwf	fsr2h,c
  8910  0000BC  CFC3 FFDF          	movff	4035,indf2	;volatile
  8911                           
  8912                           ;system.c: 121: ToSendDataBuffer[BufferCounter + 1] = ADRESH;
  8913  0000C0  0E01               	movlw	1
  8914  0000C2  2429               	addwf	_BufferCounter,w,c	;volatile
  8915  0000C4  6E08               	movwf	??_ISRLowPriority& (0+255),c
  8916  0000C6  0E00               	movlw	0
  8917  0000C8  202A               	addwfc	_BufferCounter+1,w,c	;volatile
  8918  0000CA  6E09               	movwf	(??_ISRLowPriority+1)& (0+255),c
  8919  0000CC  0105               	movlb	5	; () banked
  8920  0000CE  0E40               	movlw	64
  8921  0000D0  2408               	addwf	??_ISRLowPriority,w,c
  8922  0000D2  6ED9               	movwf	fsr2l,c
  8923  0000D4  0105               	movlb	5	; () banked
  8924  0000D6  0E05               	movlw	5
  8925  0000D8  2009               	addwfc	??_ISRLowPriority+1,w,c
  8926  0000DA  6EDA               	movwf	fsr2h,c
  8927  0000DC  CFC4 FFDF          	movff	4036,indf2	;volatile
  8928                           
  8929                           ; BSR set to: 5
  8930                           ;system.c: 122: ToSendDataBuffer[63] = 255;
  8931  0000E0  0105               	movlb	5	; () banked
  8932  0000E2  697F               	setf	127,b
  8933                           
  8934                           ; BSR set to: 5
  8935                           ;system.c: 123: USBInHandle = USBTransferOnePacket(1,1,(uint8_t*) & ToSendDataBuffer[0],
      +                          64);
  8936  0000E4  0E01               	movlw	1
  8937  0000E6  6E01               	movwf	i1USBTransferOnePacket@dir,c
  8938  0000E8  0105               	movlb	5	; () banked
  8939  0000EA  0E05               	movlw	5
  8940  0000EC  6E03               	movwf	i1USBTransferOnePacket@data+1,c
  8941  0000EE  0105               	movlb	5	; () banked
  8942  0000F0  0E40               	movlw	64
  8943  0000F2  6E02               	movwf	i1USBTransferOnePacket@data,c
  8944  0000F4  0E40               	movlw	64
  8945  0000F6  6E04               	movwf	i1USBTransferOnePacket@len,c
  8946  0000F8  0E01               	movlw	1
  8947  0000FA  EC51  F01A         	call	i1_USBTransferOnePacket
  8948  0000FE  C001  F02B         	movff	?i1_USBTransferOnePacket,_USBInHandle
  8949  000102  C002  F02C         	movff	?i1_USBTransferOnePacket+1,_USBInHandle+1
  8950                           
  8951                           ;system.c: 124: BufferCounter = 0;
  8952  000106  0E00               	movlw	0
  8953  000108  6E2A               	movwf	_BufferCounter+1,c	;volatile
  8954  00010A  0E00               	movlw	0
  8955  00010C  6E29               	movwf	_BufferCounter,c	;volatile
  8956  00010E  D020               	goto	L51
  8957  000110                     i1l6229:
  8958                           
  8959                           ;system.c: 134: else
  8960                           ;system.c: 135: {
  8961                           ;system.c: 136: ToSendDataBuffer[BufferCounter] = ADRESL;
  8962  000110  0105               	movlb	5	; () banked
  8963  000112  0E40               	movlw	64
  8964  000114  2429               	addwf	_BufferCounter,w,c	;volatile
  8965  000116  6ED9               	movwf	fsr2l,c
  8966  000118  0105               	movlb	5	; () banked
  8967  00011A  0E05               	movlw	5
  8968  00011C  202A               	addwfc	_BufferCounter+1,w,c	;volatile
  8969  00011E  6EDA               	movwf	fsr2h,c
  8970  000120  CFC3 FFDF          	movff	4035,indf2	;volatile
  8971                           
  8972                           ;system.c: 137: ToSendDataBuffer[BufferCounter + 1] = ADRESH;
  8973  000124  0E01               	movlw	1
  8974  000126  2429               	addwf	_BufferCounter,w,c	;volatile
  8975  000128  6E08               	movwf	??_ISRLowPriority& (0+255),c
  8976  00012A  0E00               	movlw	0
  8977  00012C  202A               	addwfc	_BufferCounter+1,w,c	;volatile
  8978  00012E  6E09               	movwf	(??_ISRLowPriority+1)& (0+255),c
  8979  000130  0105               	movlb	5	; () banked
  8980  000132  0E40               	movlw	64
  8981  000134  2408               	addwf	??_ISRLowPriority,w,c
  8982  000136  6ED9               	movwf	fsr2l,c
  8983  000138  0105               	movlb	5	; () banked
  8984  00013A  0E05               	movlw	5
  8985  00013C  2009               	addwfc	??_ISRLowPriority+1,w,c
  8986  00013E  6EDA               	movwf	fsr2h,c
  8987  000140  CFC4 FFDF          	movff	4036,indf2	;volatile
  8988                           
  8989                           ; BSR set to: 5
  8990                           ;system.c: 138: BufferCounter = BufferCounter + 2;
  8991  000144  0E02               	movlw	2
  8992  000146  2429               	addwf	_BufferCounter,w,c	;volatile
  8993  000148  6E29               	movwf	_BufferCounter,c	;volatile
  8994  00014A  0E00               	movlw	0
  8995  00014C  202A               	addwfc	_BufferCounter+1,w,c	;volatile
  8996  00014E  6E2A               	movwf	_BufferCounter+1,c	;volatile
  8997  000150                     L51:
  8998                           
  8999                           ; BSR set to: 5
  9000                           ;system.c: 139: PIR1bits.ADIF = 0;
  9001  000150  9C9E               	bcf	3998,6,c	;volatile
  9002                           
  9003                           ; BSR set to: 5
  9004                           ;system.c: 140: ADCON0bits.GODONE =1;
  9005  000152  82C2               	bsf	4034,1,c	;volatile
  9006  000154                     i1l476:
  9007  000154  C01A  FFF5         	movff	??_ISRLowPriority+18,tablat
  9008  000158  C019  FFF8         	movff	??_ISRLowPriority+17,tblptru
  9009  00015C  C018  FFF7         	movff	??_ISRLowPriority+16,tblptrh
  9010  000160  C017  FFF6         	movff	??_ISRLowPriority+15,tblptrl
  9011  000164  C016  FFF4         	movff	??_ISRLowPriority+14,prodh
  9012  000168  C015  FFF3         	movff	??_ISRLowPriority+13,prodl
  9013  00016C  C014  FFDA         	movff	??_ISRLowPriority+12,fsr2h
  9014  000170  C013  FFD9         	movff	??_ISRLowPriority+11,fsr2l
  9015  000174  C012  FFE2         	movff	??_ISRLowPriority+10,fsr1h
  9016  000178  C011  FFE1         	movff	??_ISRLowPriority+9,fsr1l
  9017  00017C  C010  FFEA         	movff	??_ISRLowPriority+8,fsr0h
  9018  000180  C00F  FFE9         	movff	??_ISRLowPriority+7,fsr0l
  9019  000184  C00E  FFFB         	movff	??_ISRLowPriority+6,pclatu
  9020  000188  C00D  FFFA         	movff	??_ISRLowPriority+5,pclath
  9021  00018C  C00C  FFE0         	movff	??_ISRLowPriority+4,bsr
  9022  000190  C00B  FFE8         	movff	??_ISRLowPriority+3,wreg
  9023  000194  C00A  FFD8         	movff	??_ISRLowPriority+2,status
  9024  000198  0010               	retfie	
  9025  00019A                     __end_of_ISRLowPriority:
  9026                           	opt stack 0
  9027                           pclatu	equ	0xFFB
  9028                           pclath	equ	0xFFA
  9029                           tblptru	equ	0xFF8
  9030                           tblptrh	equ	0xFF7
  9031                           tblptrl	equ	0xFF6
  9032                           tablat	equ	0xFF5
  9033                           prodh	equ	0xFF4
  9034                           prodl	equ	0xFF3
  9035                           intcon	equ	0xFF2
  9036                           indf0	equ	0xFEF
  9037                           postinc0	equ	0xFEE
  9038                           fsr0h	equ	0xFEA
  9039                           fsr0l	equ	0xFE9
  9040                           wreg	equ	0xFE8
  9041                           fsr1h	equ	0xFE2
  9042                           fsr1l	equ	0xFE1
  9043                           bsr	equ	0xFE0
  9044                           indf2	equ	0xFDF
  9045                           postinc2	equ	0xFDE
  9046                           postdec2	equ	0xFDD
  9047                           plusw2	equ	0xFDB
  9048                           fsr2h	equ	0xFDA
  9049                           fsr2l	equ	0xFD9
  9050                           status	equ	0xFD8
  9051                           
  9052 ;; *************** function i1_USBTransferOnePacket *****************
  9053 ;; Defined at:
  9054 ;;		line 1009 in file "usb_device.c"
  9055 ;; Parameters:    Size  Location     Type
  9056 ;;  ep              1    wreg     unsigned char 
  9057 ;;  dir             1    0[COMRAM] unsigned char 
  9058 ;;  data            2    1[COMRAM] PTR unsigned char 
  9059 ;;		 -> ReceivedDataBuffer(64), ToSendDataBuffer(64), 
  9060 ;;  len             1    3[COMRAM] unsigned char 
  9061 ;; Auto vars:     Size  Location     Type
  9062 ;;  ep              1    4[COMRAM] unsigned char 
  9063 ;;  USBTransferO    2    5[COMRAM] PTR volatile struct __BD
  9064 ;;		 -> NULL(0), BDT(32), 
  9065 ;; Return value:  Size  Location     Type
  9066 ;;                  2    0[COMRAM] PTR void 
  9067 ;; Registers used:
  9068 ;;		wreg, fsr2l, fsr2h, status,2, status,0, prodl, prodh
  9069 ;; Tracked objects:
  9070 ;;		On entry : 0/0
  9071 ;;		On exit  : 0/0
  9072 ;;		Unchanged: 0/0
  9073 ;; Data sizes:     COMRAM   BANK0   BANK1   BANK2   BANK3   BANK4  BANK5h   BANK6   BANK7
  9074 ;;      Params:         4       0       0       0       0       0       0       0       0
  9075 ;;      Locals:         3       0       0       0       0       0       0       0       0
  9076 ;;      Temps:          0       0       0       0       0       0       0       0       0
  9077 ;;      Totals:         7       0       0       0       0       0       0       0       0
  9078 ;;Total ram usage:        7 bytes
  9079 ;; Hardware stack levels used:    1
  9080 ;; Hardware stack levels required when called:   10
  9081 ;; This function calls:
  9082 ;;		Nothing
  9083 ;; This function is called by:
  9084 ;;		_ISRLowPriority
  9085 ;; This function uses a non-reentrant model
  9086 ;;
  9087                           
  9088                           	psect	text26
  9089  0034A2                     __ptext26:
  9090                           	opt stack 0
  9091  0034A2                     i1_USBTransferOnePacket:
  9092                           	opt stack 16
  9093                           
  9094                           ;incstack = 0
  9095                           ;i1USBTransferOnePacket@ep stored from wreg
  9096  0034A2  6E05               	movwf	i1USBTransferOnePacket@ep,c
  9097                           
  9098                           ;usb_device.c: 1011: volatile BDT_ENTRY* handle;
  9099                           ;usb_device.c: 1014: if(dir != 0)
  9100  0034A4  5001               	movf	i1USBTransferOnePacket@dir,w,c
  9101  0034A6  B4D8               	btfsc	status,2,c
  9102  0034A8  D009               	goto	i1l6145
  9103                           
  9104                           ;usb_device.c: 1015: {
  9105                           ;usb_device.c: 1017: handle = pBDTEntryIn[ep];
  9106  0034AA  5005               	movf	i1USBTransferOnePacket@ep,w,c
  9107  0034AC  0D02               	mullw	2
  9108  0034AE  0100               	movlb	0	; () banked
  9109  0034B0  0EAB               	movlw	low _pBDTEntryIn
  9110  0034B2  24F3               	addwf	prodl,w,c
  9111  0034B4  6ED9               	movwf	fsr2l,c
  9112  0034B6  0100               	movlb	0	; () banked
  9113  0034B8  0E00               	movlw	high _pBDTEntryIn
  9114  0034BA  D008               	goto	L52
  9115  0034BC                     i1l6145:
  9116                           
  9117                           ;usb_device.c: 1019: else
  9118                           ;usb_device.c: 1020: {
  9119                           ;usb_device.c: 1022: handle = pBDTEntryOut[ep];
  9120  0034BC  5005               	movf	i1USBTransferOnePacket@ep,w,c
  9121  0034BE  0D02               	mullw	2
  9122  0034C0  0100               	movlb	0	; () banked
  9123  0034C2  0EAF               	movlw	low _pBDTEntryOut
  9124  0034C4  24F3               	addwf	prodl,w,c
  9125  0034C6  6ED9               	movwf	fsr2l,c
  9126  0034C8  0100               	movlb	0	; () banked
  9127  0034CA  0E00               	movlw	high _pBDTEntryOut
  9128  0034CC                     L52:
  9129  0034CC  20F4               	addwfc	prodh,w,c
  9130  0034CE  6EDA               	movwf	fsr2h,c
  9131  0034D0  CFDE F006          	movff	postinc2,i1USBTransferOnePacket@handle
  9132  0034D4  CFDD F007          	movff	postdec2,i1USBTransferOnePacket@handle+1
  9133                           
  9134                           ; BSR set to: 0
  9135                           ;usb_device.c: 1023: }
  9136                           ;usb_device.c: 1027: if(handle == 0)
  9137                           
  9138                           ; BSR set to: 0
  9139  0034D8  5007               	movf	i1USBTransferOnePacket@handle+1,w,c
  9140  0034DA  1006               	iorwf	i1USBTransferOnePacket@handle,w,c
  9141  0034DC  A4D8               	btfss	status,2,c
  9142  0034DE  D005               	goto	i1l6153
  9143                           
  9144                           ; BSR set to: 0
  9145                           ;usb_device.c: 1028: {
  9146                           ;usb_device.c: 1029: return 0;
  9147  0034E0  0E00               	movlw	0
  9148  0034E2  6E02               	movwf	?i1_USBTransferOnePacket+1,c
  9149  0034E4  0E00               	movlw	0
  9150  0034E6  6E01               	movwf	?i1_USBTransferOnePacket,c
  9151  0034E8  D040               	goto	i1l179
  9152  0034EA                     i1l6153:
  9153                           
  9154                           ; BSR set to: 0
  9155                           ;usb_device.c: 1030: }
  9156                           ;usb_device.c: 1043: handle->ADR = ((uint16_t)(data));
  9157  0034EA  EE20 F002          	lfsr	2,2
  9158  0034EE  5006               	movf	i1USBTransferOnePacket@handle,w,c
  9159  0034F0  26D9               	addwf	fsr2l,f,c
  9160  0034F2  5007               	movf	i1USBTransferOnePacket@handle+1,w,c
  9161  0034F4  22DA               	addwfc	fsr2h,f,c
  9162  0034F6  C002  FFDE         	movff	i1USBTransferOnePacket@data,postinc2
  9163  0034FA  C003  FFDD         	movff	i1USBTransferOnePacket@data+1,postdec2
  9164                           
  9165                           ;usb_device.c: 1044: handle->CNT = len;
  9166  0034FE  EE20 F001          	lfsr	2,1
  9167  003502  5006               	movf	i1USBTransferOnePacket@handle,w,c
  9168  003504  26D9               	addwf	fsr2l,f,c
  9169  003506  5007               	movf	i1USBTransferOnePacket@handle+1,w,c
  9170  003508  22DA               	addwfc	fsr2h,f,c
  9171  00350A  C004  FFDF         	movff	i1USBTransferOnePacket@len,indf2
  9172                           
  9173                           ; BSR set to: 0
  9174                           ;usb_device.c: 1045: handle->STAT.Val &= 0x40;
  9175  00350E  C006  FFD9         	movff	i1USBTransferOnePacket@handle,fsr2l
  9176  003512  C007  FFDA         	movff	i1USBTransferOnePacket@handle+1,fsr2h
  9177  003516  0E40               	movlw	64
  9178  003518  16DF               	andwf	indf2,f,c
  9179                           
  9180                           ; BSR set to: 0
  9181                           ;usb_device.c: 1046: handle->STAT.Val |= (0x08 & 0x08);
  9182  00351A  C006  FFD9         	movff	i1USBTransferOnePacket@handle,fsr2l
  9183  00351E  C007  FFDA         	movff	i1USBTransferOnePacket@handle+1,fsr2h
  9184  003522  0E00               	movlw	0
  9185  003524  86DB               	bsf	plusw2,3,c
  9186                           
  9187                           ; BSR set to: 0
  9188                           ;usb_device.c: 1047: handle->STAT.Val |= 0x80;
  9189  003526  C006  FFD9         	movff	i1USBTransferOnePacket@handle,fsr2l
  9190  00352A  C007  FFDA         	movff	i1USBTransferOnePacket@handle+1,fsr2h
  9191  00352E  0E00               	movlw	0
  9192  003530  8EDB               	bsf	plusw2,7,c
  9193                           
  9194                           ; BSR set to: 0
  9195                           ;usb_device.c: 1050: if(dir != 0)
  9196  003532  5001               	movf	i1USBTransferOnePacket@dir,w,c
  9197  003534  B4D8               	btfsc	status,2,c
  9198  003536  D009               	goto	i1l6165
  9199                           
  9200                           ; BSR set to: 0
  9201                           ;usb_device.c: 1051: {
  9202                           ;usb_device.c: 1053: {((uint8_t_VAL*)&pBDTEntryIn[ep])->Val ^= 0x0004;};
  9203  003538  5005               	movf	i1USBTransferOnePacket@ep,w,c
  9204  00353A  0D02               	mullw	2
  9205  00353C  0100               	movlb	0	; () banked
  9206  00353E  0EAB               	movlw	low _pBDTEntryIn
  9207  003540  24F3               	addwf	prodl,w,c
  9208  003542  6ED9               	movwf	fsr2l,c
  9209  003544  0100               	movlb	0	; () banked
  9210  003546  0E00               	movlw	high _pBDTEntryIn
  9211  003548  D008               	goto	L53
  9212  00354A                     i1l6165:
  9213                           
  9214                           ; BSR set to: 0
  9215                           ;usb_device.c: 1055: else
  9216                           ;usb_device.c: 1056: {
  9217                           ;usb_device.c: 1058: {((uint8_t_VAL*)&pBDTEntryOut[ep])->Val ^= 0x0004;};
  9218  00354A  5005               	movf	i1USBTransferOnePacket@ep,w,c
  9219  00354C  0D02               	mullw	2
  9220  00354E  0100               	movlb	0	; () banked
  9221  003550  0EAF               	movlw	low _pBDTEntryOut
  9222  003552  24F3               	addwf	prodl,w,c
  9223  003554  6ED9               	movwf	fsr2l,c
  9224  003556  0100               	movlb	0	; () banked
  9225  003558  0E00               	movlw	high _pBDTEntryOut
  9226  00355A                     L53:
  9227  00355A  20F4               	addwfc	prodh,w,c
  9228  00355C  6EDA               	movwf	fsr2h,c
  9229  00355E  0E04               	movlw	4
  9230  003560  1ADF               	xorwf	indf2,f,c
  9231                           
  9232                           ; BSR set to: 0
  9233                           ;usb_device.c: 1059: }
  9234                           ;usb_device.c: 1060: return (void*)handle;
  9235                           
  9236                           ; BSR set to: 0
  9237  003562  C007  F002         	movff	i1USBTransferOnePacket@handle+1,?i1_USBTransferOnePacket+1
  9238  003566  C006  F001         	movff	i1USBTransferOnePacket@handle,?i1_USBTransferOnePacket
  9239  00356A                     i1l179:
  9240                           
  9241                           ; BSR set to: 0
  9242  00356A  0012               	return	
  9243  00356C                     __end_ofi1_USBTransferOnePacket:
  9244                           	opt stack 0
  9245                           pclatu	equ	0xFFB
  9246                           pclath	equ	0xFFA
  9247                           tblptru	equ	0xFF8
  9248                           tblptrh	equ	0xFF7
  9249                           tblptrl	equ	0xFF6
  9250                           tablat	equ	0xFF5
  9251                           prodh	equ	0xFF4
  9252                           prodl	equ	0xFF3
  9253                           intcon	equ	0xFF2
  9254                           indf0	equ	0xFEF
  9255                           postinc0	equ	0xFEE
  9256                           fsr0h	equ	0xFEA
  9257                           fsr0l	equ	0xFE9
  9258                           wreg	equ	0xFE8
  9259                           fsr1h	equ	0xFE2
  9260                           fsr1l	equ	0xFE1
  9261                           bsr	equ	0xFE0
  9262                           indf2	equ	0xFDF
  9263                           postinc2	equ	0xFDE
  9264                           postdec2	equ	0xFDD
  9265                           plusw2	equ	0xFDB
  9266                           fsr2h	equ	0xFDA
  9267                           fsr2l	equ	0xFD9
  9268                           status	equ	0xFD8
  9269                           
  9270 ;; *************** function _SYS_InterruptHigh *****************
  9271 ;; Defined at:
  9272 ;;		line 103 in file "system.c"
  9273 ;; Parameters:    Size  Location     Type
  9274 ;;		None
  9275 ;; Auto vars:     Size  Location     Type
  9276 ;;		None
  9277 ;; Return value:  Size  Location     Type
  9278 ;;		None               void
  9279 ;; Registers used:
  9280 ;;		wreg, fsr1l, fsr1h, fsr2l, fsr2h, status,2, status,0, tblptrl, tblptrh, tblptru, prodl, prodh, cstack
  9281 ;; Tracked objects:
  9282 ;;		On entry : 0/0
  9283 ;;		On exit  : 0/0
  9284 ;;		Unchanged: 0/0
  9285 ;; Data sizes:     COMRAM   BANK0   BANK1   BANK2   BANK3   BANK4  BANK5h   BANK6   BANK7
  9286 ;;      Params:         0       0       0       0       0       0       0       0       0
  9287 ;;      Locals:         0       0       0       0       0       0       0       0       0
  9288 ;;      Temps:          0      14       0       0       0       0       0       0       0
  9289 ;;      Totals:         0      14       0       0       0       0       0       0       0
  9290 ;;Total ram usage:       14 bytes
  9291 ;; Hardware stack levels used:    1
  9292 ;; Hardware stack levels required when called:    9
  9293 ;; This function calls:
  9294 ;;		_USBDeviceTasks
  9295 ;; This function is called by:
  9296 ;;		Interrupt level 2
  9297 ;; This function uses a non-reentrant model
  9298 ;;
  9299                           
  9300                           	psect	intcode
  9301  000008                     __pintcode:
  9302                           	opt stack 0
  9303  000008                     _SYS_InterruptHigh:
  9304                           	opt stack 16
  9305                           
  9306                           ; BSR set to: 0
  9307                           ;incstack = 0
  9308  000008  CFFA F07C          	movff	pclath,??_SYS_InterruptHigh
  9309  00000C  CFFB F07D          	movff	pclatu,??_SYS_InterruptHigh+1
  9310  000010  CFE9 F07E          	movff	fsr0l,??_SYS_InterruptHigh+2
  9311  000014  EDF4  F01D         	call	int_func,f	;refresh shadow registers
  9312                           pclatu	equ	0xFFB
  9313                           pclath	equ	0xFFA
  9314                           tblptru	equ	0xFF8
  9315                           tblptrh	equ	0xFF7
  9316                           tblptrl	equ	0xFF6
  9317                           tablat	equ	0xFF5
  9318                           prodh	equ	0xFF4
  9319                           prodl	equ	0xFF3
  9320                           intcon	equ	0xFF2
  9321                           indf0	equ	0xFEF
  9322                           postinc0	equ	0xFEE
  9323                           fsr0h	equ	0xFEA
  9324                           fsr0l	equ	0xFE9
  9325                           wreg	equ	0xFE8
  9326                           fsr1h	equ	0xFE2
  9327                           fsr1l	equ	0xFE1
  9328                           bsr	equ	0xFE0
  9329                           indf2	equ	0xFDF
  9330                           postinc2	equ	0xFDE
  9331                           postdec2	equ	0xFDD
  9332                           plusw2	equ	0xFDB
  9333                           fsr2h	equ	0xFDA
  9334                           fsr2l	equ	0xFD9
  9335                           status	equ	0xFD8
  9336                           
  9337                           	psect	intcode_body
  9338  003BE8                     __pintcode_body:
  9339                           	opt stack 16
  9340  003BE8                     int_func:
  9341                           	opt stack 16
  9342  003BE8  0006               	pop		; remove dummy address from shadow register refresh
  9343  003BEA  CFEA F07F          	movff	fsr0h,??_SYS_InterruptHigh+3
  9344  003BEE  CFE1 F080          	movff	fsr1l,??_SYS_InterruptHigh+4
  9345  003BF2  CFE2 F081          	movff	fsr1h,??_SYS_InterruptHigh+5
  9346  003BF6  CFD9 F082          	movff	fsr2l,??_SYS_InterruptHigh+6
  9347  003BFA  CFDA F083          	movff	fsr2h,??_SYS_InterruptHigh+7
  9348  003BFE  CFF3 F084          	movff	prodl,??_SYS_InterruptHigh+8
  9349  003C02  CFF4 F085          	movff	prodh,??_SYS_InterruptHigh+9
  9350  003C06  CFF6 F086          	movff	tblptrl,??_SYS_InterruptHigh+10
  9351  003C0A  CFF7 F087          	movff	tblptrh,??_SYS_InterruptHigh+11
  9352  003C0E  CFF8 F088          	movff	tblptru,??_SYS_InterruptHigh+12
  9353  003C12  CFF5 F089          	movff	tablat,??_SYS_InterruptHigh+13
  9354                           
  9355                           ;system.c: 106: USBDeviceTasks();
  9356  003C16  ECCF  F013         	call	_USBDeviceTasks	;wreg free
  9357  003C1A  C089  FFF5         	movff	??_SYS_InterruptHigh+13,tablat
  9358  003C1E  C088  FFF8         	movff	??_SYS_InterruptHigh+12,tblptru
  9359  003C22  C087  FFF7         	movff	??_SYS_InterruptHigh+11,tblptrh
  9360  003C26  C086  FFF6         	movff	??_SYS_InterruptHigh+10,tblptrl
  9361  003C2A  C085  FFF4         	movff	??_SYS_InterruptHigh+9,prodh
  9362  003C2E  C084  FFF3         	movff	??_SYS_InterruptHigh+8,prodl
  9363  003C32  C083  FFDA         	movff	??_SYS_InterruptHigh+7,fsr2h
  9364  003C36  C082  FFD9         	movff	??_SYS_InterruptHigh+6,fsr2l
  9365  003C3A  C081  FFE2         	movff	??_SYS_InterruptHigh+5,fsr1h
  9366  003C3E  C080  FFE1         	movff	??_SYS_InterruptHigh+4,fsr1l
  9367  003C42  C07F  FFEA         	movff	??_SYS_InterruptHigh+3,fsr0h
  9368  003C46  C07E  FFE9         	movff	??_SYS_InterruptHigh+2,fsr0l
  9369  003C4A  C07D  FFFB         	movff	??_SYS_InterruptHigh+1,pclatu
  9370  003C4E  C07C  FFFA         	movff	??_SYS_InterruptHigh,pclath
  9371  003C52  0011               	retfie		f
  9372  003C54                     __end_of_SYS_InterruptHigh:
  9373                           	opt stack 0
  9374                           pclatu	equ	0xFFB
  9375                           pclath	equ	0xFFA
  9376                           tblptru	equ	0xFF8
  9377                           tblptrh	equ	0xFF7
  9378                           tblptrl	equ	0xFF6
  9379                           tablat	equ	0xFF5
  9380                           prodh	equ	0xFF4
  9381                           prodl	equ	0xFF3
  9382                           intcon	equ	0xFF2
  9383                           indf0	equ	0xFEF
  9384                           postinc0	equ	0xFEE
  9385                           fsr0h	equ	0xFEA
  9386                           fsr0l	equ	0xFE9
  9387                           wreg	equ	0xFE8
  9388                           fsr1h	equ	0xFE2
  9389                           fsr1l	equ	0xFE1
  9390                           bsr	equ	0xFE0
  9391                           indf2	equ	0xFDF
  9392                           postinc2	equ	0xFDE
  9393                           postdec2	equ	0xFDD
  9394                           plusw2	equ	0xFDB
  9395                           fsr2h	equ	0xFDA
  9396                           fsr2l	equ	0xFD9
  9397                           status	equ	0xFD8
  9398                           
  9399 ;; *************** function _USBDeviceTasks *****************
  9400 ;; Defined at:
  9401 ;;		line 491 in file "usb_device.c"
  9402 ;; Parameters:    Size  Location     Type
  9403 ;;		None
  9404 ;; Auto vars:     Size  Location     Type
  9405 ;;  i               1   27[BANK0 ] unsigned char 
  9406 ;; Return value:  Size  Location     Type
  9407 ;;		None               void
  9408 ;; Registers used:
  9409 ;;		wreg, fsr1l, fsr1h, fsr2l, fsr2h, status,2, status,0, tblptrl, tblptrh, tblptru, prodl, prodh, cstack
  9410 ;; Tracked objects:
  9411 ;;		On entry : 0/0
  9412 ;;		On exit  : 0/0
  9413 ;;		Unchanged: 0/0
  9414 ;; Data sizes:     COMRAM   BANK0   BANK1   BANK2   BANK3   BANK4  BANK5h   BANK6   BANK7
  9415 ;;      Params:         0       0       0       0       0       0       0       0       0
  9416 ;;      Locals:         0       1       0       0       0       0       0       0       0
  9417 ;;      Temps:          0       0       0       0       0       0       0       0       0
  9418 ;;      Totals:         0       1       0       0       0       0       0       0       0
  9419 ;;Total ram usage:        1 bytes
  9420 ;; Hardware stack levels used:    1
  9421 ;; Hardware stack levels required when called:    8
  9422 ;; This function calls:
  9423 ;;		_USBCtrlEPAllowStatusStage
  9424 ;;		_USBCtrlEPService
  9425 ;;		_USBIncrement1msInternalTimers
  9426 ;;		_USBStallHandler
  9427 ;;		_USBSuspend
  9428 ;;		_USBWakeFromSuspend
  9429 ;;		_USER_USB_CALLBACK_EVENT_HANDLER
  9430 ;;		i2_USBDeviceInit
  9431 ;; This function is called by:
  9432 ;;		_SYS_InterruptHigh
  9433 ;; This function uses a non-reentrant model
  9434 ;;
  9435                           
  9436                           	psect	text28
  9437  00279E                     __ptext28:
  9438                           	opt stack 0
  9439  00279E                     _USBDeviceTasks:
  9440                           	opt stack 16
  9441                           
  9442                           ;usb_device.c: 493: uint8_t i;
  9443                           ;usb_device.c: 604: if(USBDeviceState == ATTACHED_STATE)
  9444                           
  9445                           ;incstack = 0
  9446  00279E  0437               	decf	_USBDeviceState,w,c	;volatile
  9447  0027A0  B4D8               	btfsc	status,2,c
  9448                           
  9449                           ;usb_device.c: 605: {
  9450                           ;usb_device.c: 615: if(!UCONbits.SE0)
  9451  0027A2  BA6D               	btfsc	3949,5,c	;volatile
  9452  0027A4  D006               	goto	i2l7977
  9453                           
  9454                           ;usb_device.c: 616: {
  9455                           ;usb_device.c: 622: {UIR = 0;};
  9456  0027A6  0E00               	movlw	0
  9457  0027A8  6E68               	movwf	3944,c	;volatile
  9458                           
  9459                           ;usb_device.c: 628: UIEbits.URSTIE = 1;
  9460  0027AA  8069               	bsf	3945,0,c	;volatile
  9461                           
  9462                           ;usb_device.c: 629: UIEbits.IDLEIE = 1;
  9463  0027AC  8869               	bsf	3945,4,c	;volatile
  9464                           
  9465                           ;usb_device.c: 630: USBDeviceState = POWERED_STATE;
  9466  0027AE  0E02               	movlw	2
  9467  0027B0  6E37               	movwf	_USBDeviceState,c	;volatile
  9468  0027B2                     i2l7977:
  9469                           
  9470                           ;usb_device.c: 631: }
  9471                           ;usb_device.c: 632: }
  9472                           ;usb_device.c: 648: if(UIRbits.ACTVIF && UIEbits.ACTVIE)
  9473  0027B2  B468               	btfsc	3944,2,c	;volatile
  9474  0027B4  A469               	btfss	3945,2,c	;volatile
  9475  0027B6  D003               	goto	i2l7985
  9476                           
  9477                           ;usb_device.c: 649: {
  9478                           ;usb_device.c: 650: (UIR &= 0xFB);
  9479  0027B8  9468               	bcf	3944,2,c	;volatile
  9480                           
  9481                           ;usb_device.c: 654: USBWakeFromSuspend();
  9482  0027BA  EC31  F01F         	call	_USBWakeFromSuspend	;wreg free
  9483  0027BE                     i2l7985:
  9484                           
  9485                           ;usb_device.c: 656: }
  9486                           ;usb_device.c: 661: if(UCONbits.SUSPND==1)
  9487  0027BE  B26D               	btfsc	3949,1,c	;volatile
  9488  0027C0  D096               	goto	i2l160
  9489                           
  9490                           ;usb_device.c: 665: }
  9491                           ;usb_device.c: 677: if(UIRbits.URSTIF && UIEbits.URSTIE)
  9492                           
  9493                           ;usb_device.c: 664: return;
  9494                           
  9495                           ;usb_device.c: 662: {
  9496                           ;usb_device.c: 663: {PIR2bits.USBIF = 0;};
  9497  0027C2  B068               	btfsc	3944,0,c	;volatile
  9498  0027C4  A069               	btfss	3945,0,c	;volatile
  9499  0027C6  D006               	goto	i2l7999
  9500                           
  9501                           ;usb_device.c: 678: {
  9502                           ;usb_device.c: 679: USBDeviceInit();
  9503  0027C8  EC54  F010         	call	i2_USBDeviceInit	;wreg free
  9504                           
  9505                           ;usb_device.c: 683: {PIE2bits.USBIE = 1;};
  9506  0027CC  8AA0               	bsf	4000,5,c	;volatile
  9507                           
  9508                           ;usb_device.c: 685: USBDeviceState = DEFAULT_STATE;
  9509  0027CE  0E04               	movlw	4
  9510  0027D0  6E37               	movwf	_USBDeviceState,c	;volatile
  9511                           
  9512                           ;usb_device.c: 695: (UIR &= 0xFE);
  9513  0027D2  9068               	bcf	3944,0,c	;volatile
  9514  0027D4                     i2l7999:
  9515                           
  9516                           ;usb_device.c: 696: }
  9517                           ;usb_device.c: 701: if(UIRbits.IDLEIF && UIEbits.IDLEIE)
  9518  0027D4  B868               	btfsc	3944,4,c	;volatile
  9519  0027D6  A869               	btfss	3945,4,c	;volatile
  9520  0027D8  D002               	goto	i2l8005
  9521                           
  9522                           ;usb_device.c: 702: {
  9523                           ;usb_device.c: 708: USBSuspend();
  9524  0027DA  EC8B  F01F         	call	_USBSuspend	;wreg free
  9525  0027DE                     i2l8005:
  9526                           
  9527                           ;usb_device.c: 710: }
  9528                           ;usb_device.c: 722: if(UIRbits.SOFIF)
  9529  0027DE  AC68               	btfss	3944,6,c	;volatile
  9530  0027E0  D020               	goto	i2l8023
  9531                           
  9532                           ;usb_device.c: 723: {
  9533                           ;usb_device.c: 725: if(UIEbits.SOFIE)
  9534  0027E2  AC69               	btfss	3945,6,c	;volatile
  9535  0027E4  D014               	goto	i2l8011
  9536                           
  9537                           ;usb_device.c: 726: {
  9538                           ;usb_device.c: 727: USER_USB_CALLBACK_EVENT_HANDLER(EVENT_SOF,0,1);
  9539  0027E6  0E00               	movlw	0
  9540  0027E8  0100               	movlb	0	; () banked
  9541  0027EA  6F67               	movwf	(USER_USB_CALLBACK_EVENT_HANDLER@event+1)& (0+255),b
  9542  0027EC  0E73               	movlw	115
  9543  0027EE  0100               	movlb	0	; () banked
  9544  0027F0  6F66               	movwf	USER_USB_CALLBACK_EVENT_HANDLER@event& (0+255),b
  9545  0027F2  0E00               	movlw	0
  9546  0027F4  0100               	movlb	0	; () banked
  9547  0027F6  6F69               	movwf	(USER_USB_CALLBACK_EVENT_HANDLER@pdata+1)& (0+255),b
  9548  0027F8  0E00               	movlw	0
  9549  0027FA  0100               	movlb	0	; () banked
  9550  0027FC  6F68               	movwf	USER_USB_CALLBACK_EVENT_HANDLER@pdata& (0+255),b
  9551  0027FE  0E00               	movlw	0
  9552  002800  0100               	movlb	0	; () banked
  9553  002802  6F6B               	movwf	(USER_USB_CALLBACK_EVENT_HANDLER@size+1)& (0+255),b
  9554  002804  0E01               	movlw	1
  9555  002806  0100               	movlb	0	; () banked
  9556  002808  6F6A               	movwf	USER_USB_CALLBACK_EVENT_HANDLER@size& (0+255),b
  9557  00280A  EC2A  F01E         	call	_USER_USB_CALLBACK_EVENT_HANDLER	;wreg free
  9558  00280E                     i2l8011:
  9559                           
  9560                           ;usb_device.c: 728: }
  9561                           ;usb_device.c: 729: (UIR &= 0xBF);
  9562  00280E  9C68               	bcf	3944,6,c	;volatile
  9563                           
  9564                           ;usb_device.c: 732: USBIncrement1msInternalTimers();
  9565  002810  EC33  F020         	call	_USBIncrement1msInternalTimers	;wreg free
  9566                           
  9567                           ;usb_device.c: 749: if(USBStatusStageTimeoutCounter != 0u)
  9568  002814  503A               	movf	_USBStatusStageTimeoutCounter,w,c	;volatile
  9569  002816  A4D8               	btfss	status,2,c
  9570                           
  9571                           ;usb_device.c: 750: {
  9572                           ;usb_device.c: 751: USBStatusStageTimeoutCounter--;
  9573  002818  063A               	decf	_USBStatusStageTimeoutCounter,f,c	;volatile
  9574                           
  9575                           ;usb_device.c: 752: }
  9576                           ;usb_device.c: 758: if(USBStatusStageTimeoutCounter == 0)
  9577  00281A  663A               	tstfsz	_USBStatusStageTimeoutCounter,c	;volatile
  9578  00281C  D002               	goto	i2l8023
  9579                           
  9580                           ;usb_device.c: 759: {
  9581                           ;usb_device.c: 760: USBCtrlEPAllowStatusStage();
  9582  00281E  ECE2  F01B         	call	_USBCtrlEPAllowStatusStage	;wreg free
  9583  002822                     i2l8023:
  9584                           
  9585                           ;usb_device.c: 761: }
  9586                           ;usb_device.c: 763: }
  9587                           ;usb_device.c: 765: if(UIRbits.STALLIF && UIEbits.STALLIE)
  9588  002822  BA68               	btfsc	3944,5,c	;volatile
  9589  002824  AA69               	btfss	3945,5,c	;volatile
  9590  002826  D002               	goto	i2l8029
  9591                           
  9592                           ;usb_device.c: 766: {
  9593                           ;usb_device.c: 767: USBStallHandler();
  9594  002828  EC50  F01F         	call	_USBStallHandler	;wreg free
  9595  00282C                     i2l8029:
  9596                           
  9597                           ;usb_device.c: 768: }
  9598                           ;usb_device.c: 770: if(UIRbits.UERRIF && UIEbits.UERRIE)
  9599  00282C  B268               	btfsc	3944,1,c	;volatile
  9600  00282E  A269               	btfss	3945,1,c	;volatile
  9601  002830  D015               	goto	i2l8037
  9602                           
  9603                           ;usb_device.c: 771: {
  9604                           ;usb_device.c: 772: USER_USB_CALLBACK_EVENT_HANDLER(EVENT_BUS_ERROR,0,1);
  9605  002832  0E7F               	movlw	127
  9606  002834  0100               	movlb	0	; () banked
  9607  002836  6F67               	movwf	(USER_USB_CALLBACK_EVENT_HANDLER@event+1)& (0+255),b
  9608  002838  0100               	movlb	0	; () banked
  9609  00283A  6966               	setf	USER_USB_CALLBACK_EVENT_HANDLER@event& (0+255),b
  9610  00283C  0E00               	movlw	0
  9611  00283E  0100               	movlb	0	; () banked
  9612  002840  6F69               	movwf	(USER_USB_CALLBACK_EVENT_HANDLER@pdata+1)& (0+255),b
  9613  002842  0E00               	movlw	0
  9614  002844  0100               	movlb	0	; () banked
  9615  002846  6F68               	movwf	USER_USB_CALLBACK_EVENT_HANDLER@pdata& (0+255),b
  9616  002848  0E00               	movlw	0
  9617  00284A  0100               	movlb	0	; () banked
  9618  00284C  6F6B               	movwf	(USER_USB_CALLBACK_EVENT_HANDLER@size+1)& (0+255),b
  9619  00284E  0E01               	movlw	1
  9620  002850  0100               	movlb	0	; () banked
  9621  002852  6F6A               	movwf	USER_USB_CALLBACK_EVENT_HANDLER@size& (0+255),b
  9622  002854  EC2A  F01E         	call	_USER_USB_CALLBACK_EVENT_HANDLER	;wreg free
  9623                           
  9624                           ;usb_device.c: 773: {UEIR = 0;};
  9625  002858  0E00               	movlw	0
  9626  00285A  6E6A               	movwf	3946,c	;volatile
  9627  00285C                     i2l8037:
  9628                           
  9629                           ;usb_device.c: 781: }
  9630                           ;usb_device.c: 788: if(USBDeviceState < DEFAULT_STATE)
  9631  00285C  0E04               	movlw	4
  9632  00285E  5C37               	subwf	_USBDeviceState,w,c	;volatile
  9633  002860  B0D8               	btfsc	status,0,c
  9634                           
  9635                           ;usb_device.c: 792: }
  9636                           ;usb_device.c: 797: if(UIEbits.TRNIE)
  9637                           
  9638                           ;usb_device.c: 791: return;
  9639                           
  9640                           ;usb_device.c: 789: {
  9641                           ;usb_device.c: 790: {PIR2bits.USBIF = 0;};
  9642  002862  A669               	btfss	3945,3,c	;volatile
  9643  002864  D044               	goto	i2l160
  9644                           
  9645                           ;usb_device.c: 798: {
  9646                           ;usb_device.c: 799: for(i = 0; i < 4u; i++)
  9647  002866  0E00               	movlw	0
  9648  002868  0100               	movlb	0	; () banked
  9649  00286A  6F7B               	movwf	USBDeviceTasks@i& (0+255),b
  9650  00286C  D03C               	goto	L55
  9651  00286E                     i2l161:
  9652                           
  9653                           ; BSR set to: 0
  9654                           ;usb_device.c: 800: {
  9655                           ;usb_device.c: 801: if(UIRbits.TRNIF)
  9656  00286E  A668               	btfss	3944,3,c	;volatile
  9657  002870  D03E               	goto	i2l160
  9658                           
  9659                           ; BSR set to: 0
  9660                           ;usb_device.c: 802: {
  9661                           ;usb_device.c: 804: USTATcopy.Val = USTAT;
  9662  002872  CF6C F041          	movff	3948,_USTATcopy	;volatile
  9663                           
  9664                           ; BSR set to: 0
  9665                           ;usb_device.c: 805: endpoint_number = USTATcopy.endpoint_number;
  9666  002876  3041               	rrcf	_USTATcopy,w,c	;volatile
  9667  002878  32E8               	rrcf	wreg,f,c
  9668  00287A  32E8               	rrcf	wreg,f,c
  9669  00287C  0B0F               	andlw	15
  9670  00287E  6E3D               	movwf	_endpoint_number,c	;volatile
  9671                           
  9672                           ; BSR set to: 0
  9673                           ;usb_device.c: 807: (UIR &= 0xF7);
  9674  002880  9668               	bcf	3944,3,c	;volatile
  9675                           
  9676                           ; BSR set to: 0
  9677                           ;usb_device.c: 812: if(USTATcopy.direction == 0)
  9678  002882  B441               	btfsc	_USTATcopy,2,c	;volatile
  9679  002884  D009               	goto	i2l8057
  9680                           
  9681                           ; BSR set to: 0
  9682                           ;usb_device.c: 813: {
  9683                           ;usb_device.c: 814: ep_data_out[endpoint_number].bits.ping_pong_state ^= 1;
  9684  002886  503D               	movf	_endpoint_number,w,c	;volatile
  9685  002888  0D01               	mullw	1
  9686  00288A  0100               	movlb	0	; () banked
  9687  00288C  0EC1               	movlw	low _ep_data_out	;volatile
  9688  00288E  24F3               	addwf	prodl,w,c
  9689  002890  6ED9               	movwf	fsr2l,c
  9690  002892  0100               	movlb	0	; () banked
  9691  002894  0E00               	movlw	high _ep_data_out	;volatile
  9692  002896  D008               	goto	L54
  9693  002898                     i2l8057:
  9694                           
  9695                           ; BSR set to: 0
  9696                           ;usb_device.c: 816: else
  9697                           ;usb_device.c: 817: {
  9698                           ;usb_device.c: 818: ep_data_in[endpoint_number].bits.ping_pong_state ^= 1;
  9699  002898  503D               	movf	_endpoint_number,w,c	;volatile
  9700  00289A  0D01               	mullw	1
  9701  00289C  0100               	movlb	0	; () banked
  9702  00289E  0EBF               	movlw	low _ep_data_in	;volatile
  9703  0028A0  24F3               	addwf	prodl,w,c
  9704  0028A2  6ED9               	movwf	fsr2l,c
  9705  0028A4  0100               	movlb	0	; () banked
  9706  0028A6  0E00               	movlw	high _ep_data_in	;volatile
  9707  0028A8                     L54:
  9708  0028A8  20F4               	addwfc	prodh,w,c
  9709  0028AA  6EDA               	movwf	fsr2h,c
  9710  0028AC  0100               	movlb	0	; () banked
  9711  0028AE  70DF               	btg	indf2,0,c
  9712                           
  9713                           ; BSR set to: 0
  9714                           ;usb_device.c: 819: }
  9715                           ;usb_device.c: 824: if(endpoint_number == 0)
  9716                           
  9717                           ; BSR set to: 0
  9718  0028B0  663D               	tstfsz	_endpoint_number,c	;volatile
  9719  0028B2  D003               	goto	i2l8063
  9720                           
  9721                           ; BSR set to: 0
  9722                           ;usb_device.c: 825: {
  9723                           ;usb_device.c: 826: USBCtrlEPService();
  9724  0028B4  EC96  F018         	call	_USBCtrlEPService	;wreg free
  9725                           
  9726                           ;usb_device.c: 827: }
  9727  0028B8  D014               	goto	i2l8065
  9728  0028BA                     i2l8063:
  9729                           
  9730                           ;usb_device.c: 828: else
  9731                           ;usb_device.c: 829: {
  9732                           ;usb_device.c: 830: USER_USB_CALLBACK_EVENT_HANDLER(EVENT_TRANSFER,(uint8_t*)&USTATcopy.
      +                          Val,0);
  9733  0028BA  0E00               	movlw	0
  9734  0028BC  0100               	movlb	0	; () banked
  9735  0028BE  6F67               	movwf	(USER_USB_CALLBACK_EVENT_HANDLER@event+1)& (0+255),b
  9736  0028C0  0E72               	movlw	114
  9737  0028C2  0100               	movlb	0	; () banked
  9738  0028C4  6F66               	movwf	USER_USB_CALLBACK_EVENT_HANDLER@event& (0+255),b
  9739  0028C6  0E00               	movlw	high _USTATcopy	;volatile
  9740  0028C8  0100               	movlb	0	; () banked
  9741  0028CA  6F69               	movwf	(USER_USB_CALLBACK_EVENT_HANDLER@pdata+1)& (0+255),b
  9742  0028CC  0E41               	movlw	low _USTATcopy	;volatile
  9743  0028CE  0100               	movlb	0	; () banked
  9744  0028D0  6F68               	movwf	USER_USB_CALLBACK_EVENT_HANDLER@pdata& (0+255),b
  9745  0028D2  0E00               	movlw	0
  9746  0028D4  0100               	movlb	0	; () banked
  9747  0028D6  6F6B               	movwf	(USER_USB_CALLBACK_EVENT_HANDLER@size+1)& (0+255),b
  9748  0028D8  0E00               	movlw	0
  9749  0028DA  0100               	movlb	0	; () banked
  9750  0028DC  6F6A               	movwf	USER_USB_CALLBACK_EVENT_HANDLER@size& (0+255),b
  9751  0028DE  EC2A  F01E         	call	_USER_USB_CALLBACK_EVENT_HANDLER	;wreg free
  9752  0028E2                     i2l8065:
  9753  0028E2  0100               	movlb	0	; () banked
  9754  0028E4  2B7B               	incf	USBDeviceTasks@i& (0+255),f,b
  9755  0028E6                     L55:
  9756                           
  9757                           ; BSR set to: 0
  9758  0028E6  0E03               	movlw	3
  9759  0028E8  0100               	movlb	0	; () banked
  9760  0028EA  657B               	cpfsgt	USBDeviceTasks@i& (0+255),b
  9761  0028EC  D7C0               	goto	i2l161
  9762  0028EE                     i2l160:
  9763                           
  9764                           ;usb_device.c: 836: }
  9765                           ;usb_device.c: 837: }
  9766                           ;usb_device.c: 838: }
  9767                           ;usb_device.c: 840: {PIR2bits.USBIF = 0;};
  9768  0028EE  9AA1               	bcf	4001,5,c	;volatile
  9769  0028F0  0012               	return	
  9770  0028F2                     __end_of_USBDeviceTasks:
  9771                           	opt stack 0
  9772                           pclatu	equ	0xFFB
  9773                           pclath	equ	0xFFA
  9774                           tblptru	equ	0xFF8
  9775                           tblptrh	equ	0xFF7
  9776                           tblptrl	equ	0xFF6
  9777                           tablat	equ	0xFF5
  9778                           prodh	equ	0xFF4
  9779                           prodl	equ	0xFF3
  9780                           intcon	equ	0xFF2
  9781                           indf0	equ	0xFEF
  9782                           postinc0	equ	0xFEE
  9783                           fsr0h	equ	0xFEA
  9784                           fsr0l	equ	0xFE9
  9785                           wreg	equ	0xFE8
  9786                           fsr1h	equ	0xFE2
  9787                           fsr1l	equ	0xFE1
  9788                           bsr	equ	0xFE0
  9789                           indf2	equ	0xFDF
  9790                           postinc2	equ	0xFDE
  9791                           postdec2	equ	0xFDD
  9792                           plusw2	equ	0xFDB
  9793                           fsr2h	equ	0xFDA
  9794                           fsr2l	equ	0xFD9
  9795                           status	equ	0xFD8
  9796                           
  9797 ;; *************** function i2_USBDeviceInit *****************
  9798 ;; Defined at:
  9799 ;;		line 295 in file "usb_device.c"
  9800 ;; Parameters:    Size  Location     Type
  9801 ;;		None
  9802 ;; Auto vars:     Size  Location     Type
  9803 ;;  USBDeviceIni    1    0[BANK0 ] unsigned char 
  9804 ;; Return value:  Size  Location     Type
  9805 ;;		None               void
  9806 ;; Registers used:
  9807 ;;		wreg, fsr2l, fsr2h, status,2, status,0, prodl, prodh, cstack
  9808 ;; Tracked objects:
  9809 ;;		On entry : 0/0
  9810 ;;		On exit  : 0/0
  9811 ;;		Unchanged: 0/0
  9812 ;; Data sizes:     COMRAM   BANK0   BANK1   BANK2   BANK3   BANK4  BANK5h   BANK6   BANK7
  9813 ;;      Params:         0       0       0       0       0       0       0       0       0
  9814 ;;      Locals:         0       1       0       0       0       0       0       0       0
  9815 ;;      Temps:          0       0       0       0       0       0       0       0       0
  9816 ;;      Totals:         0       1       0       0       0       0       0       0       0
  9817 ;;Total ram usage:        1 bytes
  9818 ;; Hardware stack levels used:    1
  9819 ;; Hardware stack levels required when called:    1
  9820 ;; This function calls:
  9821 ;;		i2_memset
  9822 ;; This function is called by:
  9823 ;;		_USBDeviceTasks
  9824 ;; This function uses a non-reentrant model
  9825 ;;
  9826                           
  9827                           	psect	text29
  9828  0020A8                     __ptext29:
  9829                           	opt stack 0
  9830  0020A8                     i2_USBDeviceInit:
  9831                           	opt stack 22
  9832                           
  9833                           ;usb_device.c: 297: uint8_t i;
  9834                           ;usb_device.c: 299: {PIE2bits.USBIE = 0;};
  9835                           
  9836                           ;incstack = 0
  9837  0020A8  9AA0               	bcf	4000,5,c	;volatile
  9838                           
  9839                           ;usb_device.c: 302: {UEIR = 0;};
  9840  0020AA  0E00               	movlw	0
  9841  0020AC  6E6A               	movwf	3946,c	;volatile
  9842                           
  9843                           ;usb_device.c: 305: {UIR = 0;};
  9844  0020AE  0E00               	movlw	0
  9845  0020B0  6E68               	movwf	3944,c	;volatile
  9846                           
  9847                           ;usb_device.c: 308: UEP0 = 0;
  9848  0020B2  0E00               	movlw	0
  9849  0020B4  6E70               	movwf	3952,c	;volatile
  9850                           
  9851                           ;usb_device.c: 310: memset((void*)&UEP1,0x00,(1));;
  9852  0020B6  0E0F               	movlw	15	;volatile
  9853  0020B8  6E1E               	movwf	i2memset@p1+1,c
  9854  0020BA  0E71               	movlw	113	;volatile
  9855  0020BC  6E1D               	movwf	i2memset@p1,c
  9856  0020BE  0E00               	movlw	0
  9857  0020C0  6E20               	movwf	i2memset@c+1,c
  9858  0020C2  0E00               	movlw	0
  9859  0020C4  6E1F               	movwf	i2memset@c,c
  9860  0020C6  0E00               	movlw	0
  9861  0020C8  6E22               	movwf	i2memset@n+1,c
  9862  0020CA  0E01               	movlw	1
  9863  0020CC  6E21               	movwf	i2memset@n,c
  9864  0020CE  EC0C  F020         	call	i2_memset	;wreg free
  9865                           
  9866                           ;usb_device.c: 312: { UCFG = 0x10 | 0x00 | 0x04 | 0x02; UEIE = 0x9F; UIE = 0x39 | 0x40 |
      +                           0x02; };
  9867  0020D2  0E16               	movlw	22
  9868  0020D4  6E6F               	movwf	3951,c	;volatile
  9869  0020D6  0E9F               	movlw	159
  9870  0020D8  6E6B               	movwf	3947,c	;volatile
  9871  0020DA  0E7B               	movlw	123
  9872  0020DC  6E69               	movwf	3945,c	;volatile
  9873                           
  9874                           ;usb_device.c: 315: ;
  9875                           ;usb_device.c: 318: ;
  9876                           ;usb_device.c: 321: for(i = 0; i < (sizeof(BDT)/sizeof(BDT_ENTRY)); i++)
  9877  0020DE  0E00               	movlw	0
  9878  0020E0  0100               	movlb	0	; () banked
  9879  0020E2  6F60               	movwf	i2USBDeviceInit@i& (0+255),b
  9880  0020E4  D011               	goto	L56
  9881  0020E6                     i2l7913:
  9882                           
  9883                           ; BSR set to: 0
  9884                           ;usb_device.c: 322: {
  9885                           ;usb_device.c: 323: BDT[i].Val = 0x00;
  9886  0020E6  0100               	movlb	0	; () banked
  9887  0020E8  5160               	movf	i2USBDeviceInit@i& (0+255),w,b
  9888  0020EA  0D04               	mullw	4
  9889  0020EC  0104               	movlb	4	; () banked
  9890  0020EE  0E00               	movlw	0	;volatile
  9891  0020F0  24F3               	addwf	prodl,w,c
  9892  0020F2  6ED9               	movwf	fsr2l,c
  9893  0020F4  0104               	movlb	4	; () banked
  9894  0020F6  0E04               	movlw	4	;volatile
  9895  0020F8  20F4               	addwfc	prodh,w,c
  9896  0020FA  6EDA               	movwf	fsr2h,c
  9897  0020FC  6ADE               	clrf	postinc2,c
  9898  0020FE  6ADE               	clrf	postinc2,c
  9899  002100  6ADE               	clrf	postinc2,c
  9900  002102  6ADD               	clrf	postdec2,c
  9901                           
  9902                           ; BSR set to: 4
  9903  002104  0100               	movlb	0	; () banked
  9904  002106  2B60               	incf	i2USBDeviceInit@i& (0+255),f,b
  9905  002108                     L56:
  9906                           
  9907                           ; BSR set to: 0
  9908  002108  0E07               	movlw	7
  9909  00210A  0100               	movlb	0	; () banked
  9910  00210C  6560               	cpfsgt	i2USBDeviceInit@i& (0+255),b
  9911  00210E  D7EB               	goto	i2l7913
  9912                           
  9913                           ; BSR set to: 0
  9914                           ;usb_device.c: 324: }
  9915                           ;usb_device.c: 327: UCONbits.PPBRST = 1;
  9916  002110  8C6D               	bsf	3949,6,c	;volatile
  9917                           
  9918                           ; BSR set to: 0
  9919                           ;usb_device.c: 330: UADDR = 0x00;
  9920  002112  0E00               	movlw	0
  9921  002114  6E6E               	movwf	3950,c	;volatile
  9922                           
  9923                           ; BSR set to: 0
  9924                           ;usb_device.c: 333: UCONbits.PKTDIS = 0;
  9925  002116  986D               	bcf	3949,4,c	;volatile
  9926                           
  9927                           ; BSR set to: 0
  9928                           ;usb_device.c: 336: UCONbits.PPBRST = 0;
  9929  002118  9C6D               	bcf	3949,6,c	;volatile
  9930  00211A                     i2l7925:
  9931                           
  9932                           ; BSR set to: 0
  9933                           ;usb_device.c: 340: {
  9934                           ;usb_device.c: 341: (UIR &= 0xF7);
  9935  00211A  9668               	bcf	3944,3,c	;volatile
  9936                           
  9937                           ; BSR set to: 0
  9938                           ;usb_device.c: 343: inPipes[0].info.Val = 0;
  9939  00211C  0E00               	movlw	0
  9940  00211E  0100               	movlb	0	; () banked
  9941  002120  6FC8               	movwf	(_inPipes+3)& (0+255),b	;volatile
  9942                           
  9943                           ; BSR set to: 0
  9944                           ;usb_device.c: 344: outPipes[0].info.Val = 0;
  9945  002122  0E00               	movlw	0
  9946  002124  0100               	movlb	0	; () banked
  9947  002126  6FA6               	movwf	(_outPipes+3)& (0+255),b	;volatile
  9948                           
  9949                           ; BSR set to: 0
  9950                           ;usb_device.c: 345: outPipes[0].wCount.Val = 0;
  9951  002128  0E00               	movlw	0
  9952  00212A  0100               	movlb	0	; () banked
  9953  00212C  6FA8               	movwf	(_outPipes+5)& (0+255),b	;volatile
  9954  00212E  0E00               	movlw	0
  9955  002130  0100               	movlb	0	; () banked
  9956  002132  6FA7               	movwf	(_outPipes+4)& (0+255),b	;volatile
  9957                           
  9958                           ; BSR set to: 0
  9959                           ;usb_device.c: 346: }while(UIRbits.TRNIF == 1);
  9960  002134  B668               	btfsc	3944,3,c	;volatile
  9961  002136  D7F1               	goto	i2l7925
  9962                           
  9963                           ; BSR set to: 0
  9964                           ;usb_device.c: 350: USBStatusStageEnabledFlag1 = 1;
  9965                           
  9966                           ; BSR set to: 0
  9967  002138  0E01               	movlw	1
  9968  00213A  6E38               	movwf	_USBStatusStageEnabledFlag1,c	;volatile
  9969                           
  9970                           ;usb_device.c: 351: USBStatusStageEnabledFlag2 = 1;
  9971  00213C  0E01               	movlw	1
  9972  00213E  6E39               	movwf	_USBStatusStageEnabledFlag2,c	;volatile
  9973                           
  9974                           ;usb_device.c: 353: USBDeferINDataStagePackets = 0;
  9975  002140  0E00               	movlw	0
  9976  002142  6E34               	movwf	_USBDeferINDataStagePackets,c	;volatile
  9977                           
  9978                           ;usb_device.c: 354: USBDeferOUTDataStagePackets = 0;
  9979  002144  0E00               	movlw	0
  9980  002146  6E35               	movwf	_USBDeferOUTDataStagePackets,c	;volatile
  9981                           
  9982                           ;usb_device.c: 355: USBBusIsSuspended = 0;
  9983  002148  0E00               	movlw	0
  9984  00214A  6E33               	movwf	_USBBusIsSuspended,c	;volatile
  9985                           
  9986                           ;usb_device.c: 359: for(i = 0; i < (uint8_t)(1+1u); i++)
  9987  00214C  0E00               	movlw	0
  9988  00214E  0100               	movlb	0	; () banked
  9989  002150  6F60               	movwf	i2USBDeviceInit@i& (0+255),b
  9990  002152  D03A               	goto	L57
  9991  002154                     i2l7941:
  9992                           
  9993                           ; BSR set to: 0
  9994                           ;usb_device.c: 360: {
  9995                           ;usb_device.c: 361: pBDTEntryIn[i] = 0u;
  9996  002154  0100               	movlb	0	; () banked
  9997  002156  5160               	movf	i2USBDeviceInit@i& (0+255),w,b
  9998  002158  0D02               	mullw	2
  9999  00215A  0100               	movlb	0	; () banked
 10000  00215C  0EAB               	movlw	low _pBDTEntryIn
 10001  00215E  24F3               	addwf	prodl,w,c
 10002  002160  6ED9               	movwf	fsr2l,c
 10003  002162  0100               	movlb	0	; () banked
 10004  002164  0E00               	movlw	high _pBDTEntryIn
 10005  002166  20F4               	addwfc	prodh,w,c
 10006  002168  6EDA               	movwf	fsr2h,c
 10007  00216A  0E00               	movlw	0
 10008  00216C  6EDE               	movwf	postinc2,c
 10009  00216E  0E00               	movlw	0
 10010  002170  6EDD               	movwf	postdec2,c
 10011                           
 10012                           ;usb_device.c: 362: pBDTEntryOut[i] = 0u;
 10013  002172  0100               	movlb	0	; () banked
 10014  002174  5160               	movf	i2USBDeviceInit@i& (0+255),w,b
 10015  002176  0D02               	mullw	2
 10016  002178  0100               	movlb	0	; () banked
 10017  00217A  0EAF               	movlw	low _pBDTEntryOut
 10018  00217C  24F3               	addwf	prodl,w,c
 10019  00217E  6ED9               	movwf	fsr2l,c
 10020  002180  0100               	movlb	0	; () banked
 10021  002182  0E00               	movlw	high _pBDTEntryOut
 10022  002184  20F4               	addwfc	prodh,w,c
 10023  002186  6EDA               	movwf	fsr2h,c
 10024  002188  0E00               	movlw	0
 10025  00218A  6EDE               	movwf	postinc2,c
 10026  00218C  0E00               	movlw	0
 10027  00218E  6EDD               	movwf	postdec2,c
 10028                           
 10029                           ;usb_device.c: 363: ep_data_in[i].Val = 0u;
 10030  002190  0100               	movlb	0	; () banked
 10031  002192  5160               	movf	i2USBDeviceInit@i& (0+255),w,b
 10032  002194  0D01               	mullw	1
 10033  002196  0100               	movlb	0	; () banked
 10034  002198  0EBF               	movlw	low _ep_data_in	;volatile
 10035  00219A  24F3               	addwf	prodl,w,c
 10036  00219C  6ED9               	movwf	fsr2l,c
 10037  00219E  0100               	movlb	0	; () banked
 10038  0021A0  0E00               	movlw	high _ep_data_in	;volatile
 10039  0021A2  20F4               	addwfc	prodh,w,c
 10040  0021A4  6EDA               	movwf	fsr2h,c
 10041  0021A6  0E00               	movlw	0
 10042  0021A8  6EDF               	movwf	indf2,c
 10043                           
 10044                           ;usb_device.c: 364: ep_data_out[i].Val = 0u;
 10045  0021AA  0100               	movlb	0	; () banked
 10046  0021AC  5160               	movf	i2USBDeviceInit@i& (0+255),w,b
 10047  0021AE  0D01               	mullw	1
 10048  0021B0  0100               	movlb	0	; () banked
 10049  0021B2  0EC1               	movlw	low _ep_data_out	;volatile
 10050  0021B4  24F3               	addwf	prodl,w,c
 10051  0021B6  6ED9               	movwf	fsr2l,c
 10052  0021B8  0100               	movlb	0	; () banked
 10053  0021BA  0E00               	movlw	high _ep_data_out	;volatile
 10054  0021BC  20F4               	addwfc	prodh,w,c
 10055  0021BE  6EDA               	movwf	fsr2h,c
 10056  0021C0  0E00               	movlw	0
 10057  0021C2  6EDF               	movwf	indf2,c
 10058                           
 10059                           ; BSR set to: 0
 10060  0021C4  0100               	movlb	0	; () banked
 10061  0021C6  2B60               	incf	i2USBDeviceInit@i& (0+255),f,b
 10062  0021C8                     L57:
 10063                           
 10064                           ; BSR set to: 0
 10065  0021C8  0E01               	movlw	1
 10066  0021CA  0100               	movlb	0	; () banked
 10067  0021CC  6560               	cpfsgt	i2USBDeviceInit@i& (0+255),b
 10068  0021CE  D7C2               	goto	i2l7941
 10069                           
 10070                           ; BSR set to: 0
 10071                           ;usb_device.c: 365: }
 10072                           ;usb_device.c: 368: pBDTEntryIn[0] = (volatile BDT_ENTRY*)&BDT[2];
 10073                           
 10074                           ; BSR set to: 0
 10075  0021D0  0104               	movlb	4	; () banked
 10076  0021D2  0E04               	movlw	4	;volatile
 10077  0021D4  0100               	movlb	0	; () banked
 10078  0021D6  6FAC               	movwf	(_pBDTEntryIn+1)& (0+255),b
 10079  0021D8  0104               	movlb	4	; () banked
 10080  0021DA  0E08               	movlw	8	;volatile
 10081  0021DC  0100               	movlb	0	; () banked
 10082  0021DE  6FAB               	movwf	_pBDTEntryIn& (0+255),b
 10083                           
 10084                           ; BSR set to: 0
 10085                           ;usb_device.c: 370: UEP0 = 0x06|0x10;
 10086  0021E0  0E16               	movlw	22
 10087  0021E2  6E70               	movwf	3952,c	;volatile
 10088                           
 10089                           ; BSR set to: 0
 10090                           ;usb_device.c: 372: BDT[0].ADR = ((uint16_t)(&SetupPkt));
 10091  0021E4  0E04               	movlw	4
 10092  0021E6  0104               	movlb	4	; () banked
 10093  0021E8  6F03               	movwf	3,b	;volatile
 10094  0021EA  0E20               	movlw	32
 10095  0021EC  0104               	movlb	4	; () banked
 10096  0021EE  6F02               	movwf	2,b	;volatile
 10097                           
 10098                           ; BSR set to: 4
 10099                           ;usb_device.c: 373: BDT[0].CNT = 8;
 10100  0021F0  0E08               	movlw	8
 10101  0021F2  0104               	movlb	4	; () banked
 10102  0021F4  6F01               	movwf	1,b	;volatile
 10103                           
 10104                           ; BSR set to: 4
 10105                           ;usb_device.c: 374: BDT[0].STAT.Val = 0x00|0x04;
 10106  0021F6  0E04               	movlw	4
 10107  0021F8  0104               	movlb	4	; () banked
 10108  0021FA  6F00               	movwf	0,b	;volatile
 10109                           
 10110                           ; BSR set to: 4
 10111                           ;usb_device.c: 375: BDT[0].STAT.Val |= 0x80;
 10112  0021FC  0104               	movlb	4	; () banked
 10113  0021FE  8F00               	bsf	0,7,b	;volatile
 10114                           
 10115                           ; BSR set to: 4
 10116                           ;usb_device.c: 378: USBActiveConfiguration = 0;
 10117  002200  0E00               	movlw	0
 10118  002202  6E3F               	movwf	_USBActiveConfiguration,c	;volatile
 10119                           
 10120                           ; BSR set to: 4
 10121                           ;usb_device.c: 380: USB1msTickCount = 0;
 10122  002204  0E00               	movlw	0
 10123  002206  6E25               	movwf	_USB1msTickCount,c	;volatile
 10124  002208  0E00               	movlw	0
 10125  00220A  6E26               	movwf	_USB1msTickCount+1,c	;volatile
 10126  00220C  0E00               	movlw	0
 10127  00220E  6E27               	movwf	_USB1msTickCount+2,c	;volatile
 10128  002210  0E00               	movlw	0
 10129  002212  6E28               	movwf	_USB1msTickCount+3,c	;volatile
 10130                           
 10131                           ; BSR set to: 4
 10132                           ;usb_device.c: 381: USBTicksSinceSuspendEnd = 0;
 10133  002214  0E00               	movlw	0
 10134  002216  6E3B               	movwf	_USBTicksSinceSuspendEnd,c	;volatile
 10135                           
 10136                           ; BSR set to: 4
 10137                           ;usb_device.c: 384: USBDeviceState = DETACHED_STATE;
 10138  002218  0E00               	movlw	0
 10139  00221A  6E37               	movwf	_USBDeviceState,c	;volatile
 10140                           
 10141                           ; BSR set to: 4
 10142  00221C  0012               	return	
 10143  00221E                     __end_ofi2_USBDeviceInit:
 10144                           	opt stack 0
 10145                           pclatu	equ	0xFFB
 10146                           pclath	equ	0xFFA
 10147                           tblptru	equ	0xFF8
 10148                           tblptrh	equ	0xFF7
 10149                           tblptrl	equ	0xFF6
 10150                           tablat	equ	0xFF5
 10151                           prodh	equ	0xFF4
 10152                           prodl	equ	0xFF3
 10153                           intcon	equ	0xFF2
 10154                           indf0	equ	0xFEF
 10155                           postinc0	equ	0xFEE
 10156                           fsr0h	equ	0xFEA
 10157                           fsr0l	equ	0xFE9
 10158                           wreg	equ	0xFE8
 10159                           fsr1h	equ	0xFE2
 10160                           fsr1l	equ	0xFE1
 10161                           bsr	equ	0xFE0
 10162                           indf2	equ	0xFDF
 10163                           postinc2	equ	0xFDE
 10164                           postdec2	equ	0xFDD
 10165                           plusw2	equ	0xFDB
 10166                           fsr2h	equ	0xFDA
 10167                           fsr2l	equ	0xFD9
 10168                           status	equ	0xFD8
 10169                           
 10170 ;; *************** function _USBWakeFromSuspend *****************
 10171 ;; Defined at:
 10172 ;;		line 2317 in file "usb_device.c"
 10173 ;; Parameters:    Size  Location     Type
 10174 ;;		None
 10175 ;; Auto vars:     Size  Location     Type
 10176 ;;		None
 10177 ;; Return value:  Size  Location     Type
 10178 ;;		None               void
 10179 ;; Registers used:
 10180 ;;		wreg, fsr2l, fsr2h, status,2, status,0, prodl, prodh, cstack
 10181 ;; Tracked objects:
 10182 ;;		On entry : 0/0
 10183 ;;		On exit  : 0/0
 10184 ;;		Unchanged: 0/0
 10185 ;; Data sizes:     COMRAM   BANK0   BANK1   BANK2   BANK3   BANK4  BANK5h   BANK6   BANK7
 10186 ;;      Params:         0       0       0       0       0       0       0       0       0
 10187 ;;      Locals:         0       0       0       0       0       0       0       0       0
 10188 ;;      Temps:          0       0       0       0       0       0       0       0       0
 10189 ;;      Totals:         0       0       0       0       0       0       0       0       0
 10190 ;;Total ram usage:        0 bytes
 10191 ;; Hardware stack levels used:    1
 10192 ;; Hardware stack levels required when called:    4
 10193 ;; This function calls:
 10194 ;;		_USER_USB_CALLBACK_EVENT_HANDLER
 10195 ;; This function is called by:
 10196 ;;		_USBDeviceTasks
 10197 ;; This function uses a non-reentrant model
 10198 ;;
 10199                           
 10200                           	psect	text30
 10201  003E62                     __ptext30:
 10202                           	opt stack 0
 10203  003E62                     _USBWakeFromSuspend:
 10204                           	opt stack 19
 10205                           
 10206                           ;usb_device.c: 2319: USBBusIsSuspended = 0;
 10207                           
 10208                           ; BSR set to: 4
 10209                           ;incstack = 0
 10210  003E62  0E00               	movlw	0
 10211  003E64  6E33               	movwf	_USBBusIsSuspended,c	;volatile
 10212                           
 10213                           ;usb_device.c: 2325: USER_USB_CALLBACK_EVENT_HANDLER(EVENT_RESUME,0,0);
 10214  003E66  0E00               	movlw	0
 10215  003E68  0100               	movlb	0	; () banked
 10216  003E6A  6F67               	movwf	(USER_USB_CALLBACK_EVENT_HANDLER@event+1)& (0+255),b
 10217  003E6C  0E74               	movlw	116
 10218  003E6E  0100               	movlb	0	; () banked
 10219  003E70  6F66               	movwf	USER_USB_CALLBACK_EVENT_HANDLER@event& (0+255),b
 10220  003E72  0E00               	movlw	0
 10221  003E74  0100               	movlb	0	; () banked
 10222  003E76  6F69               	movwf	(USER_USB_CALLBACK_EVENT_HANDLER@pdata+1)& (0+255),b
 10223  003E78  0E00               	movlw	0
 10224  003E7A  0100               	movlb	0	; () banked
 10225  003E7C  6F68               	movwf	USER_USB_CALLBACK_EVENT_HANDLER@pdata& (0+255),b
 10226  003E7E  0E00               	movlw	0
 10227  003E80  0100               	movlb	0	; () banked
 10228  003E82  6F6B               	movwf	(USER_USB_CALLBACK_EVENT_HANDLER@size+1)& (0+255),b
 10229  003E84  0E00               	movlw	0
 10230  003E86  0100               	movlb	0	; () banked
 10231  003E88  6F6A               	movwf	USER_USB_CALLBACK_EVENT_HANDLER@size& (0+255),b
 10232  003E8A  EC2A  F01E         	call	_USER_USB_CALLBACK_EVENT_HANDLER	;wreg free
 10233                           
 10234                           ;usb_device.c: 2332: UCONbits.SUSPND = 0;
 10235  003E8E  926D               	bcf	3949,1,c	;volatile
 10236                           
 10237                           ;usb_device.c: 2337: UIEbits.ACTVIE = 0;
 10238  003E90  9469               	bcf	3945,2,c	;volatile
 10239                           
 10240                           ;usb_device.c: 2355: while(UIRbits.ACTVIF)
 10241  003E92  D001               	goto	i2l7067
 10242  003E94                     i2l7065:
 10243                           
 10244                           ;usb_device.c: 2357: {
 10245                           ;usb_device.c: 2358: (UIR &= 0xFB);
 10246  003E94  9468               	bcf	3944,2,c	;volatile
 10247  003E96                     i2l7067:
 10248  003E96  B468               	btfsc	3944,2,c	;volatile
 10249  003E98  D7FD               	goto	i2l7065
 10250                           
 10251                           ;usb_device.c: 2359: }
 10252                           ;usb_device.c: 2361: USBTicksSinceSuspendEnd = 0;
 10253  003E9A  0E00               	movlw	0
 10254  003E9C  6E3B               	movwf	_USBTicksSinceSuspendEnd,c	;volatile
 10255  003E9E  0012               	return	
 10256  003EA0                     __end_of_USBWakeFromSuspend:
 10257                           	opt stack 0
 10258                           pclatu	equ	0xFFB
 10259                           pclath	equ	0xFFA
 10260                           tblptru	equ	0xFF8
 10261                           tblptrh	equ	0xFF7
 10262                           tblptrl	equ	0xFF6
 10263                           tablat	equ	0xFF5
 10264                           prodh	equ	0xFF4
 10265                           prodl	equ	0xFF3
 10266                           intcon	equ	0xFF2
 10267                           indf0	equ	0xFEF
 10268                           postinc0	equ	0xFEE
 10269                           fsr0h	equ	0xFEA
 10270                           fsr0l	equ	0xFE9
 10271                           wreg	equ	0xFE8
 10272                           fsr1h	equ	0xFE2
 10273                           fsr1l	equ	0xFE1
 10274                           bsr	equ	0xFE0
 10275                           indf2	equ	0xFDF
 10276                           postinc2	equ	0xFDE
 10277                           postdec2	equ	0xFDD
 10278                           plusw2	equ	0xFDB
 10279                           fsr2h	equ	0xFDA
 10280                           fsr2l	equ	0xFD9
 10281                           status	equ	0xFD8
 10282                           
 10283 ;; *************** function _USBSuspend *****************
 10284 ;; Defined at:
 10285 ;;		line 2259 in file "usb_device.c"
 10286 ;; Parameters:    Size  Location     Type
 10287 ;;		None
 10288 ;; Auto vars:     Size  Location     Type
 10289 ;;		None
 10290 ;; Return value:  Size  Location     Type
 10291 ;;		None               void
 10292 ;; Registers used:
 10293 ;;		wreg, fsr2l, fsr2h, status,2, status,0, prodl, prodh, cstack
 10294 ;; Tracked objects:
 10295 ;;		On entry : 0/0
 10296 ;;		On exit  : 0/0
 10297 ;;		Unchanged: 0/0
 10298 ;; Data sizes:     COMRAM   BANK0   BANK1   BANK2   BANK3   BANK4  BANK5h   BANK6   BANK7
 10299 ;;      Params:         0       0       0       0       0       0       0       0       0
 10300 ;;      Locals:         0       0       0       0       0       0       0       0       0
 10301 ;;      Temps:          0       0       0       0       0       0       0       0       0
 10302 ;;      Totals:         0       0       0       0       0       0       0       0       0
 10303 ;;Total ram usage:        0 bytes
 10304 ;; Hardware stack levels used:    1
 10305 ;; Hardware stack levels required when called:    4
 10306 ;; This function calls:
 10307 ;;		_USER_USB_CALLBACK_EVENT_HANDLER
 10308 ;; This function is called by:
 10309 ;;		_USBDeviceTasks
 10310 ;; This function uses a non-reentrant model
 10311 ;;
 10312                           
 10313                           	psect	text31
 10314  003F16                     __ptext31:
 10315                           	opt stack 0
 10316  003F16                     _USBSuspend:
 10317                           	opt stack 19
 10318                           
 10319                           ;usb_device.c: 2284: UIEbits.ACTVIE = 1;
 10320                           
 10321                           ;incstack = 0
 10322  003F16  8469               	bsf	3945,2,c	;volatile
 10323                           
 10324                           ;usb_device.c: 2285: (UIR &= 0xEF);
 10325  003F18  9868               	bcf	3944,4,c	;volatile
 10326                           
 10327                           ;usb_device.c: 2288: UCONbits.SUSPND = 1;
 10328  003F1A  826D               	bsf	3949,1,c	;volatile
 10329                           
 10330                           ;usb_device.c: 2291: USBBusIsSuspended = 1;
 10331  003F1C  0E01               	movlw	1
 10332  003F1E  6E33               	movwf	_USBBusIsSuspended,c	;volatile
 10333                           
 10334                           ;usb_device.c: 2292: USBTicksSinceSuspendEnd = 0;
 10335  003F20  0E00               	movlw	0
 10336  003F22  6E3B               	movwf	_USBTicksSinceSuspendEnd,c	;volatile
 10337                           
 10338                           ;usb_device.c: 2299: USER_USB_CALLBACK_EVENT_HANDLER(EVENT_SUSPEND,0,0);
 10339  003F24  0E00               	movlw	0
 10340  003F26  0100               	movlb	0	; () banked
 10341  003F28  6F67               	movwf	(USER_USB_CALLBACK_EVENT_HANDLER@event+1)& (0+255),b
 10342  003F2A  0E75               	movlw	117
 10343  003F2C  0100               	movlb	0	; () banked
 10344  003F2E  6F66               	movwf	USER_USB_CALLBACK_EVENT_HANDLER@event& (0+255),b
 10345  003F30  0E00               	movlw	0
 10346  003F32  0100               	movlb	0	; () banked
 10347  003F34  6F69               	movwf	(USER_USB_CALLBACK_EVENT_HANDLER@pdata+1)& (0+255),b
 10348  003F36  0E00               	movlw	0
 10349  003F38  0100               	movlb	0	; () banked
 10350  003F3A  6F68               	movwf	USER_USB_CALLBACK_EVENT_HANDLER@pdata& (0+255),b
 10351  003F3C  0E00               	movlw	0
 10352  003F3E  0100               	movlb	0	; () banked
 10353  003F40  6F6B               	movwf	(USER_USB_CALLBACK_EVENT_HANDLER@size+1)& (0+255),b
 10354  003F42  0E00               	movlw	0
 10355  003F44  0100               	movlb	0	; () banked
 10356  003F46  6F6A               	movwf	USER_USB_CALLBACK_EVENT_HANDLER@size& (0+255),b
 10357  003F48  EC2A  F01E         	call	_USER_USB_CALLBACK_EVENT_HANDLER	;wreg free
 10358  003F4C  0012               	return	
 10359  003F4E                     __end_of_USBSuspend:
 10360                           	opt stack 0
 10361                           pclatu	equ	0xFFB
 10362                           pclath	equ	0xFFA
 10363                           tblptru	equ	0xFF8
 10364                           tblptrh	equ	0xFF7
 10365                           tblptrl	equ	0xFF6
 10366                           tablat	equ	0xFF5
 10367                           prodh	equ	0xFF4
 10368                           prodl	equ	0xFF3
 10369                           intcon	equ	0xFF2
 10370                           indf0	equ	0xFEF
 10371                           postinc0	equ	0xFEE
 10372                           fsr0h	equ	0xFEA
 10373                           fsr0l	equ	0xFE9
 10374                           wreg	equ	0xFE8
 10375                           fsr1h	equ	0xFE2
 10376                           fsr1l	equ	0xFE1
 10377                           bsr	equ	0xFE0
 10378                           indf2	equ	0xFDF
 10379                           postinc2	equ	0xFDE
 10380                           postdec2	equ	0xFDD
 10381                           plusw2	equ	0xFDB
 10382                           fsr2h	equ	0xFDA
 10383                           fsr2l	equ	0xFD9
 10384                           status	equ	0xFD8
 10385                           
 10386 ;; *************** function _USBStallHandler *****************
 10387 ;; Defined at:
 10388 ;;		line 2216 in file "usb_device.c"
 10389 ;; Parameters:    Size  Location     Type
 10390 ;;		None
 10391 ;; Auto vars:     Size  Location     Type
 10392 ;;		None
 10393 ;; Return value:  Size  Location     Type
 10394 ;;		None               void
 10395 ;; Registers used:
 10396 ;;		wreg, fsr2l, fsr2h, status,2, status,0
 10397 ;; Tracked objects:
 10398 ;;		On entry : 0/0
 10399 ;;		On exit  : 0/0
 10400 ;;		Unchanged: 0/0
 10401 ;; Data sizes:     COMRAM   BANK0   BANK1   BANK2   BANK3   BANK4  BANK5h   BANK6   BANK7
 10402 ;;      Params:         0       0       0       0       0       0       0       0       0
 10403 ;;      Locals:         0       0       0       0       0       0       0       0       0
 10404 ;;      Temps:          0       0       0       0       0       0       0       0       0
 10405 ;;      Totals:         0       0       0       0       0       0       0       0       0
 10406 ;;Total ram usage:        0 bytes
 10407 ;; Hardware stack levels used:    1
 10408 ;; This function calls:
 10409 ;;		Nothing
 10410 ;; This function is called by:
 10411 ;;		_USBDeviceTasks
 10412 ;; This function uses a non-reentrant model
 10413 ;;
 10414                           
 10415                           	psect	text32
 10416  003EA0                     __ptext32:
 10417                           	opt stack 0
 10418  003EA0                     _USBStallHandler:
 10419                           	opt stack 23
 10420                           
 10421                           ;usb_device.c: 2228: if(UEP0bits.EPSTALL == 1)
 10422                           
 10423                           ;incstack = 0
 10424  003EA0  A070               	btfss	3952,0,c	;volatile
 10425  003EA2  D01B               	goto	i2l299
 10426                           
 10427                           ;usb_device.c: 2229: {
 10428                           ;usb_device.c: 2231: if((pBDTEntryEP0OutCurrent->STAT.Val == 0x80) && (pBDTEntryIn[0]->S
      +                          TAT.Val == (0x80|0x04)))
 10429  003EA4  0E80               	movlw	128
 10430  003EA6  C02D  FFD9         	movff	_pBDTEntryEP0OutCurrent,fsr2l
 10431  003EAA  C02E  FFDA         	movff	_pBDTEntryEP0OutCurrent+1,fsr2h
 10432  003EAE  62DF               	cpfseq	indf2,c
 10433  003EB0  D013               	goto	i2l7103
 10434  003EB2  0E84               	movlw	132
 10435  003EB4  C0AB  FFD9         	movff	_pBDTEntryIn,fsr2l
 10436  003EB8  C0AC  FFDA         	movff	_pBDTEntryIn+1,fsr2h
 10437  003EBC  62DF               	cpfseq	indf2,c
 10438  003EBE  D00C               	goto	i2l7103
 10439                           
 10440                           ;usb_device.c: 2232: {
 10441                           ;usb_device.c: 2234: pBDTEntryEP0OutCurrent->STAT.Val = 0x00|(0x08 & 0x08)|0x04;
 10442  003EC0  C02D  FFD9         	movff	_pBDTEntryEP0OutCurrent,fsr2l
 10443  003EC4  C02E  FFDA         	movff	_pBDTEntryEP0OutCurrent+1,fsr2h
 10444  003EC8  0E0C               	movlw	12
 10445  003ECA  6EDF               	movwf	indf2,c
 10446                           
 10447                           ;usb_device.c: 2235: pBDTEntryEP0OutCurrent->STAT.Val |= 0x80;
 10448  003ECC  C02D  FFD9         	movff	_pBDTEntryEP0OutCurrent,fsr2l
 10449  003ED0  C02E  FFDA         	movff	_pBDTEntryEP0OutCurrent+1,fsr2h
 10450  003ED4  0E00               	movlw	0
 10451  003ED6  8EDB               	bsf	plusw2,7,c
 10452  003ED8                     i2l7103:
 10453                           
 10454                           ;usb_device.c: 2236: }
 10455                           ;usb_device.c: 2237: UEP0bits.EPSTALL = 0;
 10456  003ED8  9070               	bcf	3952,0,c	;volatile
 10457  003EDA                     i2l299:
 10458                           
 10459                           ;usb_device.c: 2238: }
 10460                           ;usb_device.c: 2240: (UIR &= 0xDF);
 10461  003EDA  9A68               	bcf	3944,5,c	;volatile
 10462  003EDC  0012               	return	
 10463  003EDE                     __end_of_USBStallHandler:
 10464                           	opt stack 0
 10465                           pclatu	equ	0xFFB
 10466                           pclath	equ	0xFFA
 10467                           tblptru	equ	0xFF8
 10468                           tblptrh	equ	0xFF7
 10469                           tblptrl	equ	0xFF6
 10470                           tablat	equ	0xFF5
 10471                           prodh	equ	0xFF4
 10472                           prodl	equ	0xFF3
 10473                           intcon	equ	0xFF2
 10474                           indf0	equ	0xFEF
 10475                           postinc0	equ	0xFEE
 10476                           fsr0h	equ	0xFEA
 10477                           fsr0l	equ	0xFE9
 10478                           wreg	equ	0xFE8
 10479                           fsr1h	equ	0xFE2
 10480                           fsr1l	equ	0xFE1
 10481                           bsr	equ	0xFE0
 10482                           indf2	equ	0xFDF
 10483                           postinc2	equ	0xFDE
 10484                           postdec2	equ	0xFDD
 10485                           plusw2	equ	0xFDB
 10486                           fsr2h	equ	0xFDA
 10487                           fsr2l	equ	0xFD9
 10488                           status	equ	0xFD8
 10489                           
 10490 ;; *************** function _USBIncrement1msInternalTimers *****************
 10491 ;; Defined at:
 10492 ;;		line 3045 in file "usb_device.c"
 10493 ;; Parameters:    Size  Location     Type
 10494 ;;		None
 10495 ;; Auto vars:     Size  Location     Type
 10496 ;;		None
 10497 ;; Return value:  Size  Location     Type
 10498 ;;		None               void
 10499 ;; Registers used:
 10500 ;;		wreg, status,2, status,0
 10501 ;; Tracked objects:
 10502 ;;		On entry : 0/0
 10503 ;;		On exit  : 0/0
 10504 ;;		Unchanged: 0/0
 10505 ;; Data sizes:     COMRAM   BANK0   BANK1   BANK2   BANK3   BANK4  BANK5h   BANK6   BANK7
 10506 ;;      Params:         0       0       0       0       0       0       0       0       0
 10507 ;;      Locals:         0       0       0       0       0       0       0       0       0
 10508 ;;      Temps:          0       0       0       0       0       0       0       0       0
 10509 ;;      Totals:         0       0       0       0       0       0       0       0       0
 10510 ;;Total ram usage:        0 bytes
 10511 ;; Hardware stack levels used:    1
 10512 ;; This function calls:
 10513 ;;		Nothing
 10514 ;; This function is called by:
 10515 ;;		_USBDeviceTasks
 10516 ;; This function uses a non-reentrant model
 10517 ;;
 10518                           
 10519                           	psect	text33
 10520  004066                     __ptext33:
 10521                           	opt stack 0
 10522  004066                     _USBIncrement1msInternalTimers:
 10523                           	opt stack 23
 10524                           
 10525                           ;usb_device.c: 3053: USB1msTickCount++;
 10526                           
 10527                           ;incstack = 0
 10528  004066  0E01               	movlw	1
 10529  004068  2625               	addwf	_USB1msTickCount,f,c	;volatile
 10530  00406A  0E00               	movlw	0
 10531  00406C  2226               	addwfc	_USB1msTickCount+1,f,c	;volatile
 10532  00406E  2227               	addwfc	_USB1msTickCount+2,f,c	;volatile
 10533  004070  2228               	addwfc	_USB1msTickCount+3,f,c	;volatile
 10534                           
 10535                           ;usb_device.c: 3054: if(USBBusIsSuspended == 0)
 10536  004072  6633               	tstfsz	_USBBusIsSuspended,c	;volatile
 10537  004074  D004               	goto	i2l393
 10538                           
 10539                           ;usb_device.c: 3055: {
 10540                           ;usb_device.c: 3056: USBTicksSinceSuspendEnd++;
 10541  004076  2A3B               	incf	_USBTicksSinceSuspendEnd,f,c	;volatile
 10542                           
 10543                           ;usb_device.c: 3058: if(USBTicksSinceSuspendEnd == 0)
 10544  004078  663B               	tstfsz	_USBTicksSinceSuspendEnd,c	;volatile
 10545  00407A  D001               	goto	i2l393
 10546                           
 10547                           ;usb_device.c: 3059: {
 10548                           ;usb_device.c: 3060: USBTicksSinceSuspendEnd = 255;
 10549  00407C  683B               	setf	_USBTicksSinceSuspendEnd,c	;volatile
 10550  00407E                     i2l393:
 10551  00407E  0012               	return	
 10552  004080                     __end_of_USBIncrement1msInternalTimers:
 10553                           	opt stack 0
 10554                           pclatu	equ	0xFFB
 10555                           pclath	equ	0xFFA
 10556                           tblptru	equ	0xFF8
 10557                           tblptrh	equ	0xFF7
 10558                           tblptrl	equ	0xFF6
 10559                           tablat	equ	0xFF5
 10560                           prodh	equ	0xFF4
 10561                           prodl	equ	0xFF3
 10562                           intcon	equ	0xFF2
 10563                           indf0	equ	0xFEF
 10564                           postinc0	equ	0xFEE
 10565                           fsr0h	equ	0xFEA
 10566                           fsr0l	equ	0xFE9
 10567                           wreg	equ	0xFE8
 10568                           fsr1h	equ	0xFE2
 10569                           fsr1l	equ	0xFE1
 10570                           bsr	equ	0xFE0
 10571                           indf2	equ	0xFDF
 10572                           postinc2	equ	0xFDE
 10573                           postdec2	equ	0xFDD
 10574                           plusw2	equ	0xFDB
 10575                           fsr2h	equ	0xFDA
 10576                           fsr2l	equ	0xFD9
 10577                           status	equ	0xFD8
 10578                           
 10579 ;; *************** function _USBCtrlEPService *****************
 10580 ;; Defined at:
 10581 ;;		line 2386 in file "usb_device.c"
 10582 ;; Parameters:    Size  Location     Type
 10583 ;;		None
 10584 ;; Auto vars:     Size  Location     Type
 10585 ;;  setup_cnt       1   26[BANK0 ] unsigned char 
 10586 ;; Return value:  Size  Location     Type
 10587 ;;		None               void
 10588 ;; Registers used:
 10589 ;;		wreg, fsr1l, fsr1h, fsr2l, fsr2h, status,2, status,0, tblptrl, tblptrh, tblptru, prodl, prodh, cstack
 10590 ;; Tracked objects:
 10591 ;;		On entry : 0/0
 10592 ;;		On exit  : 0/0
 10593 ;;		Unchanged: 0/0
 10594 ;; Data sizes:     COMRAM   BANK0   BANK1   BANK2   BANK3   BANK4  BANK5h   BANK6   BANK7
 10595 ;;      Params:         0       0       0       0       0       0       0       0       0
 10596 ;;      Locals:         0       1       0       0       0       0       0       0       0
 10597 ;;      Temps:          0       2       0       0       0       0       0       0       0
 10598 ;;      Totals:         0       3       0       0       0       0       0       0       0
 10599 ;;Total ram usage:        3 bytes
 10600 ;; Hardware stack levels used:    1
 10601 ;; Hardware stack levels required when called:    7
 10602 ;; This function calls:
 10603 ;;		_USBCtrlTrfInHandler
 10604 ;;		_USBCtrlTrfOutHandler
 10605 ;;		_USBCtrlTrfSetupHandler
 10606 ;; This function is called by:
 10607 ;;		_USBDeviceTasks
 10608 ;; This function uses a non-reentrant model
 10609 ;;
 10610                           
 10611                           	psect	text34
 10612  00312C                     __ptext34:
 10613                           	opt stack 0
 10614  00312C                     _USBCtrlEPService:
 10615                           	opt stack 16
 10616                           
 10617                           ;usb_device.c: 2392: USBStatusStageTimeoutCounter = (uint8_t)45;
 10618                           
 10619                           ;incstack = 0
 10620  00312C  0E2D               	movlw	45
 10621  00312E  6E3A               	movwf	_USBStatusStageTimeoutCounter,c	;volatile
 10622                           
 10623                           ;usb_device.c: 2396: if((USTATcopy.Val & ~0x02) == 0x00)
 10624  003130  C041  F078         	movff	_USTATcopy,??_USBCtrlEPService	;volatile
 10625  003134  0EFD               	movlw	253
 10626  003136  0100               	movlb	0	; () banked
 10627  003138  1778               	andwf	??_USBCtrlEPService& (0+255),f,b
 10628  00313A  A4D8               	btfss	status,2,c
 10629  00313C  D061               	goto	i2l7137
 10630                           
 10631                           ; BSR set to: 0
 10632                           ;usb_device.c: 2397: {
 10633                           ;usb_device.c: 2400: pBDTEntryEP0OutCurrent = (volatile BDT_ENTRY*)&BDT[(USTATcopy.Val &
      +                           0x7E)>>1];
 10634  00313E  C041  F078         	movff	_USTATcopy,??_USBCtrlEPService	;volatile
 10635  003142  0100               	movlb	0	; () banked
 10636  003144  90D8               	bcf	status,0,c
 10637  003146  3378               	rrcf	??_USBCtrlEPService& (0+255),f,b
 10638  003148  0E3F               	movlw	63
 10639  00314A  0100               	movlb	0	; () banked
 10640  00314C  1778               	andwf	??_USBCtrlEPService& (0+255),f,b
 10641  00314E  0100               	movlb	0	; () banked
 10642  003150  5178               	movf	??_USBCtrlEPService& (0+255),w,b
 10643  003152  0D04               	mullw	4
 10644  003154  0104               	movlb	4	; () banked
 10645  003156  0E00               	movlw	0	;volatile
 10646  003158  24F3               	addwf	prodl,w,c
 10647  00315A  6E2D               	movwf	_pBDTEntryEP0OutCurrent,c
 10648  00315C  0104               	movlb	4	; () banked
 10649  00315E  0E04               	movlw	4	;volatile
 10650  003160  20F4               	addwfc	prodh,w,c
 10651  003162  6E2E               	movwf	_pBDTEntryEP0OutCurrent+1,c
 10652                           
 10653                           ; BSR set to: 4
 10654                           ;usb_device.c: 2408: pBDTEntryEP0OutNext = pBDTEntryEP0OutCurrent;
 10655  003164  C02E  F030         	movff	_pBDTEntryEP0OutCurrent+1,_pBDTEntryEP0OutNext+1
 10656  003168  C02D  F02F         	movff	_pBDTEntryEP0OutCurrent,_pBDTEntryEP0OutNext
 10657                           
 10658                           ; BSR set to: 4
 10659                           ;usb_device.c: 2410: ((uint8_t_VAL*)&pBDTEntryEP0OutNext)->Val ^= 0x0004;
 10660  00316C  0E04               	movlw	4
 10661  00316E  1A2F               	xorwf	_pBDTEntryEP0OutNext,f,c
 10662                           
 10663                           ; BSR set to: 4
 10664                           ;usb_device.c: 2413: if(pBDTEntryEP0OutCurrent->STAT.PID == 0xD)
 10665  003170  C02D  FFD9         	movff	_pBDTEntryEP0OutCurrent,fsr2l
 10666  003174  C02E  FFDA         	movff	_pBDTEntryEP0OutCurrent+1,fsr2h
 10667  003178  30DF               	rrcf	indf2,w,c
 10668  00317A  32E8               	rrcf	wreg,f,c
 10669  00317C  0B0F               	andlw	15
 10670  00317E  0A0D               	xorlw	13
 10671  003180  A4D8               	btfss	status,2,c
 10672  003182  D03B               	goto	i2l7135
 10673                           
 10674                           ; BSR set to: 4
 10675                           ;usb_device.c: 2414: {
 10676                           ;usb_device.c: 2415: unsigned char setup_cnt;
 10677                           ;usb_device.c: 2421: for(setup_cnt = 0; setup_cnt < 8u; setup_cnt++)
 10678  003184  0E00               	movlw	0
 10679  003186  0100               	movlb	0	; () banked
 10680  003188  6F7A               	movwf	USBCtrlEPService@setup_cnt& (0+255),b
 10681  00318A  D026               	goto	L58
 10682  00318C                     i2l7123:
 10683                           
 10684                           ; BSR set to: 0
 10685                           ;usb_device.c: 2422: {
 10686                           ;usb_device.c: 2423: *(uint8_t*)((uint8_t*)&SetupPkt + setup_cnt) = *(uint8_t*)((void *)
      +                          (pBDTEntryEP0OutCurrent->ADR));
 10687  00318C  EE20 F002          	lfsr	2,2
 10688  003190  502D               	movf	_pBDTEntryEP0OutCurrent,w,c
 10689  003192  26D9               	addwf	fsr2l,f,c
 10690  003194  502E               	movf	_pBDTEntryEP0OutCurrent+1,w,c
 10691  003196  22DA               	addwfc	fsr2h,f,c
 10692  003198  CFDE F078          	movff	postinc2,??_USBCtrlEPService
 10693  00319C  CFDD F079          	movff	postdec2,??_USBCtrlEPService+1
 10694  0031A0  C078  FFD9         	movff	??_USBCtrlEPService,fsr2l
 10695  0031A4  C079  FFDA         	movff	??_USBCtrlEPService+1,fsr2h
 10696  0031A8  0100               	movlb	0	; () banked
 10697  0031AA  517A               	movf	USBCtrlEPService@setup_cnt& (0+255),w,b
 10698  0031AC  0D01               	mullw	1
 10699  0031AE  0104               	movlb	4	; () banked
 10700  0031B0  0E20               	movlw	32	;volatile
 10701  0031B2  24F3               	addwf	prodl,w,c
 10702  0031B4  6EE1               	movwf	fsr1l,c
 10703  0031B6  0104               	movlb	4	; () banked
 10704  0031B8  0E04               	movlw	4	;volatile
 10705  0031BA  20F4               	addwfc	prodh,w,c
 10706  0031BC  6EE2               	movwf	fsr1h,c
 10707  0031BE  CFDF FFE7          	movff	indf2,indf1
 10708                           
 10709                           ; BSR set to: 4
 10710                           ;usb_device.c: 2424: pBDTEntryEP0OutCurrent->ADR++;
 10711  0031C2  EE20 F002          	lfsr	2,2
 10712  0031C6  502D               	movf	_pBDTEntryEP0OutCurrent,w,c
 10713  0031C8  26D9               	addwf	fsr2l,f,c
 10714  0031CA  502E               	movf	_pBDTEntryEP0OutCurrent+1,w,c
 10715  0031CC  22DA               	addwfc	fsr2h,f,c
 10716  0031CE  2ADE               	incf	postinc2,f,c
 10717  0031D0  0E00               	movlw	0
 10718  0031D2  22DD               	addwfc	postdec2,f,c
 10719                           
 10720                           ; BSR set to: 4
 10721  0031D4  0100               	movlb	0	; () banked
 10722  0031D6  2B7A               	incf	USBCtrlEPService@setup_cnt& (0+255),f,b
 10723  0031D8                     L58:
 10724                           
 10725                           ; BSR set to: 0
 10726  0031D8  0E07               	movlw	7
 10727  0031DA  0100               	movlb	0	; () banked
 10728  0031DC  657A               	cpfsgt	USBCtrlEPService@setup_cnt& (0+255),b
 10729  0031DE  D7D6               	goto	i2l7123
 10730                           
 10731                           ; BSR set to: 0
 10732                           ;usb_device.c: 2425: }
 10733                           ;usb_device.c: 2426: pBDTEntryEP0OutCurrent->ADR = ((uint16_t)(&SetupPkt));
 10734                           
 10735                           ; BSR set to: 0
 10736  0031E0  EE20 F002          	lfsr	2,2
 10737  0031E4  502D               	movf	_pBDTEntryEP0OutCurrent,w,c
 10738  0031E6  26D9               	addwf	fsr2l,f,c
 10739  0031E8  502E               	movf	_pBDTEntryEP0OutCurrent+1,w,c
 10740  0031EA  22DA               	addwfc	fsr2h,f,c
 10741  0031EC  0E20               	movlw	32
 10742  0031EE  6EDE               	movwf	postinc2,c
 10743  0031F0  0E04               	movlw	4
 10744  0031F2  6EDD               	movwf	postdec2,c
 10745                           
 10746                           ; BSR set to: 0
 10747                           ;usb_device.c: 2429: USBCtrlTrfSetupHandler();
 10748  0031F4  EC97  F01C         	call	_USBCtrlTrfSetupHandler	;wreg free
 10749                           
 10750                           ;usb_device.c: 2430: }
 10751  0031F8  D00E               	goto	i2l320
 10752  0031FA                     i2l7135:
 10753                           
 10754                           ;usb_device.c: 2431: else
 10755                           ;usb_device.c: 2432: {
 10756                           ;usb_device.c: 2434: USBCtrlTrfOutHandler();
 10757  0031FA  ECBC  F01E         	call	_USBCtrlTrfOutHandler	;wreg free
 10758  0031FE  D00B               	goto	i2l320
 10759  003200                     i2l7137:
 10760                           
 10761                           ;usb_device.c: 2437: else if((USTATcopy.Val & ~0x02) == 0x04)
 10762  003200  C041  F078         	movff	_USTATcopy,??_USBCtrlEPService	;volatile
 10763  003204  0EFD               	movlw	253
 10764  003206  0100               	movlb	0	; () banked
 10765  003208  1778               	andwf	??_USBCtrlEPService& (0+255),f,b
 10766  00320A  0100               	movlb	0	; () banked
 10767  00320C  5178               	movf	??_USBCtrlEPService& (0+255),w,b
 10768  00320E  0A04               	xorlw	4
 10769  003210  B4D8               	btfsc	status,2,c
 10770                           
 10771                           ; BSR set to: 0
 10772                           ;usb_device.c: 2438: {
 10773                           ;usb_device.c: 2441: USBCtrlTrfInHandler();
 10774  003212  EC44  F01C         	call	_USBCtrlTrfInHandler	;wreg free
 10775  003216                     i2l320:
 10776  003216  0012               	return	
 10777  003218                     __end_of_USBCtrlEPService:
 10778                           	opt stack 0
 10779                           pclatu	equ	0xFFB
 10780                           pclath	equ	0xFFA
 10781                           tblptru	equ	0xFF8
 10782                           tblptrh	equ	0xFF7
 10783                           tblptrl	equ	0xFF6
 10784                           tablat	equ	0xFF5
 10785                           prodh	equ	0xFF4
 10786                           prodl	equ	0xFF3
 10787                           intcon	equ	0xFF2
 10788                           indf0	equ	0xFEF
 10789                           postinc0	equ	0xFEE
 10790                           fsr0h	equ	0xFEA
 10791                           fsr0l	equ	0xFE9
 10792                           wreg	equ	0xFE8
 10793                           indf1	equ	0xFE7
 10794                           fsr1h	equ	0xFE2
 10795                           fsr1l	equ	0xFE1
 10796                           bsr	equ	0xFE0
 10797                           indf2	equ	0xFDF
 10798                           postinc2	equ	0xFDE
 10799                           postdec2	equ	0xFDD
 10800                           plusw2	equ	0xFDB
 10801                           fsr2h	equ	0xFDA
 10802                           fsr2l	equ	0xFD9
 10803                           status	equ	0xFD8
 10804                           
 10805 ;; *************** function _USBCtrlTrfSetupHandler *****************
 10806 ;; Defined at:
 10807 ;;		line 2486 in file "usb_device.c"
 10808 ;; Parameters:    Size  Location     Type
 10809 ;;		None
 10810 ;; Auto vars:     Size  Location     Type
 10811 ;;		None
 10812 ;; Return value:  Size  Location     Type
 10813 ;;		None               void
 10814 ;; Registers used:
 10815 ;;		wreg, fsr1l, fsr1h, fsr2l, fsr2h, status,2, status,0, tblptrl, tblptrh, tblptru, prodl, prodh, cstack
 10816 ;; Tracked objects:
 10817 ;;		On entry : 0/0
 10818 ;;		On exit  : 0/0
 10819 ;;		Unchanged: 0/0
 10820 ;; Data sizes:     COMRAM   BANK0   BANK1   BANK2   BANK3   BANK4  BANK5h   BANK6   BANK7
 10821 ;;      Params:         0       0       0       0       0       0       0       0       0
 10822 ;;      Locals:         0       0       0       0       0       0       0       0       0
 10823 ;;      Temps:          0       0       0       0       0       0       0       0       0
 10824 ;;      Totals:         0       0       0       0       0       0       0       0       0
 10825 ;;Total ram usage:        0 bytes
 10826 ;; Hardware stack levels used:    1
 10827 ;; Hardware stack levels required when called:    6
 10828 ;; This function calls:
 10829 ;;		_USBCheckStdRequest
 10830 ;;		_USBCtrlEPServiceComplete
 10831 ;;		_USER_USB_CALLBACK_EVENT_HANDLER
 10832 ;; This function is called by:
 10833 ;;		_USBCtrlEPService
 10834 ;; This function uses a non-reentrant model
 10835 ;;
 10836                           
 10837                           	psect	text35
 10838  00392E                     __ptext35:
 10839                           	opt stack 0
 10840  00392E                     _USBCtrlTrfSetupHandler:
 10841                           	opt stack 16
 10842                           
 10843                           ;usb_device.c: 2491: shortPacketStatus = 0;
 10844                           
 10845                           ;incstack = 0
 10846  00392E  0E00               	movlw	0
 10847  003930  6E3E               	movwf	_shortPacketStatus,c	;volatile
 10848                           
 10849                           ;usb_device.c: 2492: USBDeferStatusStagePacket = 0;
 10850  003932  0E00               	movlw	0
 10851  003934  6E36               	movwf	_USBDeferStatusStagePacket,c	;volatile
 10852                           
 10853                           ;usb_device.c: 2493: USBDeferINDataStagePackets = 0;
 10854  003936  0E00               	movlw	0
 10855  003938  6E34               	movwf	_USBDeferINDataStagePackets,c	;volatile
 10856                           
 10857                           ;usb_device.c: 2494: USBDeferOUTDataStagePackets = 0;
 10858  00393A  0E00               	movlw	0
 10859  00393C  6E35               	movwf	_USBDeferOUTDataStagePackets,c	;volatile
 10860                           
 10861                           ;usb_device.c: 2495: BothEP0OutUOWNsSet = 0;
 10862  00393E  0E00               	movlw	0
 10863  003940  6E31               	movwf	_BothEP0OutUOWNsSet,c	;volatile
 10864                           
 10865                           ;usb_device.c: 2496: controlTransferState = 0;
 10866  003942  0E00               	movlw	0
 10867  003944  6E3C               	movwf	_controlTransferState,c	;volatile
 10868                           
 10869                           ;usb_device.c: 2505: pBDTEntryIn[0]->STAT.Val &= ~(0x80);
 10870  003946  C0AB  FFD9         	movff	_pBDTEntryIn,fsr2l
 10871  00394A  C0AC  FFDA         	movff	_pBDTEntryIn+1,fsr2h
 10872  00394E  0E7F               	movlw	127
 10873  003950  16DF               	andwf	indf2,f,c
 10874                           
 10875                           ;usb_device.c: 2506: ((uint8_t_VAL*)&pBDTEntryIn[0])->Val ^= 0x0004;
 10876  003952  0E04               	movlw	4
 10877  003954  0100               	movlb	0	; () banked
 10878  003956  1BAB               	xorwf	_pBDTEntryIn& (0+255),f,b
 10879                           
 10880                           ; BSR set to: 0
 10881                           ;usb_device.c: 2507: pBDTEntryIn[0]->STAT.Val &= ~(0x80);
 10882  003958  C0AB  FFD9         	movff	_pBDTEntryIn,fsr2l
 10883  00395C  C0AC  FFDA         	movff	_pBDTEntryIn+1,fsr2h
 10884  003960  0E7F               	movlw	127
 10885  003962  16DF               	andwf	indf2,f,c
 10886                           
 10887                           ; BSR set to: 0
 10888                           ;usb_device.c: 2508: ((uint8_t_VAL*)&pBDTEntryIn[0])->Val ^= 0x0004;
 10889  003964  0E04               	movlw	4
 10890  003966  0100               	movlb	0	; () banked
 10891  003968  1BAB               	xorwf	_pBDTEntryIn& (0+255),f,b
 10892                           
 10893                           ; BSR set to: 0
 10894                           ;usb_device.c: 2509: pBDTEntryEP0OutNext->STAT.Val &= ~(0x80);
 10895  00396A  C02F  FFD9         	movff	_pBDTEntryEP0OutNext,fsr2l
 10896  00396E  C030  FFDA         	movff	_pBDTEntryEP0OutNext+1,fsr2h
 10897  003972  0E7F               	movlw	127
 10898  003974  16DF               	andwf	indf2,f,c
 10899                           
 10900                           ; BSR set to: 0
 10901                           ;usb_device.c: 2511: inPipes[0].info.Val = 0;
 10902  003976  0E00               	movlw	0
 10903  003978  0100               	movlb	0	; () banked
 10904  00397A  6FC8               	movwf	(_inPipes+3)& (0+255),b	;volatile
 10905                           
 10906                           ; BSR set to: 0
 10907                           ;usb_device.c: 2512: inPipes[0].wCount.Val = 0;
 10908  00397C  0E00               	movlw	0
 10909  00397E  0100               	movlb	0	; () banked
 10910  003980  6FCA               	movwf	(_inPipes+5)& (0+255),b	;volatile
 10911  003982  0E00               	movlw	0
 10912  003984  0100               	movlb	0	; () banked
 10913  003986  6FC9               	movwf	(_inPipes+4)& (0+255),b	;volatile
 10914                           
 10915                           ; BSR set to: 0
 10916                           ;usb_device.c: 2513: outPipes[0].info.Val = 0;
 10917  003988  0E00               	movlw	0
 10918  00398A  0100               	movlb	0	; () banked
 10919  00398C  6FA6               	movwf	(_outPipes+3)& (0+255),b	;volatile
 10920                           
 10921                           ; BSR set to: 0
 10922                           ;usb_device.c: 2514: outPipes[0].wCount.Val = 0;
 10923  00398E  0E00               	movlw	0
 10924  003990  0100               	movlb	0	; () banked
 10925  003992  6FA8               	movwf	(_outPipes+5)& (0+255),b	;volatile
 10926  003994  0E00               	movlw	0
 10927  003996  0100               	movlb	0	; () banked
 10928  003998  6FA7               	movwf	(_outPipes+4)& (0+255),b	;volatile
 10929                           
 10930                           ; BSR set to: 0
 10931                           ;usb_device.c: 2520: USBCheckStdRequest();
 10932  00399A  ECA2  F016         	call	_USBCheckStdRequest	;wreg free
 10933                           
 10934                           ;usb_device.c: 2521: USER_USB_CALLBACK_EVENT_HANDLER(EVENT_EP0_REQUEST,0,0);
 10935  00399E  0E00               	movlw	0
 10936  0039A0  0100               	movlb	0	; () banked
 10937  0039A2  6F67               	movwf	(USER_USB_CALLBACK_EVENT_HANDLER@event+1)& (0+255),b
 10938  0039A4  0E03               	movlw	3
 10939  0039A6  0100               	movlb	0	; () banked
 10940  0039A8  6F66               	movwf	USER_USB_CALLBACK_EVENT_HANDLER@event& (0+255),b
 10941  0039AA  0E00               	movlw	0
 10942  0039AC  0100               	movlb	0	; () banked
 10943  0039AE  6F69               	movwf	(USER_USB_CALLBACK_EVENT_HANDLER@pdata+1)& (0+255),b
 10944  0039B0  0E00               	movlw	0
 10945  0039B2  0100               	movlb	0	; () banked
 10946  0039B4  6F68               	movwf	USER_USB_CALLBACK_EVENT_HANDLER@pdata& (0+255),b
 10947  0039B6  0E00               	movlw	0
 10948  0039B8  0100               	movlb	0	; () banked
 10949  0039BA  6F6B               	movwf	(USER_USB_CALLBACK_EVENT_HANDLER@size+1)& (0+255),b
 10950  0039BC  0E00               	movlw	0
 10951  0039BE  0100               	movlb	0	; () banked
 10952  0039C0  6F6A               	movwf	USER_USB_CALLBACK_EVENT_HANDLER@size& (0+255),b
 10953  0039C2  EC2A  F01E         	call	_USER_USB_CALLBACK_EVENT_HANDLER	;wreg free
 10954                           
 10955                           ;usb_device.c: 2534: USBCtrlEPServiceComplete();
 10956  0039C6  EC1E  F018         	call	_USBCtrlEPServiceComplete	;wreg free
 10957  0039CA  0012               	return	
 10958  0039CC                     __end_of_USBCtrlTrfSetupHandler:
 10959                           	opt stack 0
 10960                           pclatu	equ	0xFFB
 10961                           pclath	equ	0xFFA
 10962                           tblptru	equ	0xFF8
 10963                           tblptrh	equ	0xFF7
 10964                           tblptrl	equ	0xFF6
 10965                           tablat	equ	0xFF5
 10966                           prodh	equ	0xFF4
 10967                           prodl	equ	0xFF3
 10968                           intcon	equ	0xFF2
 10969                           indf0	equ	0xFEF
 10970                           postinc0	equ	0xFEE
 10971                           fsr0h	equ	0xFEA
 10972                           fsr0l	equ	0xFE9
 10973                           wreg	equ	0xFE8
 10974                           indf1	equ	0xFE7
 10975                           fsr1h	equ	0xFE2
 10976                           fsr1l	equ	0xFE1
 10977                           bsr	equ	0xFE0
 10978                           indf2	equ	0xFDF
 10979                           postinc2	equ	0xFDE
 10980                           postdec2	equ	0xFDD
 10981                           plusw2	equ	0xFDB
 10982                           fsr2h	equ	0xFDA
 10983                           fsr2l	equ	0xFD9
 10984                           status	equ	0xFD8
 10985                           
 10986 ;; *************** function _USBCtrlEPServiceComplete *****************
 10987 ;; Defined at:
 10988 ;;		line 1630 in file "usb_device.c"
 10989 ;; Parameters:    Size  Location     Type
 10990 ;;		None
 10991 ;; Auto vars:     Size  Location     Type
 10992 ;;		None
 10993 ;; Return value:  Size  Location     Type
 10994 ;;		None               void
 10995 ;; Registers used:
 10996 ;;		wreg, fsr1l, fsr1h, fsr2l, fsr2h, status,2, status,0, tblptrl, tblptrh, tblptru, cstack
 10997 ;; Tracked objects:
 10998 ;;		On entry : 0/0
 10999 ;;		On exit  : 0/0
 11000 ;;		Unchanged: 0/0
 11001 ;; Data sizes:     COMRAM   BANK0   BANK1   BANK2   BANK3   BANK4  BANK5h   BANK6   BANK7
 11002 ;;      Params:         0       0       0       0       0       0       0       0       0
 11003 ;;      Locals:         0       0       0       0       0       0       0       0       0
 11004 ;;      Temps:          0       0       0       0       0       0       0       0       0
 11005 ;;      Totals:         0       0       0       0       0       0       0       0       0
 11006 ;;Total ram usage:        0 bytes
 11007 ;; Hardware stack levels used:    1
 11008 ;; Hardware stack levels required when called:    2
 11009 ;; This function calls:
 11010 ;;		_USBCtrlEPAllowDataStage
 11011 ;;		_USBCtrlEPAllowStatusStage
 11012 ;; This function is called by:
 11013 ;;		_USBCtrlTrfSetupHandler
 11014 ;; This function uses a non-reentrant model
 11015 ;;
 11016                           
 11017                           	psect	text36
 11018  00303C                     __ptext36:
 11019                           	opt stack 0
 11020  00303C                     _USBCtrlEPServiceComplete:
 11021                           	opt stack 19
 11022                           
 11023                           ;usb_device.c: 1636: UCONbits.PKTDIS = 0;
 11024                           
 11025                           ;incstack = 0
 11026  00303C  986D               	bcf	3949,4,c	;volatile
 11027                           
 11028                           ;usb_device.c: 1642: if(inPipes[0].info.bits.busy == 0)
 11029  00303E  0100               	movlb	0	; () banked
 11030  003040  BFC8               	btfsc	(_inPipes+3)& (0+255),7,b	;volatile
 11031  003042  D039               	goto	i2l223
 11032                           
 11033                           ; BSR set to: 0
 11034                           ;usb_device.c: 1643: {
 11035                           ;usb_device.c: 1644: if(outPipes[0].info.bits.busy == 1)
 11036  003044  0100               	movlb	0	; () banked
 11037  003046  AFA6               	btfss	(_outPipes+3)& (0+255),7,b	;volatile
 11038  003048  D00B               	goto	i2l6827
 11039                           
 11040                           ; BSR set to: 0
 11041                           ;usb_device.c: 1645: {
 11042                           ;usb_device.c: 1646: controlTransferState = 2;
 11043  00304A  0E02               	movlw	2
 11044  00304C  6E3C               	movwf	_controlTransferState,c	;volatile
 11045                           
 11046                           ; BSR set to: 0
 11047                           ;usb_device.c: 1657: if(USBDeferOUTDataStagePackets == 0)
 11048  00304E  6635               	tstfsz	_USBDeferOUTDataStagePackets,c	;volatile
 11049  003050  D002               	goto	i2l6823
 11050                           
 11051                           ; BSR set to: 0
 11052                           ;usb_device.c: 1658: {
 11053                           ;usb_device.c: 1659: USBCtrlEPAllowDataStage();
 11054  003052  ECE6  F01C         	call	_USBCtrlEPAllowDataStage	;wreg free
 11055  003056                     i2l6823:
 11056                           
 11057                           ;usb_device.c: 1660: }
 11058                           ;usb_device.c: 1664: USBStatusStageEnabledFlag2 = 0;
 11059  003056  0E00               	movlw	0
 11060  003058  6E39               	movwf	_USBStatusStageEnabledFlag2,c	;volatile
 11061                           
 11062                           ;usb_device.c: 1665: USBStatusStageEnabledFlag1 = 0;
 11063  00305A  0E00               	movlw	0
 11064  00305C  6E38               	movwf	_USBStatusStageEnabledFlag1,c	;volatile
 11065                           
 11066                           ;usb_device.c: 1666: }
 11067  00305E  D065               	goto	i2l233
 11068  003060                     i2l6827:
 11069                           
 11070                           ;usb_device.c: 1667: else
 11071                           ;usb_device.c: 1668: {
 11072                           ;usb_device.c: 1673: pBDTEntryEP0OutNext->CNT = 8;
 11073  003060  EE20 F001          	lfsr	2,1
 11074  003064  502F               	movf	_pBDTEntryEP0OutNext,w,c
 11075  003066  26D9               	addwf	fsr2l,f,c
 11076  003068  5030               	movf	_pBDTEntryEP0OutNext+1,w,c
 11077  00306A  22DA               	addwfc	fsr2h,f,c
 11078  00306C  0E08               	movlw	8
 11079  00306E  6EDF               	movwf	indf2,c
 11080                           
 11081                           ;usb_device.c: 1674: pBDTEntryEP0OutNext->ADR = ((uint16_t)(&SetupPkt));
 11082  003070  EE20 F002          	lfsr	2,2
 11083  003074  502F               	movf	_pBDTEntryEP0OutNext,w,c
 11084  003076  26D9               	addwf	fsr2l,f,c
 11085  003078  5030               	movf	_pBDTEntryEP0OutNext+1,w,c
 11086  00307A  22DA               	addwfc	fsr2h,f,c
 11087  00307C  0E20               	movlw	32
 11088  00307E  6EDE               	movwf	postinc2,c
 11089  003080  0E04               	movlw	4
 11090  003082  6EDD               	movwf	postdec2,c
 11091                           
 11092                           ;usb_device.c: 1675: pBDTEntryEP0OutNext->STAT.Val = 0x00|(0x08 & 0x08)|0x04;
 11093  003084  C02F  FFD9         	movff	_pBDTEntryEP0OutNext,fsr2l
 11094  003088  C030  FFDA         	movff	_pBDTEntryEP0OutNext+1,fsr2h
 11095  00308C  0E0C               	movlw	12
 11096  00308E  6EDF               	movwf	indf2,c
 11097                           
 11098                           ;usb_device.c: 1676: pBDTEntryEP0OutNext->STAT.Val |= 0x80;
 11099  003090  C02F  FFD9         	movff	_pBDTEntryEP0OutNext,fsr2l
 11100  003094  C030  FFDA         	movff	_pBDTEntryEP0OutNext+1,fsr2h
 11101  003098  0E00               	movlw	0
 11102  00309A  8EDB               	bsf	plusw2,7,c
 11103                           
 11104                           ;usb_device.c: 1677: pBDTEntryIn[0]->STAT.Val = 0x04;
 11105  00309C  C0AB  FFD9         	movff	_pBDTEntryIn,fsr2l
 11106  0030A0  C0AC  FFDA         	movff	_pBDTEntryIn+1,fsr2h
 11107  0030A4  0E04               	movlw	4
 11108  0030A6  6EDF               	movwf	indf2,c
 11109                           
 11110                           ;usb_device.c: 1678: pBDTEntryIn[0]->STAT.Val |= 0x80;
 11111  0030A8  C0AB  FFD9         	movff	_pBDTEntryIn,fsr2l
 11112  0030AC  C0AC  FFDA         	movff	_pBDTEntryIn+1,fsr2h
 11113  0030B0  0E00               	movlw	0
 11114  0030B2  8EDB               	bsf	plusw2,7,c
 11115  0030B4  D03A               	goto	i2l233
 11116  0030B6                     i2l223:
 11117                           
 11118                           ; BSR set to: 0
 11119                           ;usb_device.c: 1681: else
 11120                           ;usb_device.c: 1682: {
 11121                           ;usb_device.c: 1683: if(SetupPkt.DataDir == (0x80>>7))
 11122  0030B6  0104               	movlb	4	; () banked
 11123  0030B8  AF20               	btfss	32,7,b	;volatile
 11124  0030BA  D00F               	goto	i2l6849
 11125                           
 11126                           ; BSR set to: 4
 11127                           ;usb_device.c: 1684: {
 11128                           ;usb_device.c: 1685: controlTransferState = 1;
 11129  0030BC  0E01               	movlw	1
 11130  0030BE  6E3C               	movwf	_controlTransferState,c	;volatile
 11131                           
 11132                           ; BSR set to: 4
 11133                           ;usb_device.c: 1699: if(USBDeferINDataStagePackets == 0)
 11134  0030C0  6634               	tstfsz	_USBDeferINDataStagePackets,c	;volatile
 11135  0030C2  D002               	goto	i2l6841
 11136                           
 11137                           ; BSR set to: 4
 11138                           ;usb_device.c: 1700: {
 11139                           ;usb_device.c: 1701: USBCtrlEPAllowDataStage();
 11140  0030C4  ECE6  F01C         	call	_USBCtrlEPAllowDataStage	;wreg free
 11141  0030C8                     i2l6841:
 11142                           
 11143                           ;usb_device.c: 1702: }
 11144                           ;usb_device.c: 1724: USBStatusStageEnabledFlag2 = 0;
 11145  0030C8  0E00               	movlw	0
 11146  0030CA  6E39               	movwf	_USBStatusStageEnabledFlag2,c	;volatile
 11147                           
 11148                           ;usb_device.c: 1725: USBStatusStageEnabledFlag1 = 0;
 11149  0030CC  0E00               	movlw	0
 11150  0030CE  6E38               	movwf	_USBStatusStageEnabledFlag1,c	;volatile
 11151                           
 11152                           ;usb_device.c: 1726: if(USBDeferStatusStagePacket == 0)
 11153  0030D0  6636               	tstfsz	_USBDeferStatusStagePacket,c	;volatile
 11154  0030D2  D02B               	goto	i2l233
 11155                           
 11156                           ;usb_device.c: 1727: {
 11157                           ;usb_device.c: 1728: USBCtrlEPAllowStatusStage();
 11158  0030D4  ECE2  F01B         	call	_USBCtrlEPAllowStatusStage	;wreg free
 11159  0030D8  D028               	goto	i2l233
 11160  0030DA                     i2l6849:
 11161                           
 11162                           ;usb_device.c: 1731: else
 11163                           ;usb_device.c: 1732: {
 11164                           ;usb_device.c: 1743: controlTransferState = 2;
 11165  0030DA  0E02               	movlw	2
 11166  0030DC  6E3C               	movwf	_controlTransferState,c	;volatile
 11167                           
 11168                           ;usb_device.c: 1746: pBDTEntryEP0OutNext->CNT = 8;
 11169  0030DE  EE20 F001          	lfsr	2,1
 11170  0030E2  502F               	movf	_pBDTEntryEP0OutNext,w,c
 11171  0030E4  26D9               	addwf	fsr2l,f,c
 11172  0030E6  5030               	movf	_pBDTEntryEP0OutNext+1,w,c
 11173  0030E8  22DA               	addwfc	fsr2h,f,c
 11174  0030EA  0E08               	movlw	8
 11175  0030EC  6EDF               	movwf	indf2,c
 11176                           
 11177                           ;usb_device.c: 1747: pBDTEntryEP0OutNext->ADR = ((uint16_t)(&SetupPkt));
 11178  0030EE  EE20 F002          	lfsr	2,2
 11179  0030F2  502F               	movf	_pBDTEntryEP0OutNext,w,c
 11180  0030F4  26D9               	addwf	fsr2l,f,c
 11181  0030F6  5030               	movf	_pBDTEntryEP0OutNext+1,w,c
 11182  0030F8  22DA               	addwfc	fsr2h,f,c
 11183  0030FA  0E20               	movlw	32
 11184  0030FC  6EDE               	movwf	postinc2,c
 11185  0030FE  0E04               	movlw	4
 11186  003100  6EDD               	movwf	postdec2,c
 11187                           
 11188                           ;usb_device.c: 1748: pBDTEntryEP0OutNext->STAT.Val = 0x04;
 11189  003102  C02F  FFD9         	movff	_pBDTEntryEP0OutNext,fsr2l
 11190  003106  C030  FFDA         	movff	_pBDTEntryEP0OutNext+1,fsr2h
 11191  00310A  0E04               	movlw	4
 11192  00310C  6EDF               	movwf	indf2,c
 11193                           
 11194                           ;usb_device.c: 1749: pBDTEntryEP0OutNext->STAT.Val |= 0x80;
 11195  00310E  C02F  FFD9         	movff	_pBDTEntryEP0OutNext,fsr2l
 11196  003112  C030  FFDA         	movff	_pBDTEntryEP0OutNext+1,fsr2h
 11197  003116  0E00               	movlw	0
 11198  003118  8EDB               	bsf	plusw2,7,c
 11199                           
 11200                           ;usb_device.c: 1752: USBStatusStageEnabledFlag2 = 0;
 11201  00311A  0E00               	movlw	0
 11202  00311C  6E39               	movwf	_USBStatusStageEnabledFlag2,c	;volatile
 11203                           
 11204                           ;usb_device.c: 1753: USBStatusStageEnabledFlag1 = 0;
 11205  00311E  0E00               	movlw	0
 11206  003120  6E38               	movwf	_USBStatusStageEnabledFlag1,c	;volatile
 11207                           
 11208                           ;usb_device.c: 1754: if(USBDeferStatusStagePacket == 0)
 11209  003122  6636               	tstfsz	_USBDeferStatusStagePacket,c	;volatile
 11210  003124  D002               	goto	i2l233
 11211                           
 11212                           ;usb_device.c: 1755: {
 11213                           ;usb_device.c: 1756: USBCtrlEPAllowStatusStage();
 11214  003126  ECE2  F01B         	call	_USBCtrlEPAllowStatusStage	;wreg free
 11215  00312A                     i2l233:
 11216  00312A  0012               	return	
 11217  00312C                     __end_of_USBCtrlEPServiceComplete:
 11218                           	opt stack 0
 11219                           pclatu	equ	0xFFB
 11220                           pclath	equ	0xFFA
 11221                           tblptru	equ	0xFF8
 11222                           tblptrh	equ	0xFF7
 11223                           tblptrl	equ	0xFF6
 11224                           tablat	equ	0xFF5
 11225                           prodh	equ	0xFF4
 11226                           prodl	equ	0xFF3
 11227                           intcon	equ	0xFF2
 11228                           indf0	equ	0xFEF
 11229                           postinc0	equ	0xFEE
 11230                           fsr0h	equ	0xFEA
 11231                           fsr0l	equ	0xFE9
 11232                           wreg	equ	0xFE8
 11233                           indf1	equ	0xFE7
 11234                           fsr1h	equ	0xFE2
 11235                           fsr1l	equ	0xFE1
 11236                           bsr	equ	0xFE0
 11237                           indf2	equ	0xFDF
 11238                           postinc2	equ	0xFDE
 11239                           postdec2	equ	0xFDD
 11240                           plusw2	equ	0xFDB
 11241                           fsr2h	equ	0xFDA
 11242                           fsr2l	equ	0xFD9
 11243                           status	equ	0xFD8
 11244                           
 11245 ;; *************** function _USBCtrlEPAllowDataStage *****************
 11246 ;; Defined at:
 11247 ;;		line 1502 in file "usb_device.c"
 11248 ;; Parameters:    Size  Location     Type
 11249 ;;		None
 11250 ;; Auto vars:     Size  Location     Type
 11251 ;;		None
 11252 ;; Return value:  Size  Location     Type
 11253 ;;		None               void
 11254 ;; Registers used:
 11255 ;;		wreg, fsr1l, fsr1h, fsr2l, fsr2h, status,2, status,0, tblptrl, tblptrh, tblptru, cstack
 11256 ;; Tracked objects:
 11257 ;;		On entry : 0/0
 11258 ;;		On exit  : 0/0
 11259 ;;		Unchanged: 0/0
 11260 ;; Data sizes:     COMRAM   BANK0   BANK1   BANK2   BANK3   BANK4  BANK5h   BANK6   BANK7
 11261 ;;      Params:         0       0       0       0       0       0       0       0       0
 11262 ;;      Locals:         0       0       0       0       0       0       0       0       0
 11263 ;;      Temps:          0       0       0       0       0       0       0       0       0
 11264 ;;      Totals:         0       0       0       0       0       0       0       0       0
 11265 ;;Total ram usage:        0 bytes
 11266 ;; Hardware stack levels used:    1
 11267 ;; Hardware stack levels required when called:    1
 11268 ;; This function calls:
 11269 ;;		_USBCtrlTrfTxService
 11270 ;; This function is called by:
 11271 ;;		_USBCtrlEPServiceComplete
 11272 ;; This function uses a non-reentrant model
 11273 ;;
 11274                           
 11275                           	psect	text37
 11276  0039CC                     __ptext37:
 11277                           	opt stack 0
 11278  0039CC                     _USBCtrlEPAllowDataStage:
 11279                           	opt stack 19
 11280                           
 11281                           ;usb_device.c: 1504: USBDeferINDataStagePackets = 0;
 11282                           
 11283                           ;incstack = 0
 11284  0039CC  0E00               	movlw	0
 11285  0039CE  6E34               	movwf	_USBDeferINDataStagePackets,c	;volatile
 11286                           
 11287                           ;usb_device.c: 1505: USBDeferOUTDataStagePackets = 0;
 11288  0039D0  0E00               	movlw	0
 11289  0039D2  6E35               	movwf	_USBDeferOUTDataStagePackets,c	;volatile
 11290                           
 11291                           ;usb_device.c: 1507: if(controlTransferState == 2)
 11292  0039D4  503C               	movf	_controlTransferState,w,c	;volatile
 11293  0039D6  0A02               	xorlw	2
 11294  0039D8  A4D8               	btfss	status,2,c
 11295  0039DA  D01D               	goto	i2l6619
 11296                           
 11297                           ;usb_device.c: 1508: {
 11298                           ;usb_device.c: 1510: pBDTEntryEP0OutNext->CNT = 8;
 11299  0039DC  EE20 F001          	lfsr	2,1
 11300  0039E0  502F               	movf	_pBDTEntryEP0OutNext,w,c
 11301  0039E2  26D9               	addwf	fsr2l,f,c
 11302  0039E4  5030               	movf	_pBDTEntryEP0OutNext+1,w,c
 11303  0039E6  22DA               	addwfc	fsr2h,f,c
 11304  0039E8  0E08               	movlw	8
 11305  0039EA  6EDF               	movwf	indf2,c
 11306                           
 11307                           ;usb_device.c: 1511: pBDTEntryEP0OutNext->ADR = ((uint16_t)(&CtrlTrfData));
 11308  0039EC  EE20 F002          	lfsr	2,2
 11309  0039F0  502F               	movf	_pBDTEntryEP0OutNext,w,c
 11310  0039F2  26D9               	addwf	fsr2l,f,c
 11311  0039F4  5030               	movf	_pBDTEntryEP0OutNext+1,w,c
 11312  0039F6  22DA               	addwfc	fsr2h,f,c
 11313  0039F8  0E28               	movlw	40
 11314  0039FA  6EDE               	movwf	postinc2,c
 11315  0039FC  0E04               	movlw	4
 11316  0039FE  6EDD               	movwf	postdec2,c
 11317                           
 11318                           ;usb_device.c: 1512: pBDTEntryEP0OutNext->STAT.Val = 0x40|(0x08 & 0x08);
 11319  003A00  C02F  FFD9         	movff	_pBDTEntryEP0OutNext,fsr2l
 11320  003A04  C030  FFDA         	movff	_pBDTEntryEP0OutNext+1,fsr2h
 11321  003A08  0E48               	movlw	72
 11322  003A0A  6EDF               	movwf	indf2,c
 11323                           
 11324                           ;usb_device.c: 1513: pBDTEntryEP0OutNext->STAT.Val |= 0x80;
 11325  003A0C  C02F  FFD9         	movff	_pBDTEntryEP0OutNext,fsr2l
 11326  003A10  C030  FFDA         	movff	_pBDTEntryEP0OutNext+1,fsr2h
 11327  003A14  D027               	goto	L59
 11328  003A16                     i2l6619:
 11329                           
 11330                           ;usb_device.c: 1515: else
 11331                           ;usb_device.c: 1516: {
 11332                           ;usb_device.c: 1519: if(SetupPkt.wLength < inPipes[0].wCount.Val)
 11333  003A16  0100               	movlb	0	; () banked
 11334  003A18  51C9               	movf	(_inPipes+4)& (0+255),w,b	;volatile
 11335  003A1A  0104               	movlb	4	; () banked
 11336  003A1C  5D26               	subwf	38,w,b	;volatile
 11337  003A1E  0100               	movlb	0	; () banked
 11338  003A20  51CA               	movf	(_inPipes+5)& (0+255),w,b	;volatile
 11339  003A22  0104               	movlb	4	; () banked
 11340  003A24  5927               	subwfb	39,w,b	;volatile
 11341  003A26  B0D8               	btfsc	status,0,c
 11342  003A28  D004               	goto	i2l6623
 11343                           
 11344                           ; BSR set to: 4
 11345                           ;usb_device.c: 1520: {
 11346                           ;usb_device.c: 1521: inPipes[0].wCount.Val = SetupPkt.wLength;
 11347  003A2A  C426 F0C9          	movff	1062,_inPipes+4	;volatile
 11348  003A2E  C427 F0CA          	movff	1063,_inPipes+5	;volatile
 11349  003A32                     i2l6623:
 11350                           
 11351                           ; BSR set to: 4
 11352                           ;usb_device.c: 1522: }
 11353                           ;usb_device.c: 1523: USBCtrlTrfTxService();
 11354  003A32  EC0C  F019         	call	_USBCtrlTrfTxService	;wreg free
 11355                           
 11356                           ;usb_device.c: 1528: pBDTEntryIn[0]->ADR = ((uint16_t)(&CtrlTrfData));
 11357  003A36  0100               	movlb	0	; () banked
 11358  003A38  EE20 F002          	lfsr	2,2
 11359  003A3C  0100               	movlb	0	; () banked
 11360  003A3E  51AB               	movf	_pBDTEntryIn& (0+255),w,b
 11361  003A40  26D9               	addwf	fsr2l,f,c
 11362  003A42  0100               	movlb	0	; () banked
 11363  003A44  51AC               	movf	(_pBDTEntryIn+1)& (0+255),w,b
 11364  003A46  22DA               	addwfc	fsr2h,f,c
 11365  003A48  0E28               	movlw	40
 11366  003A4A  6EDE               	movwf	postinc2,c
 11367  003A4C  0E04               	movlw	4
 11368  003A4E  6EDD               	movwf	postdec2,c
 11369                           
 11370                           ; BSR set to: 0
 11371                           ;usb_device.c: 1529: pBDTEntryIn[0]->STAT.Val = 0x40|(0x08 & 0x08);
 11372  003A50  C0AB  FFD9         	movff	_pBDTEntryIn,fsr2l
 11373  003A54  C0AC  FFDA         	movff	_pBDTEntryIn+1,fsr2h
 11374  003A58  0E48               	movlw	72
 11375  003A5A  6EDF               	movwf	indf2,c
 11376                           
 11377                           ; BSR set to: 0
 11378                           ;usb_device.c: 1530: pBDTEntryIn[0]->STAT.Val |= 0x80;
 11379  003A5C  C0AB  FFD9         	movff	_pBDTEntryIn,fsr2l
 11380  003A60  C0AC  FFDA         	movff	_pBDTEntryIn+1,fsr2h
 11381  003A64                     L59:
 11382  003A64  0E00               	movlw	0
 11383  003A66  8EDB               	bsf	plusw2,7,c
 11384                           
 11385                           ; BSR set to: 0
 11386  003A68  0012               	return	
 11387  003A6A                     __end_of_USBCtrlEPAllowDataStage:
 11388                           	opt stack 0
 11389                           pclatu	equ	0xFFB
 11390                           pclath	equ	0xFFA
 11391                           tblptru	equ	0xFF8
 11392                           tblptrh	equ	0xFF7
 11393                           tblptrl	equ	0xFF6
 11394                           tablat	equ	0xFF5
 11395                           prodh	equ	0xFF4
 11396                           prodl	equ	0xFF3
 11397                           intcon	equ	0xFF2
 11398                           indf0	equ	0xFEF
 11399                           postinc0	equ	0xFEE
 11400                           fsr0h	equ	0xFEA
 11401                           fsr0l	equ	0xFE9
 11402                           wreg	equ	0xFE8
 11403                           indf1	equ	0xFE7
 11404                           fsr1h	equ	0xFE2
 11405                           fsr1l	equ	0xFE1
 11406                           bsr	equ	0xFE0
 11407                           indf2	equ	0xFDF
 11408                           postinc2	equ	0xFDE
 11409                           postdec2	equ	0xFDD
 11410                           plusw2	equ	0xFDB
 11411                           fsr2h	equ	0xFDA
 11412                           fsr2l	equ	0xFD9
 11413                           status	equ	0xFD8
 11414                           
 11415 ;; *************** function _USBCheckStdRequest *****************
 11416 ;; Defined at:
 11417 ;;		line 2706 in file "usb_device.c"
 11418 ;; Parameters:    Size  Location     Type
 11419 ;;		None
 11420 ;; Auto vars:     Size  Location     Type
 11421 ;;		None
 11422 ;; Return value:  Size  Location     Type
 11423 ;;		None               void
 11424 ;; Registers used:
 11425 ;;		wreg, fsr1l, fsr1h, fsr2l, fsr2h, status,2, status,0, tblptrl, tblptrh, tblptru, prodl, prodh, cstack
 11426 ;; Tracked objects:
 11427 ;;		On entry : 0/0
 11428 ;;		On exit  : 0/0
 11429 ;;		Unchanged: 0/0
 11430 ;; Data sizes:     COMRAM   BANK0   BANK1   BANK2   BANK3   BANK4  BANK5h   BANK6   BANK7
 11431 ;;      Params:         0       0       0       0       0       0       0       0       0
 11432 ;;      Locals:         0       0       0       0       0       0       0       0       0
 11433 ;;      Temps:          0       2       0       0       0       0       0       0       0
 11434 ;;      Totals:         0       2       0       0       0       0       0       0       0
 11435 ;;Total ram usage:        2 bytes
 11436 ;; Hardware stack levels used:    1
 11437 ;; Hardware stack levels required when called:    5
 11438 ;; This function calls:
 11439 ;;		_USBStdFeatureReqHandler
 11440 ;;		_USBStdGetDscHandler
 11441 ;;		_USBStdGetStatusHandler
 11442 ;;		_USBStdSetCfgHandler
 11443 ;;		_USER_USB_CALLBACK_EVENT_HANDLER
 11444 ;; This function is called by:
 11445 ;;		_USBCtrlTrfSetupHandler
 11446 ;; This function uses a non-reentrant model
 11447 ;;
 11448                           
 11449                           	psect	text38
 11450  002D44                     __ptext38:
 11451                           	opt stack 0
 11452  002D44                     _USBCheckStdRequest:
 11453                           	opt stack 16
 11454                           
 11455                           ;usb_device.c: 2708: if(SetupPkt.RequestType != (0x00>>5)) return;
 11456                           
 11457                           ;incstack = 0
 11458  002D44  0104               	movlb	4	; () banked
 11459  002D46  3920               	swapf	32,w,b	;volatile
 11460  002D48  32E8               	rrcf	wreg,f,c
 11461  002D4A  0B03               	andlw	3
 11462  002D4C  0900               	iorlw	0
 11463  002D4E  A4D8               	btfss	status,2,c
 11464  002D50  D078               	goto	i2l348
 11465  002D52  D056               	goto	i2l6945
 11466  002D54                     i2l350:
 11467                           
 11468                           ; BSR set to: 4
 11469                           ;usb_device.c: 2713: inPipes[0].info.bits.busy = 1;
 11470  002D54  0100               	movlb	0	; () banked
 11471  002D56  8FC8               	bsf	(_inPipes+3)& (0+255),7,b	;volatile
 11472                           
 11473                           ; BSR set to: 0
 11474                           ;usb_device.c: 2714: USBDeviceState = ADR_PENDING_STATE;
 11475  002D58  0E08               	movlw	8
 11476  002D5A  6E37               	movwf	_USBDeviceState,c	;volatile
 11477                           
 11478                           ;usb_device.c: 2716: break;
 11479  002D5C  D072               	goto	i2l348
 11480  002D5E                     i2l6915:
 11481                           
 11482                           ;usb_device.c: 2718: USBStdGetDscHandler();
 11483  002D5E  EC79  F014         	call	_USBStdGetDscHandler	;wreg free
 11484                           
 11485                           ;usb_device.c: 2719: break;
 11486  002D62  D06F               	goto	i2l348
 11487  002D64                     i2l6917:
 11488                           
 11489                           ;usb_device.c: 2721: USBStdSetCfgHandler();
 11490  002D64  EC9F  F015         	call	_USBStdSetCfgHandler	;wreg free
 11491                           
 11492                           ;usb_device.c: 2722: break;
 11493  002D68  D06C               	goto	i2l348
 11494  002D6A                     i2l6919:
 11495                           
 11496                           ;usb_device.c: 2724: inPipes[0].pSrc.bRam = (uint8_t*)&USBActiveConfiguration;
 11497  002D6A  0E00               	movlw	high _USBActiveConfiguration	;volatile
 11498  002D6C  0100               	movlb	0	; () banked
 11499  002D6E  6FC6               	movwf	(_inPipes+1)& (0+255),b	;volatile
 11500  002D70  0E3F               	movlw	low _USBActiveConfiguration	;volatile
 11501  002D72  0100               	movlb	0	; () banked
 11502  002D74  6FC5               	movwf	_inPipes& (0+255),b	;volatile
 11503  002D76  D018               	goto	L60
 11504  002D78                     i2l6927:
 11505                           
 11506                           ;usb_device.c: 2730: USBStdGetStatusHandler();
 11507  002D78  EC7F  F01B         	call	_USBStdGetStatusHandler	;wreg free
 11508                           
 11509                           ;usb_device.c: 2731: break;
 11510  002D7C  D062               	goto	i2l348
 11511  002D7E                     i2l6929:
 11512                           
 11513                           ;usb_device.c: 2733: case 3:
 11514                           ;usb_device.c: 2734: USBStdFeatureReqHandler();
 11515  002D7E  EC03  F00E         	call	_USBStdFeatureReqHandler	;wreg free
 11516                           
 11517                           ;usb_device.c: 2735: break;
 11518  002D82  D05F               	goto	i2l348
 11519  002D84                     i2l6931:
 11520                           
 11521                           ;usb_device.c: 2737: inPipes[0].pSrc.bRam = (uint8_t*)&USBAlternateInterface[SetupPkt.bI
      +                          ntfID];
 11522  002D84  0104               	movlb	4	; () banked
 11523  002D86  5124               	movf	36,w,b	;volatile
 11524  002D88  0D01               	mullw	1
 11525  002D8A  0E40               	movlw	low _USBAlternateInterface	;volatile
 11526  002D8C  0100               	movlb	0	; () banked
 11527  002D8E  6F76               	movwf	??_USBCheckStdRequest& (0+255),b
 11528  002D90  0E00               	movlw	high _USBAlternateInterface	;volatile
 11529  002D92  6F77               	movwf	(??_USBCheckStdRequest+1)& (0+255),b
 11530  002D94  50F3               	movf	prodl,w,c
 11531  002D96  0100               	movlb	0	; () banked
 11532  002D98  2776               	addwf	??_USBCheckStdRequest& (0+255),f,b
 11533  002D9A  50F4               	movf	prodh,w,c
 11534  002D9C  0100               	movlb	0	; () banked
 11535  002D9E  2377               	addwfc	(??_USBCheckStdRequest+1)& (0+255),f,b
 11536  002DA0  C076  F0C5         	movff	??_USBCheckStdRequest,_inPipes	;volatile
 11537  002DA4  C077  F0C6         	movff	??_USBCheckStdRequest+1,_inPipes+1	;volatile
 11538  002DA8                     L60:
 11539                           
 11540                           ; BSR set to: 0
 11541                           ;usb_device.c: 2738: inPipes[0].info.bits.ctrl_trf_mem = 0x01;
 11542  002DA8  0100               	movlb	0	; () banked
 11543  002DAA  81C8               	bsf	(_inPipes+3)& (0+255),0,b	;volatile
 11544                           
 11545                           ; BSR set to: 0
 11546                           ;usb_device.c: 2739: inPipes[0].wCount.v[0] = 1;
 11547  002DAC  0E01               	movlw	1
 11548  002DAE  0100               	movlb	0	; () banked
 11549  002DB0  6FC9               	movwf	(_inPipes+4)& (0+255),b	;volatile
 11550                           
 11551                           ; BSR set to: 0
 11552                           ;usb_device.c: 2740: inPipes[0].info.bits.busy = 1;
 11553  002DB2  0100               	movlb	0	; () banked
 11554  002DB4  8FC8               	bsf	(_inPipes+3)& (0+255),7,b	;volatile
 11555                           
 11556                           ;usb_device.c: 2741: break;
 11557  002DB6  D045               	goto	i2l348
 11558  002DB8                     i2l359:
 11559                           
 11560                           ; BSR set to: 4
 11561                           ;usb_device.c: 2743: inPipes[0].info.bits.busy = 1;
 11562  002DB8  0100               	movlb	0	; () banked
 11563  002DBA  8FC8               	bsf	(_inPipes+3)& (0+255),7,b	;volatile
 11564                           
 11565                           ; BSR set to: 0
 11566                           ;usb_device.c: 2744: USBAlternateInterface[SetupPkt.bIntfID] = SetupPkt.bAltID;
 11567  002DBC  0104               	movlb	4	; () banked
 11568  002DBE  5124               	movf	36,w,b	;volatile
 11569  002DC0  0D01               	mullw	1
 11570  002DC2  0E40               	movlw	low _USBAlternateInterface	;volatile
 11571  002DC4  24F3               	addwf	prodl,w,c
 11572  002DC6  6ED9               	movwf	fsr2l,c
 11573  002DC8  0E00               	movlw	high _USBAlternateInterface	;volatile
 11574  002DCA  20F4               	addwfc	prodh,w,c
 11575  002DCC  6EDA               	movwf	fsr2h,c
 11576  002DCE  0104               	movlb	4	; () banked
 11577  002DD0  C422 FFDF          	movff	1058,indf2	;volatile
 11578                           
 11579                           ;usb_device.c: 2745: break;
 11580  002DD4  D036               	goto	i2l348
 11581  002DD6                     i2l6941:
 11582                           
 11583                           ; BSR set to: 4
 11584                           ;usb_device.c: 2747: USER_USB_CALLBACK_EVENT_HANDLER(EVENT_SET_DESCRIPTOR,0,0);
 11585  002DD6  0E00               	movlw	0
 11586  002DD8  0100               	movlb	0	; () banked
 11587  002DDA  6F67               	movwf	(USER_USB_CALLBACK_EVENT_HANDLER@event+1)& (0+255),b
 11588  002DDC  0E02               	movlw	2
 11589  002DDE  0100               	movlb	0	; () banked
 11590  002DE0  6F66               	movwf	USER_USB_CALLBACK_EVENT_HANDLER@event& (0+255),b
 11591  002DE2  0E00               	movlw	0
 11592  002DE4  0100               	movlb	0	; () banked
 11593  002DE6  6F69               	movwf	(USER_USB_CALLBACK_EVENT_HANDLER@pdata+1)& (0+255),b
 11594  002DE8  0E00               	movlw	0
 11595  002DEA  0100               	movlb	0	; () banked
 11596  002DEC  6F68               	movwf	USER_USB_CALLBACK_EVENT_HANDLER@pdata& (0+255),b
 11597  002DEE  0E00               	movlw	0
 11598  002DF0  0100               	movlb	0	; () banked
 11599  002DF2  6F6B               	movwf	(USER_USB_CALLBACK_EVENT_HANDLER@size+1)& (0+255),b
 11600  002DF4  0E00               	movlw	0
 11601  002DF6  0100               	movlb	0	; () banked
 11602  002DF8  6F6A               	movwf	USER_USB_CALLBACK_EVENT_HANDLER@size& (0+255),b
 11603  002DFA  EC2A  F01E         	call	_USER_USB_CALLBACK_EVENT_HANDLER	;wreg free
 11604                           
 11605                           ;usb_device.c: 2748: break;
 11606  002DFE  D021               	goto	i2l348
 11607  002E00                     i2l6945:
 11608  002E00  0104               	movlb	4	; () banked
 11609  002E02  5121               	movf	33,w,b	;volatile
 11610                           
 11611                           ; Switch size 1, requested type "space"
 11612                           ; Number of cases is 11, Range of values is 0 to 12
 11613                           ; switch strategies available:
 11614                           ; Name         Instructions Cycles
 11615                           ; simple_byte           34    18 (average)
 11616                           ;	Chosen strategy is simple_byte
 11617  002E04  0A00               	xorlw	0	; case 0
 11618  002E06  B4D8               	btfsc	status,2,c
 11619  002E08  D7B7               	goto	i2l6927
 11620  002E0A  0A01               	xorlw	1	; case 1
 11621  002E0C  B4D8               	btfsc	status,2,c
 11622  002E0E  D7B7               	goto	i2l6929
 11623  002E10  0A02               	xorlw	2	; case 3
 11624  002E12  B4D8               	btfsc	status,2,c
 11625  002E14  D7B4               	goto	i2l6929
 11626  002E16  0A06               	xorlw	6	; case 5
 11627  002E18  B4D8               	btfsc	status,2,c
 11628  002E1A  D79C               	goto	i2l350
 11629  002E1C  0A03               	xorlw	3	; case 6
 11630  002E1E  B4D8               	btfsc	status,2,c
 11631  002E20  D79E               	goto	i2l6915
 11632  002E22  0A01               	xorlw	1	; case 7
 11633  002E24  B4D8               	btfsc	status,2,c
 11634  002E26  D7D7               	goto	i2l6941
 11635  002E28  0A0F               	xorlw	15	; case 8
 11636  002E2A  B4D8               	btfsc	status,2,c
 11637  002E2C  D79E               	goto	i2l6919
 11638  002E2E  0A01               	xorlw	1	; case 9
 11639  002E30  B4D8               	btfsc	status,2,c
 11640  002E32  D798               	goto	i2l6917
 11641  002E34  0A03               	xorlw	3	; case 10
 11642  002E36  B4D8               	btfsc	status,2,c
 11643  002E38  D7A5               	goto	i2l6931
 11644  002E3A  0A01               	xorlw	1	; case 11
 11645  002E3C  B4D8               	btfsc	status,2,c
 11646  002E3E  D7BC               	goto	i2l359
 11647  002E40  0A07               	xorlw	7	; case 12
 11648  002E42                     i2l348:
 11649  002E42  0012               	return	
 11650  002E44                     __end_of_USBCheckStdRequest:
 11651                           	opt stack 0
 11652                           pclatu	equ	0xFFB
 11653                           pclath	equ	0xFFA
 11654                           tblptru	equ	0xFF8
 11655                           tblptrh	equ	0xFF7
 11656                           tblptrl	equ	0xFF6
 11657                           tablat	equ	0xFF5
 11658                           prodh	equ	0xFF4
 11659                           prodl	equ	0xFF3
 11660                           intcon	equ	0xFF2
 11661                           indf0	equ	0xFEF
 11662                           postinc0	equ	0xFEE
 11663                           fsr0h	equ	0xFEA
 11664                           fsr0l	equ	0xFE9
 11665                           wreg	equ	0xFE8
 11666                           indf1	equ	0xFE7
 11667                           fsr1h	equ	0xFE2
 11668                           fsr1l	equ	0xFE1
 11669                           bsr	equ	0xFE0
 11670                           indf2	equ	0xFDF
 11671                           postinc2	equ	0xFDE
 11672                           postdec2	equ	0xFDD
 11673                           plusw2	equ	0xFDB
 11674                           fsr2h	equ	0xFDA
 11675                           fsr2l	equ	0xFD9
 11676                           status	equ	0xFD8
 11677                           
 11678 ;; *************** function _USBStdSetCfgHandler *****************
 11679 ;; Defined at:
 11680 ;;		line 1982 in file "usb_device.c"
 11681 ;; Parameters:    Size  Location     Type
 11682 ;;		None
 11683 ;; Auto vars:     Size  Location     Type
 11684 ;;  i               1   14[BANK0 ] unsigned char 
 11685 ;; Return value:  Size  Location     Type
 11686 ;;		None               void
 11687 ;; Registers used:
 11688 ;;		wreg, fsr2l, fsr2h, status,2, status,0, prodl, prodh, cstack
 11689 ;; Tracked objects:
 11690 ;;		On entry : 0/0
 11691 ;;		On exit  : 0/0
 11692 ;;		Unchanged: 0/0
 11693 ;; Data sizes:     COMRAM   BANK0   BANK1   BANK2   BANK3   BANK4  BANK5h   BANK6   BANK7
 11694 ;;      Params:         0       0       0       0       0       0       0       0       0
 11695 ;;      Locals:         0       1       0       0       0       0       0       0       0
 11696 ;;      Temps:          0       0       0       0       0       0       0       0       0
 11697 ;;      Totals:         0       1       0       0       0       0       0       0       0
 11698 ;;Total ram usage:        1 bytes
 11699 ;; Hardware stack levels used:    1
 11700 ;; Hardware stack levels required when called:    4
 11701 ;; This function calls:
 11702 ;;		_USER_USB_CALLBACK_EVENT_HANDLER
 11703 ;;		i2_memset
 11704 ;; This function is called by:
 11705 ;;		_USBCheckStdRequest
 11706 ;; This function uses a non-reentrant model
 11707 ;;
 11708                           
 11709                           	psect	text39
 11710  002B3E                     __ptext39:
 11711                           	opt stack 0
 11712  002B3E                     _USBStdSetCfgHandler:
 11713                           	opt stack 16
 11714                           
 11715                           ;usb_device.c: 1984: uint8_t i;
 11716                           ;usb_device.c: 1987: inPipes[0].info.bits.busy = 1;
 11717                           
 11718                           ;incstack = 0
 11719  002B3E  0100               	movlb	0	; () banked
 11720  002B40  8FC8               	bsf	(_inPipes+3)& (0+255),7,b	;volatile
 11721                           
 11722                           ; BSR set to: 0
 11723                           ;usb_device.c: 1990: memset((void*)&UEP1,0x00,(1));;
 11724  002B42  0E0F               	movlw	15	;volatile
 11725  002B44  6E1E               	movwf	i2memset@p1+1,c
 11726  002B46  0E71               	movlw	113	;volatile
 11727  002B48  6E1D               	movwf	i2memset@p1,c
 11728  002B4A  0E00               	movlw	0
 11729  002B4C  6E20               	movwf	i2memset@c+1,c
 11730  002B4E  0E00               	movlw	0
 11731  002B50  6E1F               	movwf	i2memset@c,c
 11732  002B52  0E00               	movlw	0
 11733  002B54  6E22               	movwf	i2memset@n+1,c
 11734  002B56  0E01               	movlw	1
 11735  002B58  6E21               	movwf	i2memset@n,c
 11736  002B5A  EC0C  F020         	call	i2_memset	;wreg free
 11737                           
 11738                           ;usb_device.c: 1993: memset((void*)&BDT[0], 0x00, sizeof(BDT));
 11739  002B5E  0104               	movlb	4	; () banked
 11740  002B60  0E04               	movlw	4	;volatile
 11741  002B62  6E1E               	movwf	i2memset@p1+1,c
 11742  002B64  0104               	movlb	4	; () banked
 11743  002B66  0E00               	movlw	0	;volatile
 11744  002B68  6E1D               	movwf	i2memset@p1,c
 11745  002B6A  0E00               	movlw	0
 11746  002B6C  6E20               	movwf	i2memset@c+1,c
 11747  002B6E  0E00               	movlw	0
 11748  002B70  6E1F               	movwf	i2memset@c,c
 11749  002B72  0E00               	movlw	0
 11750  002B74  6E22               	movwf	i2memset@n+1,c
 11751  002B76  0E20               	movlw	32
 11752  002B78  6E21               	movwf	i2memset@n,c
 11753  002B7A  EC0C  F020         	call	i2_memset	;wreg free
 11754                           
 11755                           ;usb_device.c: 1996: UCONbits.PPBRST = 1;
 11756  002B7E  8C6D               	bsf	3949,6,c	;volatile
 11757                           
 11758                           ;usb_device.c: 2001: for(i = 0; i < (uint8_t)(1+1u); i++)
 11759  002B80  0E00               	movlw	0
 11760  002B82  0100               	movlb	0	; () banked
 11761  002B84  6F6E               	movwf	USBStdSetCfgHandler@i& (0+255),b
 11762  002B86  D01C               	goto	L62
 11763  002B88                     i2l6643:
 11764                           
 11765                           ; BSR set to: 0
 11766                           ;usb_device.c: 2002: {
 11767                           ;usb_device.c: 2003: ep_data_in[i].Val = 0u;
 11768  002B88  0100               	movlb	0	; () banked
 11769  002B8A  516E               	movf	USBStdSetCfgHandler@i& (0+255),w,b
 11770  002B8C  0D01               	mullw	1
 11771  002B8E  0100               	movlb	0	; () banked
 11772  002B90  0EBF               	movlw	low _ep_data_in	;volatile
 11773  002B92  24F3               	addwf	prodl,w,c
 11774  002B94  6ED9               	movwf	fsr2l,c
 11775  002B96  0100               	movlb	0	; () banked
 11776  002B98  0E00               	movlw	high _ep_data_in	;volatile
 11777  002B9A  20F4               	addwfc	prodh,w,c
 11778  002B9C  6EDA               	movwf	fsr2h,c
 11779  002B9E  0E00               	movlw	0
 11780  002BA0  6EDF               	movwf	indf2,c
 11781                           
 11782                           ;usb_device.c: 2004: ep_data_out[i].Val = 0u;
 11783  002BA2  0100               	movlb	0	; () banked
 11784  002BA4  516E               	movf	USBStdSetCfgHandler@i& (0+255),w,b
 11785  002BA6  0D01               	mullw	1
 11786  002BA8  0100               	movlb	0	; () banked
 11787  002BAA  0EC1               	movlw	low _ep_data_out	;volatile
 11788  002BAC  24F3               	addwf	prodl,w,c
 11789  002BAE  6ED9               	movwf	fsr2l,c
 11790  002BB0  0100               	movlb	0	; () banked
 11791  002BB2  0E00               	movlw	high _ep_data_out	;volatile
 11792  002BB4  20F4               	addwfc	prodh,w,c
 11793  002BB6  6EDA               	movwf	fsr2h,c
 11794  002BB8  0E00               	movlw	0
 11795  002BBA  6EDF               	movwf	indf2,c
 11796                           
 11797                           ; BSR set to: 0
 11798  002BBC  0100               	movlb	0	; () banked
 11799  002BBE  2B6E               	incf	USBStdSetCfgHandler@i& (0+255),f,b
 11800  002BC0                     L62:
 11801                           
 11802                           ; BSR set to: 0
 11803  002BC0  0E01               	movlw	1
 11804  002BC2  0100               	movlb	0	; () banked
 11805  002BC4  656E               	cpfsgt	USBStdSetCfgHandler@i& (0+255),b
 11806  002BC6  D7E0               	goto	i2l6643
 11807                           
 11808                           ; BSR set to: 0
 11809                           ;usb_device.c: 2005: }
 11810                           ;usb_device.c: 2008: memset((void*)&USBAlternateInterface,0x00,1);
 11811                           
 11812                           ; BSR set to: 0
 11813  002BC8  0E00               	movlw	high _USBAlternateInterface	;volatile
 11814  002BCA  6E1E               	movwf	i2memset@p1+1,c
 11815  002BCC  0E40               	movlw	low _USBAlternateInterface	;volatile
 11816  002BCE  6E1D               	movwf	i2memset@p1,c
 11817  002BD0  0E00               	movlw	0
 11818  002BD2  6E20               	movwf	i2memset@c+1,c
 11819  002BD4  0E00               	movlw	0
 11820  002BD6  6E1F               	movwf	i2memset@c,c
 11821  002BD8  0E00               	movlw	0
 11822  002BDA  6E22               	movwf	i2memset@n+1,c
 11823  002BDC  0E01               	movlw	1
 11824  002BDE  6E21               	movwf	i2memset@n,c
 11825  002BE0  EC0C  F020         	call	i2_memset	;wreg free
 11826                           
 11827                           ;usb_device.c: 2011: UCONbits.PPBRST = 0;
 11828  002BE4  9C6D               	bcf	3949,6,c	;volatile
 11829                           
 11830                           ;usb_device.c: 2013: pBDTEntryIn[0] = (volatile BDT_ENTRY*)&BDT[2];
 11831  002BE6  0104               	movlb	4	; () banked
 11832  002BE8  0E04               	movlw	4	;volatile
 11833  002BEA  0100               	movlb	0	; () banked
 11834  002BEC  6FAC               	movwf	(_pBDTEntryIn+1)& (0+255),b
 11835  002BEE  0104               	movlb	4	; () banked
 11836  002BF0  0E08               	movlw	8	;volatile
 11837  002BF2  0100               	movlb	0	; () banked
 11838  002BF4  6FAB               	movwf	_pBDTEntryIn& (0+255),b
 11839                           
 11840                           ; BSR set to: 0
 11841                           ;usb_device.c: 2016: pBDTEntryEP0OutCurrent = (volatile BDT_ENTRY*)&BDT[0];
 11842  002BF6  0104               	movlb	4	; () banked
 11843  002BF8  0E04               	movlw	4	;volatile
 11844  002BFA  6E2E               	movwf	_pBDTEntryEP0OutCurrent+1,c
 11845  002BFC  0104               	movlb	4	; () banked
 11846  002BFE  0E00               	movlw	0	;volatile
 11847  002C00  6E2D               	movwf	_pBDTEntryEP0OutCurrent,c
 11848                           
 11849                           ; BSR set to: 4
 11850                           ;usb_device.c: 2017: pBDTEntryEP0OutNext = pBDTEntryEP0OutCurrent;
 11851  002C02  C02E  F030         	movff	_pBDTEntryEP0OutCurrent+1,_pBDTEntryEP0OutNext+1
 11852  002C06  C02D  F02F         	movff	_pBDTEntryEP0OutCurrent,_pBDTEntryEP0OutNext
 11853                           
 11854                           ; BSR set to: 4
 11855                           ;usb_device.c: 2020: USBActiveConfiguration = SetupPkt.bConfigurationValue;
 11856  002C0A  C422 F03F          	movff	1058,_USBActiveConfiguration	;volatile
 11857                           
 11858                           ; BSR set to: 4
 11859                           ;usb_device.c: 2023: if(USBActiveConfiguration == 0)
 11860  002C0E  663F               	tstfsz	_USBActiveConfiguration,c	;volatile
 11861  002C10  D002               	goto	i2l6665
 11862                           
 11863                           ; BSR set to: 4
 11864                           ;usb_device.c: 2024: {
 11865                           ;usb_device.c: 2026: USBDeviceState = ADDRESS_STATE;
 11866  002C12  0E10               	movlw	16
 11867  002C14  D015               	goto	L61
 11868  002C16                     i2l6665:
 11869                           
 11870                           ; BSR set to: 4
 11871                           ;usb_device.c: 2028: else
 11872                           ;usb_device.c: 2029: {
 11873                           ;usb_device.c: 2031: USER_USB_CALLBACK_EVENT_HANDLER(EVENT_CONFIGURED,(void*)&USBActiveC
      +                          onfiguration,1);
 11874  002C16  0E00               	movlw	0
 11875  002C18  0100               	movlb	0	; () banked
 11876  002C1A  6F67               	movwf	(USER_USB_CALLBACK_EVENT_HANDLER@event+1)& (0+255),b
 11877  002C1C  0E01               	movlw	1
 11878  002C1E  0100               	movlb	0	; () banked
 11879  002C20  6F66               	movwf	USER_USB_CALLBACK_EVENT_HANDLER@event& (0+255),b
 11880  002C22  0E00               	movlw	high _USBActiveConfiguration	;volatile
 11881  002C24  0100               	movlb	0	; () banked
 11882  002C26  6F69               	movwf	(USER_USB_CALLBACK_EVENT_HANDLER@pdata+1)& (0+255),b
 11883  002C28  0E3F               	movlw	low _USBActiveConfiguration	;volatile
 11884  002C2A  0100               	movlb	0	; () banked
 11885  002C2C  6F68               	movwf	USER_USB_CALLBACK_EVENT_HANDLER@pdata& (0+255),b
 11886  002C2E  0E00               	movlw	0
 11887  002C30  0100               	movlb	0	; () banked
 11888  002C32  6F6B               	movwf	(USER_USB_CALLBACK_EVENT_HANDLER@size+1)& (0+255),b
 11889  002C34  0E01               	movlw	1
 11890  002C36  0100               	movlb	0	; () banked
 11891  002C38  6F6A               	movwf	USER_USB_CALLBACK_EVENT_HANDLER@size& (0+255),b
 11892  002C3A  EC2A  F01E         	call	_USER_USB_CALLBACK_EVENT_HANDLER	;wreg free
 11893                           
 11894                           ;usb_device.c: 2036: USBDeviceState = CONFIGURED_STATE;
 11895  002C3E  0E20               	movlw	32
 11896  002C40                     L61:
 11897  002C40  6E37               	movwf	_USBDeviceState,c	;volatile
 11898  002C42  0012               	return	
 11899  002C44                     __end_of_USBStdSetCfgHandler:
 11900                           	opt stack 0
 11901                           pclatu	equ	0xFFB
 11902                           pclath	equ	0xFFA
 11903                           tblptru	equ	0xFF8
 11904                           tblptrh	equ	0xFF7
 11905                           tblptrl	equ	0xFF6
 11906                           tablat	equ	0xFF5
 11907                           prodh	equ	0xFF4
 11908                           prodl	equ	0xFF3
 11909                           intcon	equ	0xFF2
 11910                           indf0	equ	0xFEF
 11911                           postinc0	equ	0xFEE
 11912                           fsr0h	equ	0xFEA
 11913                           fsr0l	equ	0xFE9
 11914                           wreg	equ	0xFE8
 11915                           indf1	equ	0xFE7
 11916                           fsr1h	equ	0xFE2
 11917                           fsr1l	equ	0xFE1
 11918                           bsr	equ	0xFE0
 11919                           indf2	equ	0xFDF
 11920                           postinc2	equ	0xFDE
 11921                           postdec2	equ	0xFDD
 11922                           plusw2	equ	0xFDB
 11923                           fsr2h	equ	0xFDA
 11924                           fsr2l	equ	0xFD9
 11925                           status	equ	0xFD8
 11926                           
 11927 ;; *************** function i2_memset *****************
 11928 ;; Defined at:
 11929 ;;		line 8 in file "C:\Program Files (x86)\Microchip\xc8\v1.32\sources\common\memset.c"
 11930 ;; Parameters:    Size  Location     Type
 11931 ;;  p1              2   28[COMRAM] PTR void 
 11932 ;;		 -> USBAlternateInterface(1), BDT(32), UEP1(1), 
 11933 ;;  c               2   30[COMRAM] int 
 11934 ;;  n               2   32[COMRAM] unsigned int 
 11935 ;; Auto vars:     Size  Location     Type
 11936 ;;  memset          2   34[COMRAM] PTR unsigned char 
 11937 ;;		 -> USBAlternateInterface(1), BDT(32), UEP1(1), 
 11938 ;; Return value:  Size  Location     Type
 11939 ;;                  2   28[COMRAM] PTR void 
 11940 ;; Registers used:
 11941 ;;		wreg, fsr2l, fsr2h, status,2, status,0
 11942 ;; Tracked objects:
 11943 ;;		On entry : 0/0
 11944 ;;		On exit  : 0/0
 11945 ;;		Unchanged: 0/0
 11946 ;; Data sizes:     COMRAM   BANK0   BANK1   BANK2   BANK3   BANK4  BANK5h   BANK6   BANK7
 11947 ;;      Params:         6       0       0       0       0       0       0       0       0
 11948 ;;      Locals:         2       0       0       0       0       0       0       0       0
 11949 ;;      Temps:          0       0       0       0       0       0       0       0       0
 11950 ;;      Totals:         8       0       0       0       0       0       0       0       0
 11951 ;;Total ram usage:        8 bytes
 11952 ;; Hardware stack levels used:    1
 11953 ;; This function calls:
 11954 ;;		Nothing
 11955 ;; This function is called by:
 11956 ;;		_USBStdSetCfgHandler
 11957 ;;		i2_USBDeviceInit
 11958 ;; This function uses a non-reentrant model
 11959 ;;
 11960                           
 11961                           	psect	text40
 11962  004018                     __ptext40:
 11963                           	opt stack 0
 11964  004018                     i2_memset:
 11965                           	opt stack 22
 11966                           
 11967                           ;incstack = 0
 11968  004018  C01E  F024         	movff	i2memset@p1+1,i2memset@p+1
 11969  00401C  C01D  F023         	movff	i2memset@p1,i2memset@p
 11970  004020  D008               	goto	i2l6571
 11971  004022                     i2l6567:
 11972  004022  C023  FFD9         	movff	i2memset@p,fsr2l
 11973  004026  C024  FFDA         	movff	i2memset@p+1,fsr2h
 11974  00402A  C01F  FFDF         	movff	i2memset@c,indf2
 11975  00402E  4A23               	infsnz	i2memset@p,f,c
 11976  004030  2A24               	incf	i2memset@p+1,f,c
 11977  004032                     i2l6571:
 11978  004032  0621               	decf	i2memset@n,f,c
 11979  004034  A0D8               	btfss	status,0,c
 11980  004036  0622               	decf	i2memset@n+1,f,c
 11981  004038  2821               	incf	i2memset@n& (0+255),w,c
 11982  00403A  B4D8               	btfsc	status,2,c
 11983  00403C  2822               	incf	(i2memset@n+1)& (0+255),w,c
 11984  00403E  B4D8               	btfsc	status,2,c
 11985                           
 11986                           ;	Return value of i2_memset is never used
 11987  004040  0012               	return	
 11988  004042  D7EF               	goto	i2l6567
 11989  004044                     __end_ofi2_memset:
 11990                           	opt stack 0
 11991                           pclatu	equ	0xFFB
 11992                           pclath	equ	0xFFA
 11993                           tblptru	equ	0xFF8
 11994                           tblptrh	equ	0xFF7
 11995                           tblptrl	equ	0xFF6
 11996                           tablat	equ	0xFF5
 11997                           prodh	equ	0xFF4
 11998                           prodl	equ	0xFF3
 11999                           intcon	equ	0xFF2
 12000                           indf0	equ	0xFEF
 12001                           postinc0	equ	0xFEE
 12002                           fsr0h	equ	0xFEA
 12003                           fsr0l	equ	0xFE9
 12004                           wreg	equ	0xFE8
 12005                           indf1	equ	0xFE7
 12006                           fsr1h	equ	0xFE2
 12007                           fsr1l	equ	0xFE1
 12008                           bsr	equ	0xFE0
 12009                           indf2	equ	0xFDF
 12010                           postinc2	equ	0xFDE
 12011                           postdec2	equ	0xFDD
 12012                           plusw2	equ	0xFDB
 12013                           fsr2h	equ	0xFDA
 12014                           fsr2l	equ	0xFD9
 12015                           status	equ	0xFD8
 12016                           
 12017 ;; *************** function _USBStdGetStatusHandler *****************
 12018 ;; Defined at:
 12019 ;;		line 2143 in file "usb_device.c"
 12020 ;; Parameters:    Size  Location     Type
 12021 ;;		None
 12022 ;; Auto vars:     Size  Location     Type
 12023 ;;  p               2   29[COMRAM] PTR struct __BDT
 12024 ;;		 -> NULL(0), BDT(32), 
 12025 ;; Return value:  Size  Location     Type
 12026 ;;		None               void
 12027 ;; Registers used:
 12028 ;;		wreg, fsr2l, fsr2h, status,2, status,0, prodl, prodh
 12029 ;; Tracked objects:
 12030 ;;		On entry : 0/0
 12031 ;;		On exit  : 0/0
 12032 ;;		Unchanged: 0/0
 12033 ;; Data sizes:     COMRAM   BANK0   BANK1   BANK2   BANK3   BANK4  BANK5h   BANK6   BANK7
 12034 ;;      Params:         0       0       0       0       0       0       0       0       0
 12035 ;;      Locals:         2       0       0       0       0       0       0       0       0
 12036 ;;      Temps:          1       0       0       0       0       0       0       0       0
 12037 ;;      Totals:         3       0       0       0       0       0       0       0       0
 12038 ;;Total ram usage:        3 bytes
 12039 ;; Hardware stack levels used:    1
 12040 ;; This function calls:
 12041 ;;		Nothing
 12042 ;; This function is called by:
 12043 ;;		_USBCheckStdRequest
 12044 ;; This function uses a non-reentrant model
 12045 ;;
 12046                           
 12047                           	psect	text41
 12048  0036FE                     __ptext41:
 12049                           	opt stack 0
 12050  0036FE                     _USBStdGetStatusHandler:
 12051                           	opt stack 20
 12052                           
 12053                           ;usb_device.c: 2145: CtrlTrfData[0] = 0;
 12054                           
 12055                           ;incstack = 0
 12056  0036FE  0E00               	movlw	0
 12057  003700  0104               	movlb	4	; () banked
 12058  003702  6F28               	movwf	40,b	;volatile
 12059                           
 12060                           ;usb_device.c: 2146: CtrlTrfData[1] = 0;
 12061  003704  0E00               	movlw	0
 12062  003706  0104               	movlb	4	; () banked
 12063  003708  6F29               	movwf	41,b	;volatile
 12064                           
 12065                           ;usb_device.c: 2148: switch(SetupPkt.Recipient)
 12066  00370A  D03F               	goto	i2l6719
 12067  00370C                     i2l286:
 12068                           
 12069                           ; BSR set to: 4
 12070                           ;usb_device.c: 2151: inPipes[0].info.bits.busy = 1;
 12071  00370C  0100               	movlb	0	; () banked
 12072  00370E  8FC8               	bsf	(_inPipes+3)& (0+255),7,b	;volatile
 12073                           
 12074                           ;usb_device.c: 2159: }
 12075                           ;usb_device.c: 2161: if(RemoteWakeup == 1)
 12076                           
 12077                           ; BSR set to: 4
 12078                           
 12079                           ; BSR set to: 0
 12080                           ;usb_device.c: 2157: {
 12081                           ;usb_device.c: 2158: CtrlTrfData[0]|=0x01;
 12082                           
 12083                           ;usb_device.c: 2156: if(0 == 1)
 12084  003710  0432               	decf	_RemoteWakeup,w,c	;volatile
 12085  003712  A4D8               	btfss	status,2,c
 12086  003714  D046               	goto	i2l289
 12087                           
 12088                           ;usb_device.c: 2162: {
 12089                           ;usb_device.c: 2163: CtrlTrfData[0]|=0x02;
 12090  003716  0104               	movlb	4	; () banked
 12091  003718  8328               	bsf	40,1,b	;volatile
 12092  00371A  D043               	goto	i2l289
 12093  00371C                     i2l290:
 12094                           
 12095                           ; BSR set to: 4
 12096                           ;usb_device.c: 2167: inPipes[0].info.bits.busy = 1;
 12097  00371C  0100               	movlb	0	; () banked
 12098  00371E  8FC8               	bsf	(_inPipes+3)& (0+255),7,b	;volatile
 12099                           
 12100                           ;usb_device.c: 2168: break;
 12101  003720  D040               	goto	i2l289
 12102  003722                     i2l291:
 12103                           
 12104                           ; BSR set to: 4
 12105                           ;usb_device.c: 2170: inPipes[0].info.bits.busy = 1;
 12106  003722  0100               	movlb	0	; () banked
 12107  003724  8FC8               	bsf	(_inPipes+3)& (0+255),7,b	;volatile
 12108                           
 12109                           ;usb_device.c: 2174: {
 12110                           ;usb_device.c: 2175: BDT_ENTRY *p;
 12111                           ;usb_device.c: 2177: if(SetupPkt.EPDir == 0)
 12112  003726  0104               	movlb	4	; () banked
 12113  003728  BF24               	btfsc	36,7,b	;volatile
 12114  00372A  D00D               	goto	i2l6709
 12115                           
 12116                           ; BSR set to: 4
 12117                           ;usb_device.c: 2178: {
 12118                           ;usb_device.c: 2179: p = (BDT_ENTRY*)pBDTEntryOut[SetupPkt.EPNum];
 12119  00372C  0104               	movlb	4	; () banked
 12120  00372E  5124               	movf	36,w,b	;volatile
 12121  003730  0B0F               	andlw	15
 12122  003732  6E1D               	movwf	??_USBStdGetStatusHandler& (0+255),c
 12123  003734  501D               	movf	??_USBStdGetStatusHandler,w,c
 12124  003736  0D02               	mullw	2
 12125  003738  0100               	movlb	0	; () banked
 12126  00373A  0EAF               	movlw	low _pBDTEntryOut
 12127  00373C  24F3               	addwf	prodl,w,c
 12128  00373E  6ED9               	movwf	fsr2l,c
 12129  003740  0100               	movlb	0	; () banked
 12130  003742  0E00               	movlw	high _pBDTEntryOut
 12131  003744  D00C               	goto	L63
 12132  003746                     i2l6709:
 12133                           
 12134                           ;usb_device.c: 2181: else
 12135                           ;usb_device.c: 2182: {
 12136                           ;usb_device.c: 2183: p = (BDT_ENTRY*)pBDTEntryIn[SetupPkt.EPNum];
 12137  003746  0104               	movlb	4	; () banked
 12138  003748  5124               	movf	36,w,b	;volatile
 12139  00374A  0B0F               	andlw	15
 12140  00374C  6E1D               	movwf	??_USBStdGetStatusHandler& (0+255),c
 12141  00374E  501D               	movf	??_USBStdGetStatusHandler,w,c
 12142  003750  0D02               	mullw	2
 12143  003752  0100               	movlb	0	; () banked
 12144  003754  0EAB               	movlw	low _pBDTEntryIn
 12145  003756  24F3               	addwf	prodl,w,c
 12146  003758  6ED9               	movwf	fsr2l,c
 12147  00375A  0100               	movlb	0	; () banked
 12148  00375C  0E00               	movlw	high _pBDTEntryIn
 12149  00375E                     L63:
 12150  00375E  20F4               	addwfc	prodh,w,c
 12151  003760  6EDA               	movwf	fsr2h,c
 12152  003762  CFDE F01E          	movff	postinc2,USBStdGetStatusHandler@p
 12153  003766  CFDD F01F          	movff	postdec2,USBStdGetStatusHandler@p+1
 12154                           
 12155                           ; BSR set to: 0
 12156                           ;usb_device.c: 2184: }
 12157                           ;usb_device.c: 2186: if((p->STAT.UOWN == 1) && (p->STAT.BSTALL == 1))
 12158                           
 12159                           ; BSR set to: 0
 12160  00376A  C01E  FFD9         	movff	USBStdGetStatusHandler@p,fsr2l
 12161  00376E  C01F  FFDA         	movff	USBStdGetStatusHandler@p+1,fsr2h
 12162  003772  AEDF               	btfss	indf2,7,c
 12163  003774  D016               	goto	i2l289
 12164                           
 12165                           ; BSR set to: 0
 12166  003776  C01E  FFD9         	movff	USBStdGetStatusHandler@p,fsr2l
 12167  00377A  C01F  FFDA         	movff	USBStdGetStatusHandler@p+1,fsr2h
 12168  00377E  A4DF               	btfss	indf2,2,c
 12169  003780  D010               	goto	i2l289
 12170                           
 12171                           ; BSR set to: 0
 12172                           ;usb_device.c: 2187: CtrlTrfData[0]=0x01;
 12173  003782  0E01               	movlw	1
 12174  003784  0104               	movlb	4	; () banked
 12175  003786  6F28               	movwf	40,b	;volatile
 12176  003788  D00C               	goto	i2l289
 12177  00378A                     i2l6719:
 12178                           
 12179                           ; BSR set to: 4
 12180  00378A  0104               	movlb	4	; () banked
 12181  00378C  5120               	movf	32,w,b	;volatile
 12182  00378E  0B1F               	andlw	31
 12183                           
 12184                           ; Switch size 1, requested type "space"
 12185                           ; Number of cases is 3, Range of values is 0 to 2
 12186                           ; switch strategies available:
 12187                           ; Name         Instructions Cycles
 12188                           ; simple_byte           10     6 (average)
 12189                           ;	Chosen strategy is simple_byte
 12190  003790  0A00               	xorlw	0	; case 0
 12191  003792  B4D8               	btfsc	status,2,c
 12192  003794  D7BB               	goto	i2l286
 12193  003796  0A01               	xorlw	1	; case 1
 12194  003798  B4D8               	btfsc	status,2,c
 12195  00379A  D7C0               	goto	i2l290
 12196  00379C  0A03               	xorlw	3	; case 2
 12197  00379E  B4D8               	btfsc	status,2,c
 12198  0037A0  D7C0               	goto	i2l291
 12199  0037A2                     i2l289:
 12200                           
 12201                           ;usb_device.c: 2192: if(inPipes[0].info.bits.busy == 1)
 12202  0037A2  0100               	movlb	0	; () banked
 12203  0037A4  AFC8               	btfss	(_inPipes+3)& (0+255),7,b	;volatile
 12204  0037A6  D00D               	goto	i2l296
 12205                           
 12206                           ; BSR set to: 0
 12207                           ;usb_device.c: 2193: {
 12208                           ;usb_device.c: 2194: inPipes[0].pSrc.bRam = (uint8_t*)&CtrlTrfData;
 12209  0037A8  0104               	movlb	4	; () banked
 12210  0037AA  0E04               	movlw	4	;volatile
 12211  0037AC  0100               	movlb	0	; () banked
 12212  0037AE  6FC6               	movwf	(_inPipes+1)& (0+255),b	;volatile
 12213  0037B0  0104               	movlb	4	; () banked
 12214  0037B2  0E28               	movlw	40	;volatile
 12215  0037B4  0100               	movlb	0	; () banked
 12216  0037B6  6FC5               	movwf	_inPipes& (0+255),b	;volatile
 12217                           
 12218                           ; BSR set to: 0
 12219                           ;usb_device.c: 2195: inPipes[0].info.bits.ctrl_trf_mem = 0x01;
 12220  0037B8  0100               	movlb	0	; () banked
 12221  0037BA  81C8               	bsf	(_inPipes+3)& (0+255),0,b	;volatile
 12222                           
 12223                           ; BSR set to: 0
 12224                           ;usb_device.c: 2196: inPipes[0].wCount.v[0] = 2;
 12225  0037BC  0E02               	movlw	2
 12226  0037BE  0100               	movlb	0	; () banked
 12227  0037C0  6FC9               	movwf	(_inPipes+4)& (0+255),b	;volatile
 12228  0037C2                     i2l296:
 12229                           
 12230                           ; BSR set to: 0
 12231  0037C2  0012               	return	
 12232  0037C4                     __end_of_USBStdGetStatusHandler:
 12233                           	opt stack 0
 12234                           pclatu	equ	0xFFB
 12235                           pclath	equ	0xFFA
 12236                           tblptru	equ	0xFF8
 12237                           tblptrh	equ	0xFF7
 12238                           tblptrl	equ	0xFF6
 12239                           tablat	equ	0xFF5
 12240                           prodh	equ	0xFF4
 12241                           prodl	equ	0xFF3
 12242                           intcon	equ	0xFF2
 12243                           indf0	equ	0xFEF
 12244                           postinc0	equ	0xFEE
 12245                           fsr0h	equ	0xFEA
 12246                           fsr0l	equ	0xFE9
 12247                           wreg	equ	0xFE8
 12248                           indf1	equ	0xFE7
 12249                           fsr1h	equ	0xFE2
 12250                           fsr1l	equ	0xFE1
 12251                           bsr	equ	0xFE0
 12252                           indf2	equ	0xFDF
 12253                           postinc2	equ	0xFDE
 12254                           postdec2	equ	0xFDD
 12255                           plusw2	equ	0xFDB
 12256                           fsr2h	equ	0xFDA
 12257                           fsr2l	equ	0xFD9
 12258                           status	equ	0xFD8
 12259                           
 12260 ;; *************** function _USBStdGetDscHandler *****************
 12261 ;; Defined at:
 12262 ;;		line 2057 in file "usb_device.c"
 12263 ;; Parameters:    Size  Location     Type
 12264 ;;		None
 12265 ;; Auto vars:     Size  Location     Type
 12266 ;;		None
 12267 ;; Return value:  Size  Location     Type
 12268 ;;		None               void
 12269 ;; Registers used:
 12270 ;;		wreg, fsr1l, fsr1h, status,2, status,0, tblptrl, tblptrh, tblptru, prodl, prodh
 12271 ;; Tracked objects:
 12272 ;;		On entry : 0/0
 12273 ;;		On exit  : 0/0
 12274 ;;		Unchanged: 0/0
 12275 ;; Data sizes:     COMRAM   BANK0   BANK1   BANK2   BANK3   BANK4  BANK5h   BANK6   BANK7
 12276 ;;      Params:         0       0       0       0       0       0       0       0       0
 12277 ;;      Locals:         0       0       0       0       0       0       0       0       0
 12278 ;;      Temps:          2       0       0       0       0       0       0       0       0
 12279 ;;      Totals:         2       0       0       0       0       0       0       0       0
 12280 ;;Total ram usage:        2 bytes
 12281 ;; Hardware stack levels used:    1
 12282 ;; This function calls:
 12283 ;;		Nothing
 12284 ;; This function is called by:
 12285 ;;		_USBCheckStdRequest
 12286 ;; This function uses a non-reentrant model
 12287 ;;
 12288                           
 12289                           	psect	text42
 12290  0028F2                     __ptext42:
 12291                           	opt stack 0
 12292  0028F2                     _USBStdGetDscHandler:
 12293                           	opt stack 20
 12294                           
 12295                           ;usb_device.c: 2059: if(SetupPkt.bmRequestType == 0x80)
 12296                           
 12297                           ; BSR set to: 0
 12298                           ;incstack = 0
 12299  0028F2  0104               	movlb	4	; () banked
 12300  0028F4  5120               	movf	32,w,b	;volatile
 12301  0028F6  0A80               	xorlw	128
 12302  0028F8  A4D8               	btfss	status,2,c
 12303  0028FA  D099               	goto	i2l282
 12304                           
 12305                           ; BSR set to: 4
 12306                           ;usb_device.c: 2060: {
 12307                           ;usb_device.c: 2061: inPipes[0].info.Val = 0x00 | 0x80 | 0x40;
 12308  0028FC  0EC0               	movlw	192
 12309  0028FE  0100               	movlb	0	; () banked
 12310  002900  6FC8               	movwf	(_inPipes+3)& (0+255),b	;volatile
 12311                           
 12312                           ;usb_device.c: 2063: switch(SetupPkt.bDescriptorType)
 12313  002902  D089               	goto	i2l6697
 12314  002904                     i2l6673:
 12315                           
 12316                           ;usb_device.c: 2069: inPipes[0].pSrc.bRom = (const uint8_t*)&device_dsc;
 12317  002904  0E08               	movlw	high _device_dsc
 12318  002906  0100               	movlb	0	; () banked
 12319  002908  6FC6               	movwf	(_inPipes+1)& (0+255),b	;volatile
 12320  00290A  0EB1               	movlw	low _device_dsc
 12321  00290C  0100               	movlb	0	; () banked
 12322  00290E  6FC5               	movwf	_inPipes& (0+255),b	;volatile
 12323                           
 12324                           ; BSR set to: 0
 12325                           ;usb_device.c: 2071: inPipes[0].wCount.Val = sizeof(device_dsc);
 12326  002910  0E00               	movlw	0
 12327  002912  0100               	movlb	0	; () banked
 12328  002914  6FCA               	movwf	(_inPipes+5)& (0+255),b	;volatile
 12329  002916  0E12               	movlw	18
 12330  002918  0100               	movlb	0	; () banked
 12331  00291A  6FC9               	movwf	(_inPipes+4)& (0+255),b	;volatile
 12332                           
 12333                           ;usb_device.c: 2072: break;
 12334  00291C  D088               	goto	i2l282
 12335  00291E                     i2l275:
 12336                           
 12337                           ; BSR set to: 4
 12338                           ;usb_device.c: 2077: if(SetupPkt.bDscIndex < 1)
 12339  00291E  0104               	movlb	4	; () banked
 12340  002920  6722               	tstfsz	34,b	;volatile
 12341  002922  D075               	goto	i2l6693
 12342                           
 12343                           ; BSR set to: 4
 12344                           ;usb_device.c: 2078: {
 12345                           ;usb_device.c: 2082: inPipes[0].pSrc.bRom = *(USB_CD_Ptr+SetupPkt.bDscIndex);
 12346  002924  0104               	movlb	4	; () banked
 12347  002926  5122               	movf	34,w,b	;volatile
 12348  002928  0D02               	mullw	2
 12349  00292A  0E07               	movlw	low _USB_CD_Ptr
 12350  00292C  24F3               	addwf	prodl,w,c
 12351  00292E  6EF6               	movwf	tblptrl,c
 12352  002930  0E08               	movlw	high _USB_CD_Ptr
 12353  002932  20F4               	addwfc	prodh,w,c
 12354  002934  6EF7               	movwf	tblptrh,c
 12355  002936                     	if	0	;There are less than 3 active tblptr bytes
 12356  002936                     	endif
 12357  002936  0009               	tblrd		*+
 12358  002938  0100               	movlb	0	; () banked
 12359  00293A  CFF5 F0C5          	movff	tablat,_inPipes	;volatile
 12360  00293E  000A               	tblrd		*-
 12361  002940  0100               	movlb	0	; () banked
 12362  002942  CFF5 F0C6          	movff	tablat,_inPipes+1	;volatile
 12363                           
 12364                           ; BSR set to: 0
 12365                           ;usb_device.c: 2088: inPipes[0].wCount.byte.LB = *(inPipes[0].pSrc.bRom+2);
 12366  002946  0E02               	movlw	2
 12367  002948  0100               	movlb	0	; () banked
 12368  00294A  25C5               	addwf	_inPipes& (0+255),w,b	;volatile
 12369  00294C  6E1D               	movwf	??_USBStdGetDscHandler& (0+255),c
 12370  00294E  0E00               	movlw	0
 12371  002950  0100               	movlb	0	; () banked
 12372  002952  21C6               	addwfc	(_inPipes+1)& (0+255),w,b	;volatile
 12373  002954  6E1E               	movwf	(??_USBStdGetDscHandler+1)& (0+255),c
 12374  002956  C01D  FFF6         	movff	??_USBStdGetDscHandler,tblptrl
 12375  00295A  C01E  FFF7         	movff	??_USBStdGetDscHandler+1,tblptrh
 12376  00295E  6AF8               	clrf	tblptru,c
 12377  002960  0E07               	movlw	(high __ramtop+-1)
 12378  002962  64F7               	cpfsgt	tblptrh,c
 12379  002964  D003               	bra	i2u743_47
 12380  002966  0008               	tblrd		*
 12381  002968  50F5               	movf	tablat,w,c
 12382  00296A  D005               	bra	i2u743_40
 12383  00296C                     i2u743_47:
 12384  00296C  CFF6 FFE1          	movff	tblptrl,fsr1l
 12385  002970  CFF7 FFE2          	movff	tblptrh,fsr1h
 12386  002974  50E7               	movf	indf1,w,c
 12387  002976                     i2u743_40:
 12388  002976  0100               	movlb	0	; () banked
 12389  002978  6FC9               	movwf	(_inPipes+4)& (0+255),b	;volatile
 12390                           
 12391                           ; BSR set to: 0
 12392                           ;usb_device.c: 2089: inPipes[0].wCount.byte.HB = *(inPipes[0].pSrc.bRom+3);
 12393  00297A  0E03               	movlw	3
 12394  00297C  0100               	movlb	0	; () banked
 12395  00297E  25C5               	addwf	_inPipes& (0+255),w,b	;volatile
 12396  002980  6E1D               	movwf	??_USBStdGetDscHandler& (0+255),c
 12397  002982  0E00               	movlw	0
 12398  002984  0100               	movlb	0	; () banked
 12399  002986  21C6               	addwfc	(_inPipes+1)& (0+255),w,b	;volatile
 12400  002988  6E1E               	movwf	(??_USBStdGetDscHandler+1)& (0+255),c
 12401  00298A  C01D  FFF6         	movff	??_USBStdGetDscHandler,tblptrl
 12402  00298E  C01E  FFF7         	movff	??_USBStdGetDscHandler+1,tblptrh
 12403  002992  6AF8               	clrf	tblptru,c
 12404  002994  0E07               	movlw	(high __ramtop+-1)
 12405  002996  64F7               	cpfsgt	tblptrh,c
 12406  002998  D003               	bra	i2u744_47
 12407  00299A  0008               	tblrd		*
 12408  00299C  50F5               	movf	tablat,w,c
 12409  00299E  D005               	bra	i2u744_40
 12410  0029A0                     i2u744_47:
 12411  0029A0  CFF6 FFE1          	movff	tblptrl,fsr1l
 12412  0029A4  CFF7 FFE2          	movff	tblptrh,fsr1h
 12413  0029A8  50E7               	movf	indf1,w,c
 12414  0029AA                     i2u744_40:
 12415  0029AA  0100               	movlb	0	; () banked
 12416  0029AC  6FCA               	movwf	(_inPipes+5)& (0+255),b	;volatile
 12417                           
 12418                           ;usb_device.c: 2090: }
 12419  0029AE  D03F               	goto	i2l282
 12420  0029B0                     i2l6685:
 12421                           
 12422                           ;usb_device.c: 2100: if(SetupPkt.bDscIndex<3)
 12423  0029B0  0E03               	movlw	3
 12424  0029B2  0104               	movlb	4	; () banked
 12425  0029B4  5D22               	subwf	34,w,b	;volatile
 12426  0029B6  B0D8               	btfsc	status,0,c
 12427  0029B8  D02A               	goto	i2l6693
 12428                           
 12429                           ; BSR set to: 4
 12430                           ;usb_device.c: 2101: {
 12431                           ;usb_device.c: 2103: inPipes[0].pSrc.bRom = *(USB_SD_Ptr+SetupPkt.bDscIndex);
 12432  0029BA  0104               	movlb	4	; () banked
 12433  0029BC  5122               	movf	34,w,b	;volatile
 12434  0029BE  0D02               	mullw	2
 12435  0029C0  0E01               	movlw	low _USB_SD_Ptr
 12436  0029C2  24F3               	addwf	prodl,w,c
 12437  0029C4  6EF6               	movwf	tblptrl,c
 12438  0029C6  0E08               	movlw	high _USB_SD_Ptr
 12439  0029C8  20F4               	addwfc	prodh,w,c
 12440  0029CA  6EF7               	movwf	tblptrh,c
 12441  0029CC                     	if	0	;There are less than 3 active tblptr bytes
 12442  0029CC                     	endif
 12443  0029CC  0009               	tblrd		*+
 12444  0029CE  0100               	movlb	0	; () banked
 12445  0029D0  CFF5 F0C5          	movff	tablat,_inPipes	;volatile
 12446  0029D4  000A               	tblrd		*-
 12447  0029D6  0100               	movlb	0	; () banked
 12448  0029D8  CFF5 F0C6          	movff	tablat,_inPipes+1	;volatile
 12449                           
 12450                           ; BSR set to: 0
 12451                           ;usb_device.c: 2105: inPipes[0].wCount.Val = *inPipes[0].pSrc.bRom;
 12452  0029DC  0100               	movlb	0	; () banked
 12453  0029DE  C0C5  FFF6         	movff	_inPipes,tblptrl	;volatile
 12454  0029E2  0100               	movlb	0	; () banked
 12455  0029E4  C0C6  FFF7         	movff	_inPipes+1,tblptrh	;volatile
 12456  0029E8  6AF8               	clrf	tblptru,c
 12457  0029EA  0E07               	movlw	(high __ramtop+-1)
 12458  0029EC  64F7               	cpfsgt	tblptrh,c
 12459  0029EE  D003               	bra	i2u746_47
 12460  0029F0  0008               	tblrd		*
 12461  0029F2  50F5               	movf	tablat,w,c
 12462  0029F4  D005               	bra	i2u746_40
 12463  0029F6                     i2u746_47:
 12464  0029F6  CFF6 FFE1          	movff	tblptrl,fsr1l
 12465  0029FA  CFF7 FFE2          	movff	tblptrh,fsr1h
 12466  0029FE  50E7               	movf	indf1,w,c
 12467  002A00                     i2u746_40:
 12468  002A00  6E1D               	movwf	??_USBStdGetDscHandler& (0+255),c
 12469  002A02  501D               	movf	??_USBStdGetDscHandler,w,c
 12470  002A04  0100               	movlb	0	; () banked
 12471  002A06  6FC9               	movwf	(_inPipes+4)& (0+255),b	;volatile
 12472  002A08  0100               	movlb	0	; () banked
 12473  002A0A  6BCA               	clrf	(_inPipes+5)& (0+255),b	;volatile
 12474                           
 12475                           ;usb_device.c: 2106: }
 12476  002A0C  D010               	goto	i2l282
 12477  002A0E                     i2l6693:
 12478                           
 12479                           ;usb_device.c: 2122: inPipes[0].info.Val = 0;
 12480  002A0E  0E00               	movlw	0
 12481  002A10  0100               	movlb	0	; () banked
 12482  002A12  6FC8               	movwf	(_inPipes+3)& (0+255),b	;volatile
 12483                           
 12484                           ;usb_device.c: 2123: break;
 12485  002A14  D00C               	goto	i2l282
 12486  002A16                     i2l6697:
 12487                           
 12488                           ; BSR set to: 0
 12489  002A16  0104               	movlb	4	; () banked
 12490  002A18  5123               	movf	35,w,b	;volatile
 12491                           
 12492                           ; Switch size 1, requested type "space"
 12493                           ; Number of cases is 3, Range of values is 1 to 3
 12494                           ; switch strategies available:
 12495                           ; Name         Instructions Cycles
 12496                           ; simple_byte           10     6 (average)
 12497                           ;	Chosen strategy is simple_byte
 12498  002A1A  0A01               	xorlw	1	; case 1
 12499  002A1C  B4D8               	btfsc	status,2,c
 12500  002A1E  D772               	goto	i2l6673
 12501  002A20  0A03               	xorlw	3	; case 2
 12502  002A22  B4D8               	btfsc	status,2,c
 12503  002A24  D77C               	goto	i2l275
 12504  002A26  0A01               	xorlw	1	; case 3
 12505  002A28  B4D8               	btfsc	status,2,c
 12506  002A2A  D7C2               	goto	i2l6685
 12507  002A2C  D7F0               	goto	i2l6693
 12508  002A2E                     i2l282:
 12509  002A2E  0012               	return	
 12510  002A30                     __end_of_USBStdGetDscHandler:
 12511                           	opt stack 0
 12512                           pclatu	equ	0xFFB
 12513                           pclath	equ	0xFFA
 12514                           tblptru	equ	0xFF8
 12515                           tblptrh	equ	0xFF7
 12516                           tblptrl	equ	0xFF6
 12517                           tablat	equ	0xFF5
 12518                           prodh	equ	0xFF4
 12519                           prodl	equ	0xFF3
 12520                           intcon	equ	0xFF2
 12521                           indf0	equ	0xFEF
 12522                           postinc0	equ	0xFEE
 12523                           fsr0h	equ	0xFEA
 12524                           fsr0l	equ	0xFE9
 12525                           wreg	equ	0xFE8
 12526                           indf1	equ	0xFE7
 12527                           fsr1h	equ	0xFE2
 12528                           fsr1l	equ	0xFE1
 12529                           bsr	equ	0xFE0
 12530                           indf2	equ	0xFDF
 12531                           postinc2	equ	0xFDE
 12532                           postdec2	equ	0xFDD
 12533                           plusw2	equ	0xFDB
 12534                           fsr2h	equ	0xFDA
 12535                           fsr2l	equ	0xFD9
 12536                           status	equ	0xFD8
 12537                           
 12538 ;; *************** function _USBStdFeatureReqHandler *****************
 12539 ;; Defined at:
 12540 ;;		line 2774 in file "usb_device.c"
 12541 ;; Parameters:    Size  Location     Type
 12542 ;;		None
 12543 ;; Auto vars:     Size  Location     Type
 12544 ;;  p               2   20[BANK0 ] PTR struct __BDT
 12545 ;;		 -> NULL(0), BDT(32), 
 12546 ;;  pUEP            2   17[BANK0 ] PTR unsigned char 
 12547 ;;		 -> UEP0(1), 
 12548 ;;  current_ep_d    1   19[BANK0 ] struct .
 12549 ;; Return value:  Size  Location     Type
 12550 ;;		None               void
 12551 ;; Registers used:
 12552 ;;		wreg, fsr2l, fsr2h, status,2, status,0, prodl, prodh, cstack
 12553 ;; Tracked objects:
 12554 ;;		On entry : 0/0
 12555 ;;		On exit  : 0/0
 12556 ;;		Unchanged: 0/0
 12557 ;; Data sizes:     COMRAM   BANK0   BANK1   BANK2   BANK3   BANK4  BANK5h   BANK6   BANK7
 12558 ;;      Params:         0       0       0       0       0       0       0       0       0
 12559 ;;      Locals:         0       5       0       0       0       0       0       0       0
 12560 ;;      Temps:          0       3       0       0       0       0       0       0       0
 12561 ;;      Totals:         0       8       0       0       0       0       0       0       0
 12562 ;;Total ram usage:        8 bytes
 12563 ;; Hardware stack levels used:    1
 12564 ;; Hardware stack levels required when called:    4
 12565 ;; This function calls:
 12566 ;;		_USER_USB_CALLBACK_EVENT_HANDLER
 12567 ;; This function is called by:
 12568 ;;		_USBCheckStdRequest
 12569 ;; This function uses a non-reentrant model
 12570 ;;
 12571                           
 12572                           	psect	text43
 12573  001C06                     __ptext43:
 12574                           	opt stack 0
 12575  001C06                     _USBStdFeatureReqHandler:
 12576                           	opt stack 16
 12577                           
 12578                           ;usb_device.c: 2776: BDT_ENTRY *p;
 12579                           ;usb_device.c: 2777: EP_STATUS current_ep_data;
 12580                           ;usb_device.c: 2781: unsigned char* pUEP;
 12581                           ;usb_device.c: 2819: if((SetupPkt.bFeature == 1)&&
 12582                           ;usb_device.c: 2820: (SetupPkt.Recipient == (0x00)))
 12583                           
 12584                           ;incstack = 0
 12585  001C06  0104               	movlb	4	; () banked
 12586  001C08  0522               	decf	34,w,b	;volatile
 12587  001C0A  A4D8               	btfss	status,2,c
 12588  001C0C  D011               	goto	i2l6739
 12589                           
 12590                           ; BSR set to: 4
 12591  001C0E  0104               	movlb	4	; () banked
 12592  001C10  5120               	movf	32,w,b	;volatile
 12593  001C12  0B1F               	andlw	31
 12594  001C14  0900               	iorlw	0
 12595  001C16  A4D8               	btfss	status,2,c
 12596  001C18  D00B               	goto	i2l6739
 12597                           
 12598                           ; BSR set to: 4
 12599                           ;usb_device.c: 2821: {
 12600                           ;usb_device.c: 2822: inPipes[0].info.bits.busy = 1;
 12601  001C1A  0100               	movlb	0	; () banked
 12602  001C1C  8FC8               	bsf	(_inPipes+3)& (0+255),7,b	;volatile
 12603                           
 12604                           ; BSR set to: 0
 12605                           ;usb_device.c: 2823: if(SetupPkt.bRequest == 3)
 12606  001C1E  0104               	movlb	4	; () banked
 12607  001C20  5121               	movf	33,w,b	;volatile
 12608  001C22  0A03               	xorlw	3
 12609  001C24  A4D8               	btfss	status,2,c
 12610  001C26  D002               	goto	i2l6737
 12611                           
 12612                           ; BSR set to: 4
 12613                           ;usb_device.c: 2824: RemoteWakeup = 1;
 12614  001C28  0E01               	movlw	1
 12615  001C2A  D001               	goto	L64
 12616  001C2C                     i2l6737:
 12617                           
 12618                           ; BSR set to: 4
 12619                           ;usb_device.c: 2825: else
 12620                           ;usb_device.c: 2826: RemoteWakeup = 0;
 12621  001C2C  0E00               	movlw	0
 12622  001C2E                     L64:
 12623  001C2E  6E32               	movwf	_RemoteWakeup,c	;volatile
 12624  001C30                     i2l6739:
 12625                           
 12626                           ; BSR set to: 4
 12627                           ;usb_device.c: 2827: }
 12628                           ;usb_device.c: 2830: if((SetupPkt.bFeature == 0)&&
 12629                           ;usb_device.c: 2831: (SetupPkt.Recipient == (0x02))&&
 12630                           ;usb_device.c: 2832: (SetupPkt.EPNum != 0) && (SetupPkt.EPNum <= 1)&&
 12631                           ;usb_device.c: 2833: (USBDeviceState == CONFIGURED_STATE))
 12632  001C30  0104               	movlb	4	; () banked
 12633  001C32  6722               	tstfsz	34,b	;volatile
 12634  001C34  D177               	goto	i2l388
 12635                           
 12636                           ; BSR set to: 4
 12637  001C36  0104               	movlb	4	; () banked
 12638  001C38  5120               	movf	32,w,b	;volatile
 12639  001C3A  0B1F               	andlw	31
 12640  001C3C  0A02               	xorlw	2
 12641  001C3E  A4D8               	btfss	status,2,c
 12642  001C40  D171               	goto	i2l388
 12643                           
 12644                           ; BSR set to: 4
 12645  001C42  0104               	movlb	4	; () banked
 12646  001C44  5124               	movf	36,w,b	;volatile
 12647  001C46  0B0F               	andlw	15
 12648  001C48  0900               	iorlw	0
 12649  001C4A  B4D8               	btfsc	status,2,c
 12650  001C4C  D16B               	goto	i2l388
 12651                           
 12652                           ; BSR set to: 4
 12653  001C4E  0104               	movlb	4	; () banked
 12654  001C50  5124               	movf	36,w,b	;volatile
 12655  001C52  0B0F               	andlw	15
 12656  001C54  0100               	movlb	0	; () banked
 12657  001C56  6F6E               	movwf	??_USBStdFeatureReqHandler& (0+255),b
 12658  001C58  0E02               	movlw	2
 12659  001C5A  0100               	movlb	0	; () banked
 12660  001C5C  5D6E               	subwf	??_USBStdFeatureReqHandler& (0+255),w,b
 12661  001C5E  B0D8               	btfsc	status,0,c
 12662  001C60  D161               	goto	i2l388
 12663                           
 12664                           ; BSR set to: 0
 12665  001C62  5037               	movf	_USBDeviceState,w,c	;volatile
 12666  001C64  0A20               	xorlw	32
 12667  001C66  A4D8               	btfss	status,2,c
 12668  001C68  D15D               	goto	i2l388
 12669                           
 12670                           ; BSR set to: 0
 12671                           ;usb_device.c: 2834: {
 12672                           ;usb_device.c: 2837: inPipes[0].info.bits.busy = 1;
 12673  001C6A  0100               	movlb	0	; () banked
 12674  001C6C  8FC8               	bsf	(_inPipes+3)& (0+255),7,b	;volatile
 12675                           
 12676                           ;usb_device.c: 2840: if(SetupPkt.EPDir == 0)
 12677  001C6E  0104               	movlb	4	; () banked
 12678  001C70  BF24               	btfsc	36,7,b	;volatile
 12679  001C72  D025               	goto	i2l6753
 12680                           
 12681                           ; BSR set to: 4
 12682                           ;usb_device.c: 2841: {
 12683                           ;usb_device.c: 2842: p = (BDT_ENTRY*)pBDTEntryOut[SetupPkt.EPNum];
 12684  001C74  0104               	movlb	4	; () banked
 12685  001C76  5124               	movf	36,w,b	;volatile
 12686  001C78  0B0F               	andlw	15
 12687  001C7A  0100               	movlb	0	; () banked
 12688  001C7C  6F6E               	movwf	??_USBStdFeatureReqHandler& (0+255),b
 12689  001C7E  0100               	movlb	0	; () banked
 12690  001C80  516E               	movf	??_USBStdFeatureReqHandler& (0+255),w,b
 12691  001C82  0D02               	mullw	2
 12692  001C84  0100               	movlb	0	; () banked
 12693  001C86  0EAF               	movlw	low _pBDTEntryOut
 12694  001C88  24F3               	addwf	prodl,w,c
 12695  001C8A  6ED9               	movwf	fsr2l,c
 12696  001C8C  0100               	movlb	0	; () banked
 12697  001C8E  0E00               	movlw	high _pBDTEntryOut
 12698  001C90  20F4               	addwfc	prodh,w,c
 12699  001C92  6EDA               	movwf	fsr2h,c
 12700  001C94  0100               	movlb	0	; () banked
 12701  001C96  CFDE F074          	movff	postinc2,USBStdFeatureReqHandler@p
 12702  001C9A  0100               	movlb	0	; () banked
 12703  001C9C  CFDD F075          	movff	postdec2,USBStdFeatureReqHandler@p+1
 12704                           
 12705                           ;usb_device.c: 2843: current_ep_data.Val = ep_data_out[SetupPkt.EPNum].Val;
 12706  001CA0  0104               	movlb	4	; () banked
 12707  001CA2  5124               	movf	36,w,b	;volatile
 12708  001CA4  0B0F               	andlw	15
 12709  001CA6  0100               	movlb	0	; () banked
 12710  001CA8  6F6E               	movwf	??_USBStdFeatureReqHandler& (0+255),b
 12711  001CAA  0100               	movlb	0	; () banked
 12712  001CAC  516E               	movf	??_USBStdFeatureReqHandler& (0+255),w,b
 12713  001CAE  0D01               	mullw	1
 12714  001CB0  0100               	movlb	0	; () banked
 12715  001CB2  0EC1               	movlw	low _ep_data_out	;volatile
 12716  001CB4  24F3               	addwf	prodl,w,c
 12717  001CB6  6ED9               	movwf	fsr2l,c
 12718  001CB8  0100               	movlb	0	; () banked
 12719  001CBA  0E00               	movlw	high _ep_data_out	;volatile
 12720  001CBC  D024               	goto	L65
 12721  001CBE                     i2l6753:
 12722                           
 12723                           ;usb_device.c: 2845: else
 12724                           ;usb_device.c: 2846: {
 12725                           ;usb_device.c: 2847: p = (BDT_ENTRY*)pBDTEntryIn[SetupPkt.EPNum];
 12726  001CBE  0104               	movlb	4	; () banked
 12727  001CC0  5124               	movf	36,w,b	;volatile
 12728  001CC2  0B0F               	andlw	15
 12729  001CC4  0100               	movlb	0	; () banked
 12730  001CC6  6F6E               	movwf	??_USBStdFeatureReqHandler& (0+255),b
 12731  001CC8  0100               	movlb	0	; () banked
 12732  001CCA  516E               	movf	??_USBStdFeatureReqHandler& (0+255),w,b
 12733  001CCC  0D02               	mullw	2
 12734  001CCE  0100               	movlb	0	; () banked
 12735  001CD0  0EAB               	movlw	low _pBDTEntryIn
 12736  001CD2  24F3               	addwf	prodl,w,c
 12737  001CD4  6ED9               	movwf	fsr2l,c
 12738  001CD6  0100               	movlb	0	; () banked
 12739  001CD8  0E00               	movlw	high _pBDTEntryIn
 12740  001CDA  20F4               	addwfc	prodh,w,c
 12741  001CDC  6EDA               	movwf	fsr2h,c
 12742  001CDE  0100               	movlb	0	; () banked
 12743  001CE0  CFDE F074          	movff	postinc2,USBStdFeatureReqHandler@p
 12744  001CE4  0100               	movlb	0	; () banked
 12745  001CE6  CFDD F075          	movff	postdec2,USBStdFeatureReqHandler@p+1
 12746                           
 12747                           ;usb_device.c: 2848: current_ep_data.Val = ep_data_in[SetupPkt.EPNum].Val;
 12748  001CEA  0104               	movlb	4	; () banked
 12749  001CEC  5124               	movf	36,w,b	;volatile
 12750  001CEE  0B0F               	andlw	15
 12751  001CF0  0100               	movlb	0	; () banked
 12752  001CF2  6F6E               	movwf	??_USBStdFeatureReqHandler& (0+255),b
 12753  001CF4  0100               	movlb	0	; () banked
 12754  001CF6  516E               	movf	??_USBStdFeatureReqHandler& (0+255),w,b
 12755  001CF8  0D01               	mullw	1
 12756  001CFA  0100               	movlb	0	; () banked
 12757  001CFC  0EBF               	movlw	low _ep_data_in	;volatile
 12758  001CFE  24F3               	addwf	prodl,w,c
 12759  001D00  6ED9               	movwf	fsr2l,c
 12760  001D02  0100               	movlb	0	; () banked
 12761  001D04  0E00               	movlw	high _ep_data_in	;volatile
 12762  001D06                     L65:
 12763  001D06  20F4               	addwfc	prodh,w,c
 12764  001D08  6EDA               	movwf	fsr2h,c
 12765  001D0A  50DF               	movf	indf2,w,c
 12766  001D0C  0100               	movlb	0	; () banked
 12767  001D0E  6F73               	movwf	USBStdFeatureReqHandler@current_ep_data& (0+255),b
 12768                           
 12769                           ; BSR set to: 0
 12770                           ;usb_device.c: 2849: }
 12771                           ;usb_device.c: 2855: if(current_ep_data.bits.ping_pong_state == 0)
 12772                           
 12773                           ; BSR set to: 0
 12774  001D10  0100               	movlb	0	; () banked
 12775  001D12  B173               	btfsc	USBStdFeatureReqHandler@current_ep_data& (0+255),0,b
 12776  001D14  D003               	goto	i2l6759
 12777                           
 12778                           ; BSR set to: 0
 12779                           ;usb_device.c: 2856: {
 12780                           ;usb_device.c: 2857: {((uint8_t_VAL*)&p)->Val &= ~0x0004;};
 12781  001D16  0100               	movlb	0	; () banked
 12782  001D18  9574               	bcf	USBStdFeatureReqHandler@p& (0+255),2,b
 12783                           
 12784                           ;usb_device.c: 2858: }
 12785  001D1A  D002               	goto	i2l6761
 12786  001D1C                     i2l6759:
 12787                           
 12788                           ; BSR set to: 0
 12789                           ;usb_device.c: 2859: else
 12790                           ;usb_device.c: 2860: {
 12791                           ;usb_device.c: 2861: {((uint8_t_VAL*)&p)->Val |= 0x0004;};
 12792  001D1C  0100               	movlb	0	; () banked
 12793  001D1E  8574               	bsf	USBStdFeatureReqHandler@p& (0+255),2,b
 12794  001D20                     i2l6761:
 12795                           
 12796                           ; BSR set to: 0
 12797                           ;usb_device.c: 2862: }
 12798                           ;usb_device.c: 2867: if(SetupPkt.EPDir == 0)
 12799  001D20  0104               	movlb	4	; () banked
 12800  001D22  BF24               	btfsc	36,7,b	;volatile
 12801  001D24  D00F               	goto	i2l6765
 12802                           
 12803                           ; BSR set to: 4
 12804                           ;usb_device.c: 2868: {
 12805                           ;usb_device.c: 2869: pBDTEntryOut[SetupPkt.EPNum] = (volatile BDT_ENTRY *)p;
 12806  001D26  0104               	movlb	4	; () banked
 12807  001D28  5124               	movf	36,w,b	;volatile
 12808  001D2A  0B0F               	andlw	15
 12809  001D2C  0100               	movlb	0	; () banked
 12810  001D2E  6F6E               	movwf	??_USBStdFeatureReqHandler& (0+255),b
 12811  001D30  0100               	movlb	0	; () banked
 12812  001D32  516E               	movf	??_USBStdFeatureReqHandler& (0+255),w,b
 12813  001D34  0D02               	mullw	2
 12814  001D36  0100               	movlb	0	; () banked
 12815  001D38  0EAF               	movlw	low _pBDTEntryOut
 12816  001D3A  24F3               	addwf	prodl,w,c
 12817  001D3C  6ED9               	movwf	fsr2l,c
 12818  001D3E  0100               	movlb	0	; () banked
 12819  001D40  0E00               	movlw	high _pBDTEntryOut
 12820  001D42  D00E               	goto	L66
 12821  001D44                     i2l6765:
 12822                           
 12823                           ;usb_device.c: 2871: else
 12824                           ;usb_device.c: 2872: {
 12825                           ;usb_device.c: 2873: pBDTEntryIn[SetupPkt.EPNum] = (volatile BDT_ENTRY *)p;
 12826  001D44  0104               	movlb	4	; () banked
 12827  001D46  5124               	movf	36,w,b	;volatile
 12828  001D48  0B0F               	andlw	15
 12829  001D4A  0100               	movlb	0	; () banked
 12830  001D4C  6F6E               	movwf	??_USBStdFeatureReqHandler& (0+255),b
 12831  001D4E  0100               	movlb	0	; () banked
 12832  001D50  516E               	movf	??_USBStdFeatureReqHandler& (0+255),w,b
 12833  001D52  0D02               	mullw	2
 12834  001D54  0100               	movlb	0	; () banked
 12835  001D56  0EAB               	movlw	low _pBDTEntryIn
 12836  001D58  24F3               	addwf	prodl,w,c
 12837  001D5A  6ED9               	movwf	fsr2l,c
 12838  001D5C  0100               	movlb	0	; () banked
 12839  001D5E  0E00               	movlw	high _pBDTEntryIn
 12840  001D60                     L66:
 12841  001D60  20F4               	addwfc	prodh,w,c
 12842  001D62  6EDA               	movwf	fsr2h,c
 12843  001D64  0100               	movlb	0	; () banked
 12844  001D66  C074  FFDE         	movff	USBStdFeatureReqHandler@p,postinc2
 12845  001D6A  0100               	movlb	0	; () banked
 12846  001D6C  C075  FFDD         	movff	USBStdFeatureReqHandler@p+1,postdec2
 12847                           
 12848                           ; BSR set to: 0
 12849                           ;usb_device.c: 2874: }
 12850                           ;usb_device.c: 2877: if(SetupPkt.bRequest == 3)
 12851                           
 12852                           ; BSR set to: 0
 12853  001D70  0104               	movlb	4	; () banked
 12854  001D72  5121               	movf	33,w,b	;volatile
 12855  001D74  0A03               	xorlw	3
 12856  001D76  A4D8               	btfss	status,2,c
 12857  001D78  D037               	goto	i2l6781
 12858                           
 12859                           ; BSR set to: 4
 12860                           ;usb_device.c: 2878: {
 12861                           ;usb_device.c: 2879: if(p->STAT.UOWN == 1)
 12862  001D7A  C074  FFD9         	movff	USBStdFeatureReqHandler@p,fsr2l
 12863  001D7E  C075  FFDA         	movff	USBStdFeatureReqHandler@p+1,fsr2h
 12864  001D82  AEDF               	btfss	indf2,7,c
 12865  001D84  D024               	goto	i2l6777
 12866                           
 12867                           ; BSR set to: 4
 12868                           ;usb_device.c: 2880: {
 12869                           ;usb_device.c: 2883: if(SetupPkt.EPDir == 0)
 12870  001D86  0104               	movlb	4	; () banked
 12871  001D88  BF24               	btfsc	36,7,b	;volatile
 12872  001D8A  D00F               	goto	i2l6775
 12873                           
 12874                           ; BSR set to: 4
 12875                           ;usb_device.c: 2884: {
 12876                           ;usb_device.c: 2885: ep_data_out[SetupPkt.EPNum].bits.transfer_terminated = 1;
 12877  001D8C  0104               	movlb	4	; () banked
 12878  001D8E  5124               	movf	36,w,b	;volatile
 12879  001D90  0B0F               	andlw	15
 12880  001D92  0100               	movlb	0	; () banked
 12881  001D94  6F6E               	movwf	??_USBStdFeatureReqHandler& (0+255),b
 12882  001D96  0100               	movlb	0	; () banked
 12883  001D98  516E               	movf	??_USBStdFeatureReqHandler& (0+255),w,b
 12884  001D9A  0D01               	mullw	1
 12885  001D9C  0100               	movlb	0	; () banked
 12886  001D9E  0EC1               	movlw	low _ep_data_out	;volatile
 12887  001DA0  24F3               	addwf	prodl,w,c
 12888  001DA2  6ED9               	movwf	fsr2l,c
 12889  001DA4  0100               	movlb	0	; () banked
 12890  001DA6  0E00               	movlw	high _ep_data_out	;volatile
 12891  001DA8  D00E               	goto	L67
 12892  001DAA                     i2l6775:
 12893                           
 12894                           ;usb_device.c: 2887: else
 12895                           ;usb_device.c: 2888: {
 12896                           ;usb_device.c: 2889: ep_data_in[SetupPkt.EPNum].bits.transfer_terminated = 1;
 12897  001DAA  0104               	movlb	4	; () banked
 12898  001DAC  5124               	movf	36,w,b	;volatile
 12899  001DAE  0B0F               	andlw	15
 12900  001DB0  0100               	movlb	0	; () banked
 12901  001DB2  6F6E               	movwf	??_USBStdFeatureReqHandler& (0+255),b
 12902  001DB4  0100               	movlb	0	; () banked
 12903  001DB6  516E               	movf	??_USBStdFeatureReqHandler& (0+255),w,b
 12904  001DB8  0D01               	mullw	1
 12905  001DBA  0100               	movlb	0	; () banked
 12906  001DBC  0EBF               	movlw	low _ep_data_in	;volatile
 12907  001DBE  24F3               	addwf	prodl,w,c
 12908  001DC0  6ED9               	movwf	fsr2l,c
 12909  001DC2  0100               	movlb	0	; () banked
 12910  001DC4  0E00               	movlw	high _ep_data_in	;volatile
 12911  001DC6                     L67:
 12912  001DC6  20F4               	addwfc	prodh,w,c
 12913  001DC8  6EDA               	movwf	fsr2h,c
 12914  001DCA  0100               	movlb	0	; () banked
 12915  001DCC  82DF               	bsf	indf2,1,c
 12916  001DCE                     i2l6777:
 12917                           
 12918                           ;usb_device.c: 2890: }
 12919                           ;usb_device.c: 2891: }
 12920                           ;usb_device.c: 2894: p->STAT.Val |= 0x04;
 12921  001DCE  C074  FFD9         	movff	USBStdFeatureReqHandler@p,fsr2l
 12922  001DD2  C075  FFDA         	movff	USBStdFeatureReqHandler@p+1,fsr2h
 12923  001DD6  0E00               	movlw	0
 12924  001DD8  84DB               	bsf	plusw2,2,c
 12925                           
 12926                           ;usb_device.c: 2895: p->STAT.Val |= 0x80;
 12927  001DDA  C074  FFD9         	movff	USBStdFeatureReqHandler@p,fsr2l
 12928  001DDE  C075  FFDA         	movff	USBStdFeatureReqHandler@p+1,fsr2h
 12929  001DE2  0E00               	movlw	0
 12930  001DE4  8EDB               	bsf	plusw2,7,c
 12931                           
 12932                           ;usb_device.c: 2896: }
 12933  001DE6  D09E               	goto	i2l388
 12934  001DE8                     i2l6781:
 12935                           
 12936                           ;usb_device.c: 2897: else
 12937                           ;usb_device.c: 2898: {
 12938                           ;usb_device.c: 2902: {((uint8_t_VAL*)&p)->Val ^= 0x0004;};
 12939  001DE8  0E04               	movlw	4
 12940  001DEA  0100               	movlb	0	; () banked
 12941  001DEC  1B74               	xorwf	USBStdFeatureReqHandler@p& (0+255),f,b
 12942                           
 12943                           ; BSR set to: 0
 12944                           ;usb_device.c: 2904: if(p->STAT.UOWN == 1)
 12945  001DEE  C074  FFD9         	movff	USBStdFeatureReqHandler@p,fsr2l
 12946  001DF2  C075  FFDA         	movff	USBStdFeatureReqHandler@p+1,fsr2h
 12947  001DF6  AEDF               	btfss	indf2,7,c
 12948  001DF8  D021               	goto	i2l6791
 12949                           
 12950                           ; BSR set to: 0
 12951                           ;usb_device.c: 2905: {
 12952                           ;usb_device.c: 2908: p->STAT.Val &= (~0x80);
 12953  001DFA  C074  FFD9         	movff	USBStdFeatureReqHandler@p,fsr2l
 12954  001DFE  C075  FFDA         	movff	USBStdFeatureReqHandler@p+1,fsr2h
 12955  001E02  0E7F               	movlw	127
 12956  001E04  16DF               	andwf	indf2,f,c
 12957                           
 12958                           ; BSR set to: 0
 12959                           ;usb_device.c: 2909: p->STAT.Val |= 0x40;
 12960  001E06  C074  FFD9         	movff	USBStdFeatureReqHandler@p,fsr2l
 12961  001E0A  C075  FFDA         	movff	USBStdFeatureReqHandler@p+1,fsr2h
 12962  001E0E  0E00               	movlw	0
 12963  001E10  8CDB               	bsf	plusw2,6,c
 12964                           
 12965                           ; BSR set to: 0
 12966                           ;usb_device.c: 2910: USER_USB_CALLBACK_EVENT_HANDLER(EVENT_TRANSFER_TERMINATED,p,sizeof(
      +                          p));
 12967  001E12  0E00               	movlw	0
 12968  001E14  0100               	movlb	0	; () banked
 12969  001E16  6F67               	movwf	(USER_USB_CALLBACK_EVENT_HANDLER@event+1)& (0+255),b
 12970  001E18  0E05               	movlw	5
 12971  001E1A  0100               	movlb	0	; () banked
 12972  001E1C  6F66               	movwf	USER_USB_CALLBACK_EVENT_HANDLER@event& (0+255),b
 12973  001E1E  0100               	movlb	0	; () banked
 12974  001E20  C075  F069         	movff	USBStdFeatureReqHandler@p+1,USER_USB_CALLBACK_EVENT_HANDLER@pdata+1
 12975  001E24  0100               	movlb	0	; () banked
 12976  001E26  C074  F068         	movff	USBStdFeatureReqHandler@p,USER_USB_CALLBACK_EVENT_HANDLER@pdata
 12977  001E2A  0E00               	movlw	0
 12978  001E2C  0100               	movlb	0	; () banked
 12979  001E2E  6F6B               	movwf	(USER_USB_CALLBACK_EVENT_HANDLER@size+1)& (0+255),b
 12980  001E30  0E02               	movlw	2
 12981  001E32  0100               	movlb	0	; () banked
 12982  001E34  6F6A               	movwf	USER_USB_CALLBACK_EVENT_HANDLER@size& (0+255),b
 12983  001E36  EC2A  F01E         	call	_USER_USB_CALLBACK_EVENT_HANDLER	;wreg free
 12984                           
 12985                           ;usb_device.c: 2911: }
 12986  001E3A  D006               	goto	i2l6793
 12987  001E3C                     i2l6791:
 12988                           
 12989                           ;usb_device.c: 2912: else
 12990                           ;usb_device.c: 2913: {
 12991                           ;usb_device.c: 2915: p->STAT.Val |= 0x40;
 12992  001E3C  C074  FFD9         	movff	USBStdFeatureReqHandler@p,fsr2l
 12993  001E40  C075  FFDA         	movff	USBStdFeatureReqHandler@p+1,fsr2h
 12994  001E44  0E00               	movlw	0
 12995  001E46  8CDB               	bsf	plusw2,6,c
 12996  001E48                     i2l6793:
 12997                           
 12998                           ;usb_device.c: 2916: }
 12999                           ;usb_device.c: 2920: {((uint8_t_VAL*)&p)->Val ^= 0x0004;};
 13000  001E48  0E04               	movlw	4
 13001  001E4A  0100               	movlb	0	; () banked
 13002  001E4C  1B74               	xorwf	USBStdFeatureReqHandler@p& (0+255),f,b
 13003                           
 13004                           ; BSR set to: 0
 13005                           ;usb_device.c: 2926: if((current_ep_data.bits.transfer_terminated != 0) || (p->STAT.UOWN
      +                           == 1))
 13006  001E4E  0100               	movlb	0	; () banked
 13007  001E50  B373               	btfsc	USBStdFeatureReqHandler@current_ep_data& (0+255),1,b
 13008  001E52  D006               	goto	i2l384
 13009                           
 13010                           ; BSR set to: 0
 13011  001E54  C074  FFD9         	movff	USBStdFeatureReqHandler@p,fsr2l
 13012  001E58  C075  FFDA         	movff	USBStdFeatureReqHandler@p+1,fsr2h
 13013  001E5C  AEDF               	btfss	indf2,7,c
 13014  001E5E  D03F               	goto	i2l6807
 13015  001E60                     i2l384:
 13016                           
 13017                           ; BSR set to: 0
 13018                           ;usb_device.c: 2927: {
 13019                           ;usb_device.c: 2928: if(SetupPkt.EPDir == 0)
 13020  001E60  0104               	movlb	4	; () banked
 13021  001E62  BF24               	btfsc	36,7,b	;volatile
 13022  001E64  D00F               	goto	i2l6801
 13023                           
 13024                           ; BSR set to: 4
 13025                           ;usb_device.c: 2929: {
 13026                           ;usb_device.c: 2930: ep_data_out[SetupPkt.EPNum].bits.transfer_terminated = 0;
 13027  001E66  0104               	movlb	4	; () banked
 13028  001E68  5124               	movf	36,w,b	;volatile
 13029  001E6A  0B0F               	andlw	15
 13030  001E6C  0100               	movlb	0	; () banked
 13031  001E6E  6F6E               	movwf	??_USBStdFeatureReqHandler& (0+255),b
 13032  001E70  0100               	movlb	0	; () banked
 13033  001E72  516E               	movf	??_USBStdFeatureReqHandler& (0+255),w,b
 13034  001E74  0D01               	mullw	1
 13035  001E76  0100               	movlb	0	; () banked
 13036  001E78  0EC1               	movlw	low _ep_data_out	;volatile
 13037  001E7A  24F3               	addwf	prodl,w,c
 13038  001E7C  6ED9               	movwf	fsr2l,c
 13039  001E7E  0100               	movlb	0	; () banked
 13040  001E80  0E00               	movlw	high _ep_data_out	;volatile
 13041  001E82  D00E               	goto	L68
 13042  001E84                     i2l6801:
 13043                           
 13044                           ;usb_device.c: 2932: else
 13045                           ;usb_device.c: 2933: {
 13046                           ;usb_device.c: 2934: ep_data_in[SetupPkt.EPNum].bits.transfer_terminated = 0;
 13047  001E84  0104               	movlb	4	; () banked
 13048  001E86  5124               	movf	36,w,b	;volatile
 13049  001E88  0B0F               	andlw	15
 13050  001E8A  0100               	movlb	0	; () banked
 13051  001E8C  6F6E               	movwf	??_USBStdFeatureReqHandler& (0+255),b
 13052  001E8E  0100               	movlb	0	; () banked
 13053  001E90  516E               	movf	??_USBStdFeatureReqHandler& (0+255),w,b
 13054  001E92  0D01               	mullw	1
 13055  001E94  0100               	movlb	0	; () banked
 13056  001E96  0EBF               	movlw	low _ep_data_in	;volatile
 13057  001E98  24F3               	addwf	prodl,w,c
 13058  001E9A  6ED9               	movwf	fsr2l,c
 13059  001E9C  0100               	movlb	0	; () banked
 13060  001E9E  0E00               	movlw	high _ep_data_in	;volatile
 13061  001EA0                     L68:
 13062  001EA0  20F4               	addwfc	prodh,w,c
 13063  001EA2  6EDA               	movwf	fsr2h,c
 13064  001EA4  0100               	movlb	0	; () banked
 13065  001EA6  92DF               	bcf	indf2,1,c
 13066                           
 13067                           ; BSR set to: 0
 13068                           ;usb_device.c: 2935: }
 13069                           ;usb_device.c: 2937: p->STAT.Val &= ~(0x80 | 0x40 | 0x04);
 13070                           
 13071                           ; BSR set to: 0
 13072  001EA8  C074  FFD9         	movff	USBStdFeatureReqHandler@p,fsr2l
 13073  001EAC  C075  FFDA         	movff	USBStdFeatureReqHandler@p+1,fsr2h
 13074  001EB0  0E3B               	movlw	59
 13075  001EB2  16DF               	andwf	indf2,f,c
 13076                           
 13077                           ; BSR set to: 0
 13078                           ;usb_device.c: 2940: USER_USB_CALLBACK_EVENT_HANDLER(EVENT_TRANSFER_TERMINATED,p,sizeof(
      +                          p));
 13079  001EB4  0E00               	movlw	0
 13080  001EB6  0100               	movlb	0	; () banked
 13081  001EB8  6F67               	movwf	(USER_USB_CALLBACK_EVENT_HANDLER@event+1)& (0+255),b
 13082  001EBA  0E05               	movlw	5
 13083  001EBC  0100               	movlb	0	; () banked
 13084  001EBE  6F66               	movwf	USER_USB_CALLBACK_EVENT_HANDLER@event& (0+255),b
 13085  001EC0  0100               	movlb	0	; () banked
 13086  001EC2  C075  F069         	movff	USBStdFeatureReqHandler@p+1,USER_USB_CALLBACK_EVENT_HANDLER@pdata+1
 13087  001EC6  0100               	movlb	0	; () banked
 13088  001EC8  C074  F068         	movff	USBStdFeatureReqHandler@p,USER_USB_CALLBACK_EVENT_HANDLER@pdata
 13089  001ECC  0E00               	movlw	0
 13090  001ECE  0100               	movlb	0	; () banked
 13091  001ED0  6F6B               	movwf	(USER_USB_CALLBACK_EVENT_HANDLER@size+1)& (0+255),b
 13092  001ED2  0E02               	movlw	2
 13093  001ED4  0100               	movlb	0	; () banked
 13094  001ED6  6F6A               	movwf	USER_USB_CALLBACK_EVENT_HANDLER@size& (0+255),b
 13095  001ED8  EC2A  F01E         	call	_USER_USB_CALLBACK_EVENT_HANDLER	;wreg free
 13096                           
 13097                           ;usb_device.c: 2941: }
 13098  001EDC  D006               	goto	i2l6809
 13099  001EDE                     i2l6807:
 13100                           
 13101                           ;usb_device.c: 2942: else
 13102                           ;usb_device.c: 2943: {
 13103                           ;usb_device.c: 2945: p->STAT.Val &= ~(0x80 | 0x40 | 0x04);
 13104  001EDE  C074  FFD9         	movff	USBStdFeatureReqHandler@p,fsr2l
 13105  001EE2  C075  FFDA         	movff	USBStdFeatureReqHandler@p+1,fsr2h
 13106  001EE6  0E3B               	movlw	59
 13107  001EE8  16DF               	andwf	indf2,f,c
 13108  001EEA                     i2l6809:
 13109                           
 13110                           ;usb_device.c: 2946: }
 13111                           ;usb_device.c: 2993: pUEP = (unsigned char*)(&UEP0+SetupPkt.EPNum);
 13112  001EEA  0104               	movlb	4	; () banked
 13113  001EEC  5124               	movf	36,w,b	;volatile
 13114  001EEE  0B0F               	andlw	15
 13115  001EF0  0100               	movlb	0	; () banked
 13116  001EF2  6F6E               	movwf	??_USBStdFeatureReqHandler& (0+255),b
 13117  001EF4  0100               	movlb	0	; () banked
 13118  001EF6  516E               	movf	??_USBStdFeatureReqHandler& (0+255),w,b
 13119  001EF8  0D01               	mullw	1
 13120  001EFA  0E70               	movlw	112	;volatile
 13121  001EFC  0100               	movlb	0	; () banked
 13122  001EFE  6F6F               	movwf	(??_USBStdFeatureReqHandler+1)& (0+255),b
 13123  001F00  0E0F               	movlw	15	;volatile
 13124  001F02  6F70               	movwf	(??_USBStdFeatureReqHandler+2)& (0+255),b
 13125  001F04  50F3               	movf	prodl,w,c
 13126  001F06  0100               	movlb	0	; () banked
 13127  001F08  276F               	addwf	(??_USBStdFeatureReqHandler+1)& (0+255),f,b
 13128  001F0A  50F4               	movf	prodh,w,c
 13129  001F0C  0100               	movlb	0	; () banked
 13130  001F0E  2370               	addwfc	(??_USBStdFeatureReqHandler+2)& (0+255),f,b
 13131  001F10  C06F  F071         	movff	??_USBStdFeatureReqHandler+1,USBStdFeatureReqHandler@pUEP
 13132  001F14  C070  F072         	movff	??_USBStdFeatureReqHandler+2,USBStdFeatureReqHandler@pUEP+1
 13133                           
 13134                           ; BSR set to: 0
 13135                           ;usb_device.c: 2997: *pUEP &= ~0x0001;
 13136  001F18  C071  FFD9         	movff	USBStdFeatureReqHandler@pUEP,fsr2l
 13137  001F1C  C072  FFDA         	movff	USBStdFeatureReqHandler@pUEP+1,fsr2h
 13138  001F20  0EFE               	movlw	254
 13139  001F22  16DF               	andwf	indf2,f,c
 13140  001F24                     i2l388:
 13141  001F24  0012               	return	
 13142  001F26                     __end_of_USBStdFeatureReqHandler:
 13143                           	opt stack 0
 13144                           pclatu	equ	0xFFB
 13145                           pclath	equ	0xFFA
 13146                           tblptru	equ	0xFF8
 13147                           tblptrh	equ	0xFF7
 13148                           tblptrl	equ	0xFF6
 13149                           tablat	equ	0xFF5
 13150                           prodh	equ	0xFF4
 13151                           prodl	equ	0xFF3
 13152                           intcon	equ	0xFF2
 13153                           indf0	equ	0xFEF
 13154                           postinc0	equ	0xFEE
 13155                           fsr0h	equ	0xFEA
 13156                           fsr0l	equ	0xFE9
 13157                           wreg	equ	0xFE8
 13158                           indf1	equ	0xFE7
 13159                           fsr1h	equ	0xFE2
 13160                           fsr1l	equ	0xFE1
 13161                           bsr	equ	0xFE0
 13162                           indf2	equ	0xFDF
 13163                           postinc2	equ	0xFDE
 13164                           postdec2	equ	0xFDD
 13165                           plusw2	equ	0xFDB
 13166                           fsr2h	equ	0xFDA
 13167                           fsr2l	equ	0xFD9
 13168                           status	equ	0xFD8
 13169                           
 13170 ;; *************** function _USER_USB_CALLBACK_EVENT_HANDLER *****************
 13171 ;; Defined at:
 13172 ;;		line 92 in file "main.c"
 13173 ;; Parameters:    Size  Location     Type
 13174 ;;  event           2    6[BANK0 ] enum E5012
 13175 ;;  pdata           2    8[BANK0 ] PTR void 
 13176 ;;		 -> USTATcopy(1), USBActiveConfiguration(1), NULL(0), BDT(32), 
 13177 ;;  size            2   10[BANK0 ] unsigned int 
 13178 ;; Auto vars:     Size  Location     Type
 13179 ;;		None
 13180 ;; Return value:  Size  Location     Type
 13181 ;;                  1    wreg      unsigned char 
 13182 ;; Registers used:
 13183 ;;		wreg, fsr2l, fsr2h, status,2, status,0, prodl, prodh, cstack
 13184 ;; Tracked objects:
 13185 ;;		On entry : 0/0
 13186 ;;		On exit  : 0/0
 13187 ;;		Unchanged: 0/0
 13188 ;; Data sizes:     COMRAM   BANK0   BANK1   BANK2   BANK3   BANK4  BANK5h   BANK6   BANK7
 13189 ;;      Params:         0       6       0       0       0       0       0       0       0
 13190 ;;      Locals:         0       0       0       0       0       0       0       0       0
 13191 ;;      Temps:          0       2       0       0       0       0       0       0       0
 13192 ;;      Totals:         0       8       0       0       0       0       0       0       0
 13193 ;;Total ram usage:        8 bytes
 13194 ;; Hardware stack levels used:    1
 13195 ;; Hardware stack levels required when called:    3
 13196 ;; This function calls:
 13197 ;;		_APP_DeviceCustomHIDInitialize
 13198 ;;		_USBCheckHIDRequest
 13199 ;; This function is called by:
 13200 ;;		_USBDeviceTasks
 13201 ;;		_USBStdSetCfgHandler
 13202 ;;		_USBSuspend
 13203 ;;		_USBWakeFromSuspend
 13204 ;;		_USBCtrlTrfSetupHandler
 13205 ;;		_USBCheckStdRequest
 13206 ;;		_USBStdFeatureReqHandler
 13207 ;; This function uses a non-reentrant model
 13208 ;;
 13209                           
 13210                           	psect	text44
 13211  003C54                     __ptext44:
 13212                           	opt stack 0
 13213  003C54                     _USER_USB_CALLBACK_EVENT_HANDLER:
 13214                           	opt stack 20
 13215                           
 13216                           ;main.c: 94: switch((int)event)
 13217                           
 13218                           ;incstack = 0
 13219  003C54  D006               	goto	i2l6513
 13220  003C56                     i2l6507:
 13221                           
 13222                           ;main.c: 114: APP_DeviceCustomHIDInitialize();
 13223  003C56  ECA7  F01F         	call	_APP_DeviceCustomHIDInitialize	;wreg free
 13224                           
 13225                           ;main.c: 115: break;
 13226  003C5A  D02E               	goto	i2l527
 13227  003C5C                     i2l6509:
 13228                           
 13229                           ;main.c: 123: USBCheckHIDRequest();
 13230  003C5C  EC22  F017         	call	_USBCheckHIDRequest	;wreg free
 13231                           
 13232                           ;main.c: 124: break;
 13233  003C60  D02B               	goto	i2l527
 13234  003C62                     i2l6513:
 13235  003C62  0100               	movlb	0	; () banked
 13236  003C64  C066  F06C         	movff	USER_USB_CALLBACK_EVENT_HANDLER@event,??_USER_USB_CALLBACK_EVENT_HANDLER
 13237  003C68  0100               	movlb	0	; () banked
 13238  003C6A  C067  F06D         	movff	USER_USB_CALLBACK_EVENT_HANDLER@event+1,??_USER_USB_CALLBACK_EVENT_HANDLER+1
 13239                           
 13240                           ; Switch on 2 bytes has been partitioned into a top level switch of size 1, and 2 sub-sw
      +                          itches
 13241                           ; Switch size 1, requested type "space"
 13242                           ; Number of cases is 2, Range of values is 0 to 127
 13243                           ; switch strategies available:
 13244                           ; Name         Instructions Cycles
 13245                           ; simple_byte            7     4 (average)
 13246                           ;	Chosen strategy is simple_byte
 13247  003C6E  0100               	movlb	0	; () banked
 13248  003C70  516D               	movf	(??_USER_USB_CALLBACK_EVENT_HANDLER+1)& (0+255),w,b
 13249  003C72  0A00               	xorlw	0	; case 0
 13250  003C74  B4D8               	btfsc	status,2,c
 13251  003C76  D004               	goto	i2l8273
 13252  003C78  0A7F               	xorlw	127	; case 127
 13253  003C7A  B4D8               	btfsc	status,2,c
 13254  003C7C  D01A               	goto	i2l8275
 13255  003C7E  D01C               	goto	i2l527
 13256  003C80                     i2l8273:
 13257                           
 13258                           ; BSR set to: 0
 13259                           ; Switch size 1, requested type "space"
 13260                           ; Number of cases is 8, Range of values is 1 to 117
 13261                           ; switch strategies available:
 13262                           ; Name         Instructions Cycles
 13263                           ; simple_byte           25    13 (average)
 13264                           ;	Chosen strategy is simple_byte
 13265  003C80  0100               	movlb	0	; () banked
 13266  003C82  516C               	movf	??_USER_USB_CALLBACK_EVENT_HANDLER& (0+255),w,b
 13267  003C84  0A01               	xorlw	1	; case 1
 13268  003C86  B4D8               	btfsc	status,2,c
 13269  003C88  D7E6               	goto	i2l6507
 13270  003C8A  0A03               	xorlw	3	; case 2
 13271  003C8C  B4D8               	btfsc	status,2,c
 13272  003C8E  D014               	goto	i2l527
 13273  003C90  0A01               	xorlw	1	; case 3
 13274  003C92  B4D8               	btfsc	status,2,c
 13275  003C94  D7E3               	goto	i2l6509
 13276  003C96  0A06               	xorlw	6	; case 5
 13277  003C98  B4D8               	btfsc	status,2,c
 13278  003C9A  D00E               	goto	i2l527
 13279  003C9C  0A77               	xorlw	119	; case 114
 13280  003C9E  B4D8               	btfsc	status,2,c
 13281  003CA0  D00B               	goto	i2l527
 13282  003CA2  0A01               	xorlw	1	; case 115
 13283  003CA4  B4D8               	btfsc	status,2,c
 13284  003CA6  D008               	goto	i2l527
 13285  003CA8  0A07               	xorlw	7	; case 116
 13286  003CAA  B4D8               	btfsc	status,2,c
 13287  003CAC  D005               	goto	i2l527
 13288  003CAE  0A01               	xorlw	1	; case 117
 13289  003CB0  D003               	goto	i2l527
 13290  003CB2                     i2l8275:
 13291                           
 13292                           ; BSR set to: 0
 13293                           ; Switch size 1, requested type "space"
 13294                           ; Number of cases is 1, Range of values is 255 to 255
 13295                           ; switch strategies available:
 13296                           ; Name         Instructions Cycles
 13297                           ; simple_byte            4     3 (average)
 13298                           ;	Chosen strategy is simple_byte
 13299  003CB2  0100               	movlb	0	; () banked
 13300  003CB4  516C               	movf	??_USER_USB_CALLBACK_EVENT_HANDLER& (0+255),w,b
 13301  003CB6  0AFF               	xorlw	255	; case 255
 13302  003CB8                     i2l527:
 13303  003CB8  0012               	return	
 13304  003CBA                     __end_of_USER_USB_CALLBACK_EVENT_HANDLER:
 13305                           	opt stack 0
 13306                           pclatu	equ	0xFFB
 13307                           pclath	equ	0xFFA
 13308                           tblptru	equ	0xFF8
 13309                           tblptrh	equ	0xFF7
 13310                           tblptrl	equ	0xFF6
 13311                           tablat	equ	0xFF5
 13312                           prodh	equ	0xFF4
 13313                           prodl	equ	0xFF3
 13314                           intcon	equ	0xFF2
 13315                           indf0	equ	0xFEF
 13316                           postinc0	equ	0xFEE
 13317                           fsr0h	equ	0xFEA
 13318                           fsr0l	equ	0xFE9
 13319                           wreg	equ	0xFE8
 13320                           indf1	equ	0xFE7
 13321                           fsr1h	equ	0xFE2
 13322                           fsr1l	equ	0xFE1
 13323                           bsr	equ	0xFE0
 13324                           indf2	equ	0xFDF
 13325                           postinc2	equ	0xFDE
 13326                           postdec2	equ	0xFDD
 13327                           plusw2	equ	0xFDB
 13328                           fsr2h	equ	0xFDA
 13329                           fsr2l	equ	0xFD9
 13330                           status	equ	0xFD8
 13331                           
 13332 ;; *************** function _USBCheckHIDRequest *****************
 13333 ;; Defined at:
 13334 ;;		line 153 in file "usb_device_hid.c"
 13335 ;; Parameters:    Size  Location     Type
 13336 ;;		None
 13337 ;; Auto vars:     Size  Location     Type
 13338 ;;		None
 13339 ;; Return value:  Size  Location     Type
 13340 ;;		None               void
 13341 ;; Registers used:
 13342 ;;		wreg, status,2, status,0
 13343 ;; Tracked objects:
 13344 ;;		On entry : 0/0
 13345 ;;		On exit  : 0/0
 13346 ;;		Unchanged: 0/0
 13347 ;; Data sizes:     COMRAM   BANK0   BANK1   BANK2   BANK3   BANK4  BANK5h   BANK6   BANK7
 13348 ;;      Params:         0       0       0       0       0       0       0       0       0
 13349 ;;      Locals:         0       0       0       0       0       0       0       0       0
 13350 ;;      Temps:          1       0       0       0       0       0       0       0       0
 13351 ;;      Totals:         1       0       0       0       0       0       0       0       0
 13352 ;;Total ram usage:        1 bytes
 13353 ;; Hardware stack levels used:    1
 13354 ;; This function calls:
 13355 ;;		Nothing
 13356 ;; This function is called by:
 13357 ;;		_USER_USB_CALLBACK_EVENT_HANDLER
 13358 ;; This function uses a non-reentrant model
 13359 ;;
 13360                           
 13361                           	psect	text45
 13362  002E44                     __ptext45:
 13363                           	opt stack 0
 13364  002E44                     _USBCheckHIDRequest:
 13365                           	opt stack 22
 13366                           
 13367                           ;usb_device_hid.c: 155: if(SetupPkt.Recipient != (0x01)) return;
 13368                           
 13369                           ;incstack = 0
 13370  002E44  0104               	movlb	4	; () banked
 13371  002E46  5120               	movf	32,w,b	;volatile
 13372  002E48  0B1F               	andlw	31
 13373  002E4A  6E1D               	movwf	??_USBCheckHIDRequest& (0+255),c
 13374  002E4C  041D               	decf	??_USBCheckHIDRequest,w,c
 13375  002E4E  A4D8               	btfss	status,2,c
 13376  002E50  D078               	goto	i2l416
 13377                           
 13378                           ; BSR set to: 4
 13379                           ;usb_device_hid.c: 156: if(SetupPkt.bIntfID != 0x00) return;
 13380                           
 13381                           ; BSR set to: 4
 13382                           
 13383                           ; BSR set to: 4
 13384  002E52  0104               	movlb	4	; () banked
 13385  002E54  5124               	movf	36,w,b	;volatile
 13386  002E56  A4D8               	btfss	status,2,c
 13387  002E58  D074               	goto	i2l416
 13388                           
 13389                           ; BSR set to: 4
 13390                           ;usb_device_hid.c: 163: if(SetupPkt.bRequest == 6)
 13391                           
 13392                           ; BSR set to: 4
 13393                           
 13394                           ; BSR set to: 4
 13395  002E5A  0104               	movlb	4	; () banked
 13396  002E5C  5121               	movf	33,w,b	;volatile
 13397  002E5E  0A06               	xorlw	6
 13398  002E60  B4D8               	btfsc	status,2,c
 13399  002E62  D01F               	goto	i2l6469
 13400  002E64  D027               	goto	i2l6471
 13401  002E66                     i2l6453:
 13402                           
 13403                           ; BSR set to: 4
 13404                           ;usb_device_hid.c: 168: if(USBActiveConfiguration == 1)
 13405  002E66  043F               	decf	_USBActiveConfiguration,w,c	;volatile
 13406  002E68  A4D8               	btfss	status,2,c
 13407  002E6A  D024               	goto	i2l6471
 13408                           
 13409                           ; BSR set to: 4
 13410                           ;usb_device_hid.c: 169: {
 13411                           ;usb_device_hid.c: 170: { inPipes[0].pSrc.bRom = (const uint8_t*)&configDescriptor1 + 18
      +                          ; inPipes[0].wCount.Val = sizeof(USB_HID_DSC)+3; inPipes[0].info.Val = 0x40 | 0x80 | 0x0
      +                          0; };
 13412  002E6C  0E08               	movlw	high (_configDescriptor1+18)
 13413  002E6E  0100               	movlb	0	; () banked
 13414  002E70  6FC6               	movwf	(_inPipes+1)& (0+255),b	;volatile
 13415  002E72  0E7D               	movlw	low (_configDescriptor1+18)
 13416  002E74  0100               	movlb	0	; () banked
 13417  002E76  6FC5               	movwf	_inPipes& (0+255),b	;volatile
 13418                           
 13419                           ; BSR set to: 0
 13420  002E78  0E00               	movlw	0
 13421  002E7A  0100               	movlb	0	; () banked
 13422  002E7C  6FCA               	movwf	(_inPipes+5)& (0+255),b	;volatile
 13423  002E7E  0E09               	movlw	9
 13424  002E80  D00A               	goto	L69
 13425  002E82                     i2l6461:
 13426                           
 13427                           ;usb_device_hid.c: 178: {
 13428                           ;usb_device_hid.c: 179: { inPipes[0].pSrc.bRom = (const uint8_t*)&hid_rpt01; inPipes[0].
      +                          wCount.Val = 29; inPipes[0].info.Val = 0x40 | 0x80 | 0x00; };
 13429  002E82  0E08               	movlw	high _hid_rpt01
 13430  002E84  0100               	movlb	0	; () banked
 13431  002E86  6FC6               	movwf	(_inPipes+1)& (0+255),b	;volatile
 13432  002E88  0E94               	movlw	low _hid_rpt01
 13433  002E8A  0100               	movlb	0	; () banked
 13434  002E8C  6FC5               	movwf	_inPipes& (0+255),b	;volatile
 13435                           
 13436                           ; BSR set to: 0
 13437  002E8E  0E00               	movlw	0
 13438  002E90  0100               	movlb	0	; () banked
 13439  002E92  6FCA               	movwf	(_inPipes+5)& (0+255),b	;volatile
 13440  002E94  0E1D               	movlw	29
 13441  002E96                     L69:
 13442  002E96  0100               	movlb	0	; () banked
 13443  002E98  6FC9               	movwf	(_inPipes+4)& (0+255),b	;volatile
 13444                           
 13445                           ; BSR set to: 0
 13446  002E9A  0EC0               	movlw	192
 13447  002E9C  0100               	movlb	0	; () banked
 13448  002E9E  6FC8               	movwf	(_inPipes+3)& (0+255),b	;volatile
 13449                           
 13450                           ;usb_device_hid.c: 183: }
 13451                           ;usb_device_hid.c: 184: break;
 13452  002EA0  D009               	goto	i2l6471
 13453  002EA2                     i2l6469:
 13454  002EA2  0104               	movlb	4	; () banked
 13455  002EA4  5123               	movf	35,w,b	;volatile
 13456                           
 13457                           ; Switch size 1, requested type "space"
 13458                           ; Number of cases is 3, Range of values is 33 to 35
 13459                           ; switch strategies available:
 13460                           ; Name         Instructions Cycles
 13461                           ; simple_byte           10     6 (average)
 13462                           ;	Chosen strategy is simple_byte
 13463  002EA6  0A21               	xorlw	33	; case 33
 13464  002EA8  B4D8               	btfsc	status,2,c
 13465  002EAA  D7DD               	goto	i2l6453
 13466  002EAC  0A03               	xorlw	3	; case 34
 13467  002EAE  B4D8               	btfsc	status,2,c
 13468  002EB0  D7E8               	goto	i2l6461
 13469  002EB2  0A01               	xorlw	1	; case 35
 13470  002EB4                     i2l6471:
 13471                           
 13472                           ;usb_device_hid.c: 199: }
 13473                           ;usb_device_hid.c: 201: if(SetupPkt.RequestType != (0x20>>5))
 13474  002EB4  0104               	movlb	4	; () banked
 13475  002EB6  3920               	swapf	32,w,b	;volatile
 13476  002EB8  32E8               	rrcf	wreg,f,c
 13477  002EBA  0B03               	andlw	3
 13478  002EBC  6E1D               	movwf	??_USBCheckHIDRequest& (0+255),c
 13479  002EBE  041D               	decf	??_USBCheckHIDRequest,w,c
 13480  002EC0  A4D8               	btfss	status,2,c
 13481  002EC2  D03F               	goto	i2l416
 13482  002EC4  D02A               	goto	i2l6497
 13483  002EC6                     i2l6475:
 13484                           
 13485                           ; BSR set to: 4
 13486                           ;usb_device_hid.c: 219: { inPipes[0].pSrc.bRam = (uint8_t*)&idle_rate; inPipes[0].wCount
      +                          .Val = 1; inPipes[0].info.Val = 0x40 | 0x80 | 0x01; };
 13487  002EC6  0E00               	movlw	high _idle_rate
 13488  002EC8  0100               	movlb	0	; () banked
 13489  002ECA  6FC6               	movwf	(_inPipes+1)& (0+255),b	;volatile
 13490  002ECC  0E43               	movlw	low _idle_rate
 13491  002ECE  0100               	movlb	0	; () banked
 13492  002ED0  6FC5               	movwf	_inPipes& (0+255),b	;volatile
 13493                           
 13494                           ; BSR set to: 0
 13495  002ED2  0E00               	movlw	0
 13496  002ED4  0100               	movlb	0	; () banked
 13497  002ED6  6FCA               	movwf	(_inPipes+5)& (0+255),b	;volatile
 13498  002ED8  0E01               	movlw	1
 13499  002EDA  0100               	movlb	0	; () banked
 13500  002EDC  6FC9               	movwf	(_inPipes+4)& (0+255),b	;volatile
 13501                           
 13502                           ; BSR set to: 0
 13503  002EDE  0EC1               	movlw	193
 13504  002EE0  D013               	goto	L70
 13505  002EE2                     i2l6481:
 13506                           
 13507                           ;usb_device_hid.c: 225: inPipes[0].info.Val = 0x00 | 0x80;
 13508  002EE2  0E80               	movlw	128
 13509  002EE4  0100               	movlb	0	; () banked
 13510  002EE6  6FC8               	movwf	(_inPipes+3)& (0+255),b	;volatile
 13511                           
 13512                           ; BSR set to: 0
 13513                           ;usb_device_hid.c: 226: idle_rate = ((USB_SETUP_SET_IDLE_RATE*)&SetupPkt)->duration;
 13514  002EE8  C423 F043          	movff	1059,_idle_rate
 13515                           
 13516                           ;usb_device_hid.c: 227: ;
 13517                           ;usb_device_hid.c: 228: break;
 13518  002EEC  D02A               	goto	i2l416
 13519  002EEE                     i2l6485:
 13520                           
 13521                           ;usb_device_hid.c: 230: { inPipes[0].pSrc.bRam = (uint8_t*)&active_protocol; inPipes[0].
      +                          wCount.Val = 1; inPipes[0].info.Val = 0x00 | 0x80 | 0x01; };
 13522  002EEE  0E00               	movlw	high _active_protocol
 13523  002EF0  0100               	movlb	0	; () banked
 13524  002EF2  6FC6               	movwf	(_inPipes+1)& (0+255),b	;volatile
 13525  002EF4  0E42               	movlw	low _active_protocol
 13526  002EF6  0100               	movlb	0	; () banked
 13527  002EF8  6FC5               	movwf	_inPipes& (0+255),b	;volatile
 13528                           
 13529                           ; BSR set to: 0
 13530  002EFA  0E00               	movlw	0
 13531  002EFC  0100               	movlb	0	; () banked
 13532  002EFE  6FCA               	movwf	(_inPipes+5)& (0+255),b	;volatile
 13533  002F00  0E01               	movlw	1
 13534  002F02  0100               	movlb	0	; () banked
 13535  002F04  6FC9               	movwf	(_inPipes+4)& (0+255),b	;volatile
 13536                           
 13537                           ; BSR set to: 0
 13538  002F06  0E81               	movlw	129
 13539  002F08                     L70:
 13540  002F08  0100               	movlb	0	; () banked
 13541  002F0A  6FC8               	movwf	(_inPipes+3)& (0+255),b	;volatile
 13542                           
 13543                           ;usb_device_hid.c: 234: break;
 13544  002F0C  D01A               	goto	i2l416
 13545  002F0E                     i2l6491:
 13546                           
 13547                           ;usb_device_hid.c: 236: inPipes[0].info.Val = 0x00 | 0x80;
 13548  002F0E  0E80               	movlw	128
 13549  002F10  0100               	movlb	0	; () banked
 13550  002F12  6FC8               	movwf	(_inPipes+3)& (0+255),b	;volatile
 13551                           
 13552                           ; BSR set to: 0
 13553                           ;usb_device_hid.c: 237: active_protocol = ((USB_SETUP_SET_PROTOCOL*)&SetupPkt)->protocol
      +                          ;
 13554  002F14  C422 F042          	movff	1058,_active_protocol
 13555                           
 13556                           ;usb_device_hid.c: 238: break;
 13557  002F18  D014               	goto	i2l416
 13558  002F1A                     i2l6497:
 13559  002F1A  0104               	movlb	4	; () banked
 13560  002F1C  5121               	movf	33,w,b	;volatile
 13561                           
 13562                           ; Switch size 1, requested type "space"
 13563                           ; Number of cases is 6, Range of values is 1 to 11
 13564                           ; switch strategies available:
 13565                           ; Name         Instructions Cycles
 13566                           ; simple_byte           19    10 (average)
 13567                           ;	Chosen strategy is simple_byte
 13568  002F1E  0A01               	xorlw	1	; case 1
 13569  002F20  B4D8               	btfsc	status,2,c
 13570  002F22  D00F               	goto	i2l416
 13571  002F24  0A03               	xorlw	3	; case 2
 13572  002F26  B4D8               	btfsc	status,2,c
 13573  002F28  D7CE               	goto	i2l6475
 13574  002F2A  0A01               	xorlw	1	; case 3
 13575  002F2C  B4D8               	btfsc	status,2,c
 13576  002F2E  D7DF               	goto	i2l6485
 13577  002F30  0A0A               	xorlw	10	; case 9
 13578  002F32  B4D8               	btfsc	status,2,c
 13579  002F34  D006               	goto	i2l416
 13580  002F36  0A03               	xorlw	3	; case 10
 13581  002F38  B4D8               	btfsc	status,2,c
 13582  002F3A  D7D3               	goto	i2l6481
 13583  002F3C  0A01               	xorlw	1	; case 11
 13584  002F3E  B4D8               	btfsc	status,2,c
 13585  002F40  D7E6               	goto	i2l6491
 13586  002F42                     i2l416:
 13587  002F42  0012               	return	
 13588  002F44                     __end_of_USBCheckHIDRequest:
 13589                           	opt stack 0
 13590                           pclatu	equ	0xFFB
 13591                           pclath	equ	0xFFA
 13592                           tblptru	equ	0xFF8
 13593                           tblptrh	equ	0xFF7
 13594                           tblptrl	equ	0xFF6
 13595                           tablat	equ	0xFF5
 13596                           prodh	equ	0xFF4
 13597                           prodl	equ	0xFF3
 13598                           intcon	equ	0xFF2
 13599                           indf0	equ	0xFEF
 13600                           postinc0	equ	0xFEE
 13601                           fsr0h	equ	0xFEA
 13602                           fsr0l	equ	0xFE9
 13603                           wreg	equ	0xFE8
 13604                           indf1	equ	0xFE7
 13605                           fsr1h	equ	0xFE2
 13606                           fsr1l	equ	0xFE1
 13607                           bsr	equ	0xFE0
 13608                           indf2	equ	0xFDF
 13609                           postinc2	equ	0xFDE
 13610                           postdec2	equ	0xFDD
 13611                           plusw2	equ	0xFDB
 13612                           fsr2h	equ	0xFDA
 13613                           fsr2l	equ	0xFD9
 13614                           status	equ	0xFD8
 13615                           
 13616 ;; *************** function _APP_DeviceCustomHIDInitialize *****************
 13617 ;; Defined at:
 13618 ;;		line 99 in file "app_device_custom_hid.c"
 13619 ;; Parameters:    Size  Location     Type
 13620 ;;		None
 13621 ;; Auto vars:     Size  Location     Type
 13622 ;;		None
 13623 ;; Return value:  Size  Location     Type
 13624 ;;		None               void
 13625 ;; Registers used:
 13626 ;;		wreg, fsr2l, fsr2h, status,2, status,0, prodl, prodh, cstack
 13627 ;; Tracked objects:
 13628 ;;		On entry : 0/0
 13629 ;;		On exit  : 0/0
 13630 ;;		Unchanged: 0/0
 13631 ;; Data sizes:     COMRAM   BANK0   BANK1   BANK2   BANK3   BANK4  BANK5h   BANK6   BANK7
 13632 ;;      Params:         0       0       0       0       0       0       0       0       0
 13633 ;;      Locals:         0       0       0       0       0       0       0       0       0
 13634 ;;      Temps:          0       0       0       0       0       0       0       0       0
 13635 ;;      Totals:         0       0       0       0       0       0       0       0       0
 13636 ;;Total ram usage:        0 bytes
 13637 ;; Hardware stack levels used:    1
 13638 ;; Hardware stack levels required when called:    2
 13639 ;; This function calls:
 13640 ;;		_USBEnableEndpoint
 13641 ;;		i2_USBTransferOnePacket
 13642 ;; This function is called by:
 13643 ;;		_USER_USB_CALLBACK_EVENT_HANDLER
 13644 ;; This function uses a non-reentrant model
 13645 ;;
 13646                           
 13647                           	psect	text46
 13648  003F4E                     __ptext46:
 13649                           	opt stack 0
 13650  003F4E                     _APP_DeviceCustomHIDInitialize:
 13651                           	opt stack 20
 13652                           
 13653                           ;app_device_custom_hid.c: 103: USBInHandle = 0;
 13654                           
 13655                           ;incstack = 0
 13656  003F4E  0E00               	movlw	0
 13657  003F50  6E2C               	movwf	_USBInHandle+1,c
 13658  003F52  0E00               	movlw	0
 13659  003F54  6E2B               	movwf	_USBInHandle,c
 13660                           
 13661                           ;app_device_custom_hid.c: 106: USBEnableEndpoint(1, 0x02|0x04|0x10|0x08);
 13662  003F56  0E1E               	movlw	30
 13663  003F58  0100               	movlb	0	; () banked
 13664  003F5A  6F60               	movwf	USBEnableEndpoint@options& (0+255),b
 13665  003F5C  0E01               	movlw	1
 13666  003F5E  EC8E  F01E         	call	_USBEnableEndpoint
 13667                           
 13668                           ;app_device_custom_hid.c: 109: USBOutHandle = (volatile void*)USBTransferOnePacket(1,0,(
      +                          uint8_t*)&ReceivedDataBuffer,64);
 13669  003F62  0E00               	movlw	0
 13670  003F64  6E1D               	movwf	i2USBTransferOnePacket@dir,c
 13671  003F66  0105               	movlb	5	; () banked
 13672  003F68  0E05               	movlw	5
 13673  003F6A  6E1F               	movwf	i2USBTransferOnePacket@data+1,c
 13674  003F6C  0105               	movlb	5	; () banked
 13675  003F6E  0E00               	movlw	0
 13676  003F70  6E1E               	movwf	i2USBTransferOnePacket@data,c
 13677  003F72  0E40               	movlw	64
 13678  003F74  6E20               	movwf	i2USBTransferOnePacket@len,c
 13679  003F76  0E01               	movlw	1
 13680  003F78  ECB6  F01A         	call	i2_USBTransferOnePacket
 13681  003F7C  C01D  F0BD         	movff	?i2_USBTransferOnePacket,_USBOutHandle
 13682  003F80  C01E  F0BE         	movff	?i2_USBTransferOnePacket+1,_USBOutHandle+1
 13683  003F84  0012               	return	
 13684  003F86                     __end_of_APP_DeviceCustomHIDInitialize:
 13685                           	opt stack 0
 13686                           pclatu	equ	0xFFB
 13687                           pclath	equ	0xFFA
 13688                           tblptru	equ	0xFF8
 13689                           tblptrh	equ	0xFF7
 13690                           tblptrl	equ	0xFF6
 13691                           tablat	equ	0xFF5
 13692                           prodh	equ	0xFF4
 13693                           prodl	equ	0xFF3
 13694                           intcon	equ	0xFF2
 13695                           indf0	equ	0xFEF
 13696                           postinc0	equ	0xFEE
 13697                           fsr0h	equ	0xFEA
 13698                           fsr0l	equ	0xFE9
 13699                           wreg	equ	0xFE8
 13700                           indf1	equ	0xFE7
 13701                           fsr1h	equ	0xFE2
 13702                           fsr1l	equ	0xFE1
 13703                           bsr	equ	0xFE0
 13704                           indf2	equ	0xFDF
 13705                           postinc2	equ	0xFDE
 13706                           postdec2	equ	0xFDD
 13707                           plusw2	equ	0xFDB
 13708                           fsr2h	equ	0xFDA
 13709                           fsr2l	equ	0xFD9
 13710                           status	equ	0xFD8
 13711                           
 13712 ;; *************** function i2_USBTransferOnePacket *****************
 13713 ;; Defined at:
 13714 ;;		line 1009 in file "usb_device.c"
 13715 ;; Parameters:    Size  Location     Type
 13716 ;;  ep              1    wreg     unsigned char 
 13717 ;;  dir             1   28[COMRAM] unsigned char 
 13718 ;;  data            2   29[COMRAM] PTR unsigned char 
 13719 ;;		 -> ReceivedDataBuffer(64), ToSendDataBuffer(64), 
 13720 ;;  len             1   31[COMRAM] unsigned char 
 13721 ;; Auto vars:     Size  Location     Type
 13722 ;;  ep              1   32[COMRAM] unsigned char 
 13723 ;;  USBTransferO    2   33[COMRAM] PTR volatile struct __BD
 13724 ;;		 -> NULL(0), BDT(32), 
 13725 ;; Return value:  Size  Location     Type
 13726 ;;                  2   28[COMRAM] PTR void 
 13727 ;; Registers used:
 13728 ;;		wreg, fsr2l, fsr2h, status,2, status,0, prodl, prodh
 13729 ;; Tracked objects:
 13730 ;;		On entry : 0/0
 13731 ;;		On exit  : 0/0
 13732 ;;		Unchanged: 0/0
 13733 ;; Data sizes:     COMRAM   BANK0   BANK1   BANK2   BANK3   BANK4  BANK5h   BANK6   BANK7
 13734 ;;      Params:         4       0       0       0       0       0       0       0       0
 13735 ;;      Locals:         3       0       0       0       0       0       0       0       0
 13736 ;;      Temps:          0       0       0       0       0       0       0       0       0
 13737 ;;      Totals:         7       0       0       0       0       0       0       0       0
 13738 ;;Total ram usage:        7 bytes
 13739 ;; Hardware stack levels used:    1
 13740 ;; This function calls:
 13741 ;;		Nothing
 13742 ;; This function is called by:
 13743 ;;		_APP_DeviceCustomHIDInitialize
 13744 ;; This function uses a non-reentrant model
 13745 ;;
 13746                           
 13747                           	psect	text47
 13748  00356C                     __ptext47:
 13749                           	opt stack 0
 13750  00356C                     i2_USBTransferOnePacket:
 13751                           	opt stack 21
 13752                           
 13753                           ;incstack = 0
 13754                           ;i2USBTransferOnePacket@ep stored from wreg
 13755  00356C  6E21               	movwf	i2USBTransferOnePacket@ep,c
 13756                           
 13757                           ;usb_device.c: 1011: volatile BDT_ENTRY* handle;
 13758                           ;usb_device.c: 1014: if(dir != 0)
 13759  00356E  501D               	movf	i2USBTransferOnePacket@dir,w,c
 13760  003570  B4D8               	btfsc	status,2,c
 13761  003572  D009               	goto	i2l6415
 13762                           
 13763                           ;usb_device.c: 1015: {
 13764                           ;usb_device.c: 1017: handle = pBDTEntryIn[ep];
 13765  003574  5021               	movf	i2USBTransferOnePacket@ep,w,c
 13766  003576  0D02               	mullw	2
 13767  003578  0100               	movlb	0	; () banked
 13768  00357A  0EAB               	movlw	low _pBDTEntryIn
 13769  00357C  24F3               	addwf	prodl,w,c
 13770  00357E  6ED9               	movwf	fsr2l,c
 13771  003580  0100               	movlb	0	; () banked
 13772  003582  0E00               	movlw	high _pBDTEntryIn
 13773  003584  D008               	goto	L71
 13774  003586                     i2l6415:
 13775                           
 13776                           ;usb_device.c: 1019: else
 13777                           ;usb_device.c: 1020: {
 13778                           ;usb_device.c: 1022: handle = pBDTEntryOut[ep];
 13779  003586  5021               	movf	i2USBTransferOnePacket@ep,w,c
 13780  003588  0D02               	mullw	2
 13781  00358A  0100               	movlb	0	; () banked
 13782  00358C  0EAF               	movlw	low _pBDTEntryOut
 13783  00358E  24F3               	addwf	prodl,w,c
 13784  003590  6ED9               	movwf	fsr2l,c
 13785  003592  0100               	movlb	0	; () banked
 13786  003594  0E00               	movlw	high _pBDTEntryOut
 13787  003596                     L71:
 13788  003596  20F4               	addwfc	prodh,w,c
 13789  003598  6EDA               	movwf	fsr2h,c
 13790  00359A  CFDE F022          	movff	postinc2,i2USBTransferOnePacket@handle
 13791  00359E  CFDD F023          	movff	postdec2,i2USBTransferOnePacket@handle+1
 13792                           
 13793                           ; BSR set to: 0
 13794                           ;usb_device.c: 1023: }
 13795                           ;usb_device.c: 1027: if(handle == 0)
 13796                           
 13797                           ; BSR set to: 0
 13798  0035A2  5023               	movf	i2USBTransferOnePacket@handle+1,w,c
 13799  0035A4  1022               	iorwf	i2USBTransferOnePacket@handle,w,c
 13800  0035A6  A4D8               	btfss	status,2,c
 13801  0035A8  D005               	goto	i2l6423
 13802                           
 13803                           ; BSR set to: 0
 13804                           ;usb_device.c: 1028: {
 13805                           ;usb_device.c: 1029: return 0;
 13806  0035AA  0E00               	movlw	0
 13807  0035AC  6E1E               	movwf	?i2_USBTransferOnePacket+1,c
 13808  0035AE  0E00               	movlw	0
 13809  0035B0  6E1D               	movwf	?i2_USBTransferOnePacket,c
 13810  0035B2  D040               	goto	i2l179
 13811  0035B4                     i2l6423:
 13812                           
 13813                           ; BSR set to: 0
 13814                           ;usb_device.c: 1030: }
 13815                           ;usb_device.c: 1043: handle->ADR = ((uint16_t)(data));
 13816  0035B4  EE20 F002          	lfsr	2,2
 13817  0035B8  5022               	movf	i2USBTransferOnePacket@handle,w,c
 13818  0035BA  26D9               	addwf	fsr2l,f,c
 13819  0035BC  5023               	movf	i2USBTransferOnePacket@handle+1,w,c
 13820  0035BE  22DA               	addwfc	fsr2h,f,c
 13821  0035C0  C01E  FFDE         	movff	i2USBTransferOnePacket@data,postinc2
 13822  0035C4  C01F  FFDD         	movff	i2USBTransferOnePacket@data+1,postdec2
 13823                           
 13824                           ;usb_device.c: 1044: handle->CNT = len;
 13825  0035C8  EE20 F001          	lfsr	2,1
 13826  0035CC  5022               	movf	i2USBTransferOnePacket@handle,w,c
 13827  0035CE  26D9               	addwf	fsr2l,f,c
 13828  0035D0  5023               	movf	i2USBTransferOnePacket@handle+1,w,c
 13829  0035D2  22DA               	addwfc	fsr2h,f,c
 13830  0035D4  C020  FFDF         	movff	i2USBTransferOnePacket@len,indf2
 13831                           
 13832                           ; BSR set to: 0
 13833                           ;usb_device.c: 1045: handle->STAT.Val &= 0x40;
 13834  0035D8  C022  FFD9         	movff	i2USBTransferOnePacket@handle,fsr2l
 13835  0035DC  C023  FFDA         	movff	i2USBTransferOnePacket@handle+1,fsr2h
 13836  0035E0  0E40               	movlw	64
 13837  0035E2  16DF               	andwf	indf2,f,c
 13838                           
 13839                           ; BSR set to: 0
 13840                           ;usb_device.c: 1046: handle->STAT.Val |= (0x08 & 0x08);
 13841  0035E4  C022  FFD9         	movff	i2USBTransferOnePacket@handle,fsr2l
 13842  0035E8  C023  FFDA         	movff	i2USBTransferOnePacket@handle+1,fsr2h
 13843  0035EC  0E00               	movlw	0
 13844  0035EE  86DB               	bsf	plusw2,3,c
 13845                           
 13846                           ; BSR set to: 0
 13847                           ;usb_device.c: 1047: handle->STAT.Val |= 0x80;
 13848  0035F0  C022  FFD9         	movff	i2USBTransferOnePacket@handle,fsr2l
 13849  0035F4  C023  FFDA         	movff	i2USBTransferOnePacket@handle+1,fsr2h
 13850  0035F8  0E00               	movlw	0
 13851  0035FA  8EDB               	bsf	plusw2,7,c
 13852                           
 13853                           ; BSR set to: 0
 13854                           ;usb_device.c: 1050: if(dir != 0)
 13855  0035FC  501D               	movf	i2USBTransferOnePacket@dir,w,c
 13856  0035FE  B4D8               	btfsc	status,2,c
 13857  003600  D009               	goto	i2l6435
 13858                           
 13859                           ; BSR set to: 0
 13860                           ;usb_device.c: 1051: {
 13861                           ;usb_device.c: 1053: {((uint8_t_VAL*)&pBDTEntryIn[ep])->Val ^= 0x0004;};
 13862  003602  5021               	movf	i2USBTransferOnePacket@ep,w,c
 13863  003604  0D02               	mullw	2
 13864  003606  0100               	movlb	0	; () banked
 13865  003608  0EAB               	movlw	low _pBDTEntryIn
 13866  00360A  24F3               	addwf	prodl,w,c
 13867  00360C  6ED9               	movwf	fsr2l,c
 13868  00360E  0100               	movlb	0	; () banked
 13869  003610  0E00               	movlw	high _pBDTEntryIn
 13870  003612  D008               	goto	L72
 13871  003614                     i2l6435:
 13872                           
 13873                           ; BSR set to: 0
 13874                           ;usb_device.c: 1055: else
 13875                           ;usb_device.c: 1056: {
 13876                           ;usb_device.c: 1058: {((uint8_t_VAL*)&pBDTEntryOut[ep])->Val ^= 0x0004;};
 13877  003614  5021               	movf	i2USBTransferOnePacket@ep,w,c
 13878  003616  0D02               	mullw	2
 13879  003618  0100               	movlb	0	; () banked
 13880  00361A  0EAF               	movlw	low _pBDTEntryOut
 13881  00361C  24F3               	addwf	prodl,w,c
 13882  00361E  6ED9               	movwf	fsr2l,c
 13883  003620  0100               	movlb	0	; () banked
 13884  003622  0E00               	movlw	high _pBDTEntryOut
 13885  003624                     L72:
 13886  003624  20F4               	addwfc	prodh,w,c
 13887  003626  6EDA               	movwf	fsr2h,c
 13888  003628  0E04               	movlw	4
 13889  00362A  1ADF               	xorwf	indf2,f,c
 13890                           
 13891                           ; BSR set to: 0
 13892                           ;usb_device.c: 1059: }
 13893                           ;usb_device.c: 1060: return (void*)handle;
 13894                           
 13895                           ; BSR set to: 0
 13896  00362C  C023  F01E         	movff	i2USBTransferOnePacket@handle+1,?i2_USBTransferOnePacket+1
 13897  003630  C022  F01D         	movff	i2USBTransferOnePacket@handle,?i2_USBTransferOnePacket
 13898  003634                     i2l179:
 13899                           
 13900                           ; BSR set to: 0
 13901  003634  0012               	return	
 13902  003636                     __end_ofi2_USBTransferOnePacket:
 13903                           	opt stack 0
 13904                           pclatu	equ	0xFFB
 13905                           pclath	equ	0xFFA
 13906                           tblptru	equ	0xFF8
 13907                           tblptrh	equ	0xFF7
 13908                           tblptrl	equ	0xFF6
 13909                           tablat	equ	0xFF5
 13910                           prodh	equ	0xFF4
 13911                           prodl	equ	0xFF3
 13912                           intcon	equ	0xFF2
 13913                           indf0	equ	0xFEF
 13914                           postinc0	equ	0xFEE
 13915                           fsr0h	equ	0xFEA
 13916                           fsr0l	equ	0xFE9
 13917                           wreg	equ	0xFE8
 13918                           indf1	equ	0xFE7
 13919                           fsr1h	equ	0xFE2
 13920                           fsr1l	equ	0xFE1
 13921                           bsr	equ	0xFE0
 13922                           indf2	equ	0xFDF
 13923                           postinc2	equ	0xFDE
 13924                           postdec2	equ	0xFDD
 13925                           plusw2	equ	0xFDB
 13926                           fsr2h	equ	0xFDA
 13927                           fsr2l	equ	0xFD9
 13928                           status	equ	0xFD8
 13929                           
 13930 ;; *************** function _USBEnableEndpoint *****************
 13931 ;; Defined at:
 13932 ;;		line 892 in file "usb_device.c"
 13933 ;; Parameters:    Size  Location     Type
 13934 ;;  ep              1    wreg     unsigned char 
 13935 ;;  options         1    0[BANK0 ] unsigned char 
 13936 ;; Auto vars:     Size  Location     Type
 13937 ;;  ep              1    5[BANK0 ] unsigned char 
 13938 ;;  p               2    3[BANK0 ] PTR unsigned char 
 13939 ;;		 -> UEP0(1), 
 13940 ;; Return value:  Size  Location     Type
 13941 ;;		None               void
 13942 ;; Registers used:
 13943 ;;		wreg, fsr2l, fsr2h, status,2, status,0, prodl, prodh, cstack
 13944 ;; Tracked objects:
 13945 ;;		On entry : 0/0
 13946 ;;		On exit  : 0/0
 13947 ;;		Unchanged: 0/0
 13948 ;; Data sizes:     COMRAM   BANK0   BANK1   BANK2   BANK3   BANK4  BANK5h   BANK6   BANK7
 13949 ;;      Params:         0       1       0       0       0       0       0       0       0
 13950 ;;      Locals:         0       3       0       0       0       0       0       0       0
 13951 ;;      Temps:          0       2       0       0       0       0       0       0       0
 13952 ;;      Totals:         0       6       0       0       0       0       0       0       0
 13953 ;;Total ram usage:        6 bytes
 13954 ;; Hardware stack levels used:    1
 13955 ;; Hardware stack levels required when called:    1
 13956 ;; This function calls:
 13957 ;;		_USBConfigureEndpoint
 13958 ;; This function is called by:
 13959 ;;		_APP_DeviceCustomHIDInitialize
 13960 ;; This function uses a non-reentrant model
 13961 ;;
 13962                           
 13963                           	psect	text48
 13964  003D1C                     __ptext48:
 13965                           	opt stack 0
 13966  003D1C                     _USBEnableEndpoint:
 13967                           	opt stack 20
 13968                           
 13969                           ; BSR set to: 0
 13970                           ;incstack = 0
 13971                           ;USBEnableEndpoint@ep stored from wreg
 13972  003D1C  0100               	movlb	0	; () banked
 13973  003D1E  6F65               	movwf	USBEnableEndpoint@ep& (0+255),b
 13974                           
 13975                           ; BSR set to: 0
 13976                           ;usb_device.c: 894: unsigned char* p;
 13977                           ;usb_device.c: 898: if(options & 0x04)
 13978  003D20  0100               	movlb	0	; () banked
 13979  003D22  A560               	btfss	USBEnableEndpoint@options& (0+255),2,b
 13980  003D24  D006               	goto	i2l6403
 13981                           
 13982                           ; BSR set to: 0
 13983                           ;usb_device.c: 899: {
 13984                           ;usb_device.c: 900: USBConfigureEndpoint(ep, 0);
 13985  003D26  0E00               	movlw	0
 13986  003D28  6E1D               	movwf	USBConfigureEndpoint@direction,c
 13987  003D2A  0100               	movlb	0	; () banked
 13988  003D2C  5165               	movf	USBEnableEndpoint@ep& (0+255),w,b
 13989  003D2E  EC35  F01D         	call	_USBConfigureEndpoint
 13990  003D32                     i2l6403:
 13991                           
 13992                           ;usb_device.c: 901: }
 13993                           ;usb_device.c: 902: if(options & 0x02)
 13994  003D32  0100               	movlb	0	; () banked
 13995  003D34  A360               	btfss	USBEnableEndpoint@options& (0+255),1,b
 13996  003D36  D006               	goto	i2l6407
 13997                           
 13998                           ; BSR set to: 0
 13999                           ;usb_device.c: 903: {
 14000                           ;usb_device.c: 904: USBConfigureEndpoint(ep, 1);
 14001  003D38  0E01               	movlw	1
 14002  003D3A  6E1D               	movwf	USBConfigureEndpoint@direction,c
 14003  003D3C  0100               	movlb	0	; () banked
 14004  003D3E  5165               	movf	USBEnableEndpoint@ep& (0+255),w,b
 14005  003D40  EC35  F01D         	call	_USBConfigureEndpoint
 14006  003D44                     i2l6407:
 14007                           
 14008                           ;usb_device.c: 905: }
 14009                           ;usb_device.c: 913: p = (unsigned char*)(&UEP0+ep);
 14010  003D44  0100               	movlb	0	; () banked
 14011  003D46  5165               	movf	USBEnableEndpoint@ep& (0+255),w,b
 14012  003D48  0D01               	mullw	1
 14013  003D4A  0E70               	movlw	112	;volatile
 14014  003D4C  0100               	movlb	0	; () banked
 14015  003D4E  6F61               	movwf	??_USBEnableEndpoint& (0+255),b
 14016  003D50  0E0F               	movlw	15	;volatile
 14017  003D52  6F62               	movwf	(??_USBEnableEndpoint+1)& (0+255),b
 14018  003D54  50F3               	movf	prodl,w,c
 14019  003D56  0100               	movlb	0	; () banked
 14020  003D58  2761               	addwf	??_USBEnableEndpoint& (0+255),f,b
 14021  003D5A  50F4               	movf	prodh,w,c
 14022  003D5C  0100               	movlb	0	; () banked
 14023  003D5E  2362               	addwfc	(??_USBEnableEndpoint+1)& (0+255),f,b
 14024  003D60  C061  F063         	movff	??_USBEnableEndpoint,USBEnableEndpoint@p
 14025  003D64  C062  F064         	movff	??_USBEnableEndpoint+1,USBEnableEndpoint@p+1
 14026                           
 14027                           ; BSR set to: 0
 14028                           ;usb_device.c: 915: *p = options;
 14029  003D68  C063  FFD9         	movff	USBEnableEndpoint@p,fsr2l
 14030  003D6C  C064  FFDA         	movff	USBEnableEndpoint@p+1,fsr2h
 14031  003D70  0100               	movlb	0	; () banked
 14032  003D72  C060  FFDF         	movff	USBEnableEndpoint@options,indf2
 14033                           
 14034                           ; BSR set to: 0
 14035  003D76  0012               	return	
 14036  003D78                     __end_of_USBEnableEndpoint:
 14037                           	opt stack 0
 14038                           pclatu	equ	0xFFB
 14039                           pclath	equ	0xFFA
 14040                           tblptru	equ	0xFF8
 14041                           tblptrh	equ	0xFF7
 14042                           tblptrl	equ	0xFF6
 14043                           tablat	equ	0xFF5
 14044                           prodh	equ	0xFF4
 14045                           prodl	equ	0xFF3
 14046                           intcon	equ	0xFF2
 14047                           indf0	equ	0xFEF
 14048                           postinc0	equ	0xFEE
 14049                           fsr0h	equ	0xFEA
 14050                           fsr0l	equ	0xFE9
 14051                           wreg	equ	0xFE8
 14052                           indf1	equ	0xFE7
 14053                           fsr1h	equ	0xFE2
 14054                           fsr1l	equ	0xFE1
 14055                           bsr	equ	0xFE0
 14056                           indf2	equ	0xFDF
 14057                           postinc2	equ	0xFDE
 14058                           postdec2	equ	0xFDD
 14059                           plusw2	equ	0xFDB
 14060                           fsr2h	equ	0xFDA
 14061                           fsr2l	equ	0xFD9
 14062                           status	equ	0xFD8
 14063                           
 14064 ;; *************** function _USBConfigureEndpoint *****************
 14065 ;; Defined at:
 14066 ;;		line 1557 in file "usb_device.c"
 14067 ;; Parameters:    Size  Location     Type
 14068 ;;  EPNum           1    wreg     unsigned char 
 14069 ;;  direction       1   28[COMRAM] unsigned char 
 14070 ;; Auto vars:     Size  Location     Type
 14071 ;;  EPNum           1   33[COMRAM] unsigned char 
 14072 ;;  handle          2   34[COMRAM] PTR volatile struct __BD
 14073 ;;		 -> BDT(32), 
 14074 ;; Return value:  Size  Location     Type
 14075 ;;		None               void
 14076 ;; Registers used:
 14077 ;;		wreg, fsr2l, fsr2h, status,2, status,0, prodl, prodh
 14078 ;; Tracked objects:
 14079 ;;		On entry : 0/0
 14080 ;;		On exit  : 0/0
 14081 ;;		Unchanged: 0/0
 14082 ;; Data sizes:     COMRAM   BANK0   BANK1   BANK2   BANK3   BANK4  BANK5h   BANK6   BANK7
 14083 ;;      Params:         1       0       0       0       0       0       0       0       0
 14084 ;;      Locals:         3       0       0       0       0       0       0       0       0
 14085 ;;      Temps:          4       0       0       0       0       0       0       0       0
 14086 ;;      Totals:         8       0       0       0       0       0       0       0       0
 14087 ;;Total ram usage:        8 bytes
 14088 ;; Hardware stack levels used:    1
 14089 ;; This function calls:
 14090 ;;		Nothing
 14091 ;; This function is called by:
 14092 ;;		_USBEnableEndpoint
 14093 ;; This function uses a non-reentrant model
 14094 ;;
 14095                           
 14096                           	psect	text49
 14097  003A6A                     __ptext49:
 14098                           	opt stack 0
 14099  003A6A                     _USBConfigureEndpoint:
 14100                           	opt stack 20
 14101                           
 14102                           ; BSR set to: 0
 14103                           ;incstack = 0
 14104                           ;USBConfigureEndpoint@EPNum stored from wreg
 14105  003A6A  6E22               	movwf	USBConfigureEndpoint@EPNum,c
 14106                           
 14107                           ;usb_device.c: 1559: volatile BDT_ENTRY* handle;
 14108                           ;usb_device.c: 1563: handle = (volatile BDT_ENTRY*)&BDT[0];
 14109  003A6C  0104               	movlb	4	; () banked
 14110  003A6E  0E04               	movlw	4	;volatile
 14111  003A70  6E24               	movwf	USBConfigureEndpoint@handle+1,c
 14112  003A72  0104               	movlb	4	; () banked
 14113  003A74  0E00               	movlw	0	;volatile
 14114  003A76  6E23               	movwf	USBConfigureEndpoint@handle,c
 14115                           
 14116                           ; BSR set to: 4
 14117                           ;usb_device.c: 1564: handle += (4*EPNum+2*direction+0u);
 14118  003A78  501D               	movf	USBConfigureEndpoint@direction,w,c
 14119  003A7A  6E1E               	movwf	??_USBConfigureEndpoint& (0+255),c
 14120  003A7C  6A1F               	clrf	(??_USBConfigureEndpoint+1)& (0+255),c
 14121  003A7E  90D8               	bcf	status,0,c
 14122  003A80  361E               	rlcf	??_USBConfigureEndpoint,f,c
 14123  003A82  361F               	rlcf	??_USBConfigureEndpoint+1,f,c
 14124  003A84  5022               	movf	USBConfigureEndpoint@EPNum,w,c
 14125  003A86  6E20               	movwf	(??_USBConfigureEndpoint+2)& (0+255),c
 14126  003A88  6A21               	clrf	(??_USBConfigureEndpoint+3)& (0+255),c
 14127  003A8A  90D8               	bcf	status,0,c
 14128  003A8C  3620               	rlcf	??_USBConfigureEndpoint+2,f,c
 14129  003A8E  3621               	rlcf	??_USBConfigureEndpoint+3,f,c
 14130  003A90  90D8               	bcf	status,0,c
 14131  003A92  3620               	rlcf	??_USBConfigureEndpoint+2,f,c
 14132  003A94  3621               	rlcf	??_USBConfigureEndpoint+3,f,c
 14133  003A96  501E               	movf	??_USBConfigureEndpoint,w,c
 14134  003A98  2620               	addwf	??_USBConfigureEndpoint+2,f,c
 14135  003A9A  501F               	movf	??_USBConfigureEndpoint+1,w,c
 14136  003A9C  2221               	addwfc	??_USBConfigureEndpoint+3,f,c
 14137  003A9E  90D8               	bcf	status,0,c
 14138  003AA0  3620               	rlcf	??_USBConfigureEndpoint+2,f,c
 14139  003AA2  3621               	rlcf	??_USBConfigureEndpoint+3,f,c
 14140  003AA4  90D8               	bcf	status,0,c
 14141  003AA6  3620               	rlcf	??_USBConfigureEndpoint+2,f,c
 14142  003AA8  3621               	rlcf	??_USBConfigureEndpoint+3,f,c
 14143  003AAA  5020               	movf	??_USBConfigureEndpoint+2,w,c
 14144  003AAC  2623               	addwf	USBConfigureEndpoint@handle,f,c
 14145  003AAE  5021               	movf	??_USBConfigureEndpoint+3,w,c
 14146  003AB0  2224               	addwfc	USBConfigureEndpoint@handle+1,f,c
 14147                           
 14148                           ; BSR set to: 4
 14149                           ;usb_device.c: 1566: handle->STAT.UOWN = 0;
 14150  003AB2  C023  FFD9         	movff	USBConfigureEndpoint@handle,fsr2l
 14151  003AB6  C024  FFDA         	movff	USBConfigureEndpoint@handle+1,fsr2h
 14152  003ABA  9EDF               	bcf	indf2,7,c
 14153                           
 14154                           ; BSR set to: 4
 14155                           ;usb_device.c: 1571: if(direction == 0)
 14156  003ABC  661D               	tstfsz	USBConfigureEndpoint@direction,c
 14157  003ABE  D009               	goto	i2l6393
 14158                           
 14159                           ; BSR set to: 4
 14160                           ;usb_device.c: 1572: {
 14161                           ;usb_device.c: 1573: pBDTEntryOut[EPNum] = handle;
 14162  003AC0  5022               	movf	USBConfigureEndpoint@EPNum,w,c
 14163  003AC2  0D02               	mullw	2
 14164  003AC4  0100               	movlb	0	; () banked
 14165  003AC6  0EAF               	movlw	low _pBDTEntryOut
 14166  003AC8  24F3               	addwf	prodl,w,c
 14167  003ACA  6ED9               	movwf	fsr2l,c
 14168  003ACC  0100               	movlb	0	; () banked
 14169  003ACE  0E00               	movlw	high _pBDTEntryOut
 14170  003AD0  D008               	goto	L73
 14171  003AD2                     i2l6393:
 14172                           
 14173                           ;usb_device.c: 1575: else
 14174                           ;usb_device.c: 1576: {
 14175                           ;usb_device.c: 1577: pBDTEntryIn[EPNum] = handle;
 14176  003AD2  5022               	movf	USBConfigureEndpoint@EPNum,w,c
 14177  003AD4  0D02               	mullw	2
 14178  003AD6  0100               	movlb	0	; () banked
 14179  003AD8  0EAB               	movlw	low _pBDTEntryIn
 14180  003ADA  24F3               	addwf	prodl,w,c
 14181  003ADC  6ED9               	movwf	fsr2l,c
 14182  003ADE  0100               	movlb	0	; () banked
 14183  003AE0  0E00               	movlw	high _pBDTEntryIn
 14184  003AE2                     L73:
 14185  003AE2  20F4               	addwfc	prodh,w,c
 14186  003AE4  6EDA               	movwf	fsr2h,c
 14187  003AE6  C023  FFDE         	movff	USBConfigureEndpoint@handle,postinc2
 14188  003AEA  C024  FFDD         	movff	USBConfigureEndpoint@handle+1,postdec2
 14189                           
 14190                           ; BSR set to: 0
 14191                           ;usb_device.c: 1578: }
 14192                           ;usb_device.c: 1581: handle->STAT.DTS = 0;
 14193                           
 14194                           ; BSR set to: 0
 14195  003AEE  C023  FFD9         	movff	USBConfigureEndpoint@handle,fsr2l
 14196  003AF2  C024  FFDA         	movff	USBConfigureEndpoint@handle+1,fsr2h
 14197  003AF6  9CDF               	bcf	indf2,6,c
 14198                           
 14199                           ; BSR set to: 0
 14200                           ;usb_device.c: 1582: (handle+1)->STAT.DTS = 1;
 14201  003AF8  EE20 F004          	lfsr	2,4
 14202  003AFC  5023               	movf	USBConfigureEndpoint@handle,w,c
 14203  003AFE  26D9               	addwf	fsr2l,f,c
 14204  003B00  5024               	movf	USBConfigureEndpoint@handle+1,w,c
 14205  003B02  22DA               	addwfc	fsr2h,f,c
 14206  003B04  8CDF               	bsf	indf2,6,c
 14207                           
 14208                           ; BSR set to: 0
 14209  003B06  0012               	return	
 14210  003B08                     __end_of_USBConfigureEndpoint:
 14211                           	opt stack 0
 14212                           pclatu	equ	0xFFB
 14213                           pclath	equ	0xFFA
 14214                           tblptru	equ	0xFF8
 14215                           tblptrh	equ	0xFF7
 14216                           tblptrl	equ	0xFF6
 14217                           tablat	equ	0xFF5
 14218                           prodh	equ	0xFF4
 14219                           prodl	equ	0xFF3
 14220                           intcon	equ	0xFF2
 14221                           indf0	equ	0xFEF
 14222                           postinc0	equ	0xFEE
 14223                           fsr0h	equ	0xFEA
 14224                           fsr0l	equ	0xFE9
 14225                           wreg	equ	0xFE8
 14226                           indf1	equ	0xFE7
 14227                           fsr1h	equ	0xFE2
 14228                           fsr1l	equ	0xFE1
 14229                           bsr	equ	0xFE0
 14230                           indf2	equ	0xFDF
 14231                           postinc2	equ	0xFDE
 14232                           postdec2	equ	0xFDD
 14233                           plusw2	equ	0xFDB
 14234                           fsr2h	equ	0xFDA
 14235                           fsr2l	equ	0xFD9
 14236                           status	equ	0xFD8
 14237                           
 14238 ;; *************** function _USBCtrlTrfOutHandler *****************
 14239 ;; Defined at:
 14240 ;;		line 2558 in file "usb_device.c"
 14241 ;; Parameters:    Size  Location     Type
 14242 ;;		None
 14243 ;; Auto vars:     Size  Location     Type
 14244 ;;		None
 14245 ;; Return value:  Size  Location     Type
 14246 ;;		None               void
 14247 ;; Registers used:
 14248 ;;		wreg, fsr1l, fsr1h, fsr2l, fsr2h, status,2, status,0, prodl, prodh, cstack
 14249 ;; Tracked objects:
 14250 ;;		On entry : 0/0
 14251 ;;		On exit  : 0/0
 14252 ;;		Unchanged: 0/0
 14253 ;; Data sizes:     COMRAM   BANK0   BANK1   BANK2   BANK3   BANK4  BANK5h   BANK6   BANK7
 14254 ;;      Params:         0       0       0       0       0       0       0       0       0
 14255 ;;      Locals:         0       0       0       0       0       0       0       0       0
 14256 ;;      Temps:          0       0       0       0       0       0       0       0       0
 14257 ;;      Totals:         0       0       0       0       0       0       0       0       0
 14258 ;;Total ram usage:        0 bytes
 14259 ;; Hardware stack levels used:    1
 14260 ;; Hardware stack levels required when called:    2
 14261 ;; This function calls:
 14262 ;;		_USBCtrlTrfRxService
 14263 ;; This function is called by:
 14264 ;;		_USBCtrlEPService
 14265 ;; This function uses a non-reentrant model
 14266 ;;
 14267                           
 14268                           	psect	text50
 14269  003D78                     __ptext50:
 14270                           	opt stack 0
 14271  003D78                     _USBCtrlTrfOutHandler:
 14272                           	opt stack 20
 14273                           
 14274                           ;usb_device.c: 2560: if(controlTransferState == 2)
 14275                           
 14276                           ; BSR set to: 0
 14277                           ;incstack = 0
 14278  003D78  503C               	movf	_controlTransferState,w,c	;volatile
 14279  003D7A  0A02               	xorlw	2
 14280  003D7C  A4D8               	btfss	status,2,c
 14281  003D7E  D003               	goto	i2l7007
 14282                           
 14283                           ;usb_device.c: 2561: {
 14284                           ;usb_device.c: 2562: USBCtrlTrfRxService();
 14285  003D80  EC18  F015         	call	_USBCtrlTrfRxService	;wreg free
 14286                           
 14287                           ;usb_device.c: 2563: }
 14288  003D84  D025               	goto	i2l330
 14289  003D86                     i2l7007:
 14290                           
 14291                           ;usb_device.c: 2564: else
 14292                           ;usb_device.c: 2565: {
 14293                           ;usb_device.c: 2568: controlTransferState = 0;
 14294  003D86  0E00               	movlw	0
 14295  003D88  6E3C               	movwf	_controlTransferState,c	;volatile
 14296                           
 14297                           ;usb_device.c: 2575: if(BothEP0OutUOWNsSet == 0)
 14298  003D8A  6631               	tstfsz	_BothEP0OutUOWNsSet,c	;volatile
 14299  003D8C  D01F               	goto	i2l7017
 14300                           
 14301                           ;usb_device.c: 2576: {
 14302                           ;usb_device.c: 2577: pBDTEntryEP0OutNext->CNT = 8;
 14303  003D8E  EE20 F001          	lfsr	2,1
 14304  003D92  502F               	movf	_pBDTEntryEP0OutNext,w,c
 14305  003D94  26D9               	addwf	fsr2l,f,c
 14306  003D96  5030               	movf	_pBDTEntryEP0OutNext+1,w,c
 14307  003D98  22DA               	addwfc	fsr2h,f,c
 14308  003D9A  0E08               	movlw	8
 14309  003D9C  6EDF               	movwf	indf2,c
 14310                           
 14311                           ;usb_device.c: 2578: pBDTEntryEP0OutNext->ADR = ((uint16_t)(&SetupPkt));
 14312  003D9E  EE20 F002          	lfsr	2,2
 14313  003DA2  502F               	movf	_pBDTEntryEP0OutNext,w,c
 14314  003DA4  26D9               	addwf	fsr2l,f,c
 14315  003DA6  5030               	movf	_pBDTEntryEP0OutNext+1,w,c
 14316  003DA8  22DA               	addwfc	fsr2h,f,c
 14317  003DAA  0E20               	movlw	32
 14318  003DAC  6EDE               	movwf	postinc2,c
 14319  003DAE  0E04               	movlw	4
 14320  003DB0  6EDD               	movwf	postdec2,c
 14321                           
 14322                           ;usb_device.c: 2579: pBDTEntryEP0OutNext->STAT.Val = 0x00|(0x08 & 0x08)|0x04;
 14323  003DB2  C02F  FFD9         	movff	_pBDTEntryEP0OutNext,fsr2l
 14324  003DB6  C030  FFDA         	movff	_pBDTEntryEP0OutNext+1,fsr2h
 14325  003DBA  0E0C               	movlw	12
 14326  003DBC  6EDF               	movwf	indf2,c
 14327                           
 14328                           ;usb_device.c: 2580: pBDTEntryEP0OutNext->STAT.Val |= 0x80;
 14329  003DBE  C02F  FFD9         	movff	_pBDTEntryEP0OutNext,fsr2l
 14330  003DC2  C030  FFDA         	movff	_pBDTEntryEP0OutNext+1,fsr2h
 14331  003DC6  0E00               	movlw	0
 14332  003DC8  8EDB               	bsf	plusw2,7,c
 14333                           
 14334                           ;usb_device.c: 2581: }
 14335  003DCA  D002               	goto	i2l330
 14336  003DCC                     i2l7017:
 14337                           
 14338                           ;usb_device.c: 2582: else
 14339                           ;usb_device.c: 2583: {
 14340                           ;usb_device.c: 2584: BothEP0OutUOWNsSet = 0;
 14341  003DCC  0E00               	movlw	0
 14342  003DCE  6E31               	movwf	_BothEP0OutUOWNsSet,c	;volatile
 14343  003DD0                     i2l330:
 14344  003DD0  0012               	return	
 14345  003DD2                     __end_of_USBCtrlTrfOutHandler:
 14346                           	opt stack 0
 14347                           pclatu	equ	0xFFB
 14348                           pclath	equ	0xFFA
 14349                           tblptru	equ	0xFF8
 14350                           tblptrh	equ	0xFF7
 14351                           tblptrl	equ	0xFF6
 14352                           tablat	equ	0xFF5
 14353                           prodh	equ	0xFF4
 14354                           prodl	equ	0xFF3
 14355                           intcon	equ	0xFF2
 14356                           indf0	equ	0xFEF
 14357                           postinc0	equ	0xFEE
 14358                           fsr0h	equ	0xFEA
 14359                           fsr0l	equ	0xFE9
 14360                           wreg	equ	0xFE8
 14361                           indf1	equ	0xFE7
 14362                           fsr1h	equ	0xFE2
 14363                           fsr1l	equ	0xFE1
 14364                           bsr	equ	0xFE0
 14365                           indf2	equ	0xFDF
 14366                           postinc2	equ	0xFDE
 14367                           postdec2	equ	0xFDD
 14368                           plusw2	equ	0xFDB
 14369                           fsr2h	equ	0xFDA
 14370                           fsr2l	equ	0xFD9
 14371                           status	equ	0xFD8
 14372                           
 14373 ;; *************** function _USBCtrlTrfRxService *****************
 14374 ;; Defined at:
 14375 ;;		line 1866 in file "usb_device.c"
 14376 ;; Parameters:    Size  Location     Type
 14377 ;;		None
 14378 ;; Auto vars:     Size  Location     Type
 14379 ;;  byteToRead      1   29[COMRAM] unsigned char 
 14380 ;;  i               1   28[COMRAM] unsigned char 
 14381 ;; Return value:  Size  Location     Type
 14382 ;;		None               void
 14383 ;; Registers used:
 14384 ;;		wreg, fsr1l, fsr1h, fsr2l, fsr2h, status,2, status,0, prodl, prodh, cstack
 14385 ;; Tracked objects:
 14386 ;;		On entry : 0/0
 14387 ;;		On exit  : 0/0
 14388 ;;		Unchanged: 0/0
 14389 ;; Data sizes:     COMRAM   BANK0   BANK1   BANK2   BANK3   BANK4  BANK5h   BANK6   BANK7
 14390 ;;      Params:         0       0       0       0       0       0       0       0       0
 14391 ;;      Locals:         2       0       0       0       0       0       0       0       0
 14392 ;;      Temps:          0       0       0       0       0       0       0       0       0
 14393 ;;      Totals:         2       0       0       0       0       0       0       0       0
 14394 ;;Total ram usage:        2 bytes
 14395 ;; Hardware stack levels used:    1
 14396 ;; Hardware stack levels required when called:    1
 14397 ;; This function calls:
 14398 ;;		_USBCtrlEPAllowStatusStage
 14399 ;; This function is called by:
 14400 ;;		_USBCtrlTrfOutHandler
 14401 ;; This function uses a non-reentrant model
 14402 ;;
 14403                           
 14404                           	psect	text51
 14405  002A30                     __ptext51:
 14406                           	opt stack 0
 14407  002A30                     _USBCtrlTrfRxService:
 14408                           	opt stack 20
 14409                           
 14410                           ;usb_device.c: 1868: uint8_t byteToRead;
 14411                           ;usb_device.c: 1869: uint8_t i;
 14412                           ;usb_device.c: 1873: byteToRead = pBDTEntryEP0OutCurrent->CNT;
 14413                           
 14414                           ;incstack = 0
 14415  002A30  EE20 F001          	lfsr	2,1
 14416  002A34  502D               	movf	_pBDTEntryEP0OutCurrent,w,c
 14417  002A36  26D9               	addwf	fsr2l,f,c
 14418  002A38  502E               	movf	_pBDTEntryEP0OutCurrent+1,w,c
 14419  002A3A  22DA               	addwfc	fsr2h,f,c
 14420  002A3C  50DF               	movf	indf2,w,c
 14421  002A3E  6E1E               	movwf	USBCtrlTrfRxService@byteToRead,c
 14422                           
 14423                           ;usb_device.c: 1879: if(byteToRead > outPipes[0].wCount.Val)
 14424  002A40  501E               	movf	USBCtrlTrfRxService@byteToRead,w,c
 14425  002A42  0100               	movlb	0	; () banked
 14426  002A44  5DA7               	subwf	(_outPipes+4)& (0+255),w,b	;volatile
 14427  002A46  0E00               	movlw	0
 14428  002A48  0100               	movlb	0	; () banked
 14429  002A4A  59A8               	subwfb	(_outPipes+5)& (0+255),w,b	;volatile
 14430  002A4C  A0D8               	btfss	status,0,c
 14431                           
 14432                           ; BSR set to: 0
 14433                           ;usb_device.c: 1880: {
 14434                           ;usb_device.c: 1881: byteToRead = outPipes[0].wCount.Val;
 14435  002A4E  C0A7  F01E         	movff	_outPipes+4,USBCtrlTrfRxService@byteToRead	;volatile
 14436                           
 14437                           ; BSR set to: 0
 14438                           ;usb_device.c: 1882: }
 14439                           ;usb_device.c: 1884: outPipes[0].wCount.Val -= byteToRead;
 14440                           
 14441                           ; BSR set to: 0
 14442  002A52  501E               	movf	USBCtrlTrfRxService@byteToRead,w,c
 14443  002A54  0100               	movlb	0	; () banked
 14444  002A56  5FA7               	subwf	(_outPipes+4)& (0+255),f,b	;volatile
 14445  002A58  0E00               	movlw	0
 14446  002A5A  0100               	movlb	0	; () banked
 14447  002A5C  5BA8               	subwfb	(_outPipes+5)& (0+255),f,b	;volatile
 14448                           
 14449                           ; BSR set to: 0
 14450                           ;usb_device.c: 1888: for(i=0;i<byteToRead;i++)
 14451  002A5E  0E00               	movlw	0
 14452  002A60  6E1D               	movwf	USBCtrlTrfRxService@i,c
 14453  002A62  D014               	goto	i2l6883
 14454  002A64                     i2l6877:
 14455                           
 14456                           ; BSR set to: 0
 14457                           ;usb_device.c: 1889: {
 14458                           ;usb_device.c: 1890: *outPipes[0].pDst.bRam++ = CtrlTrfData[i];
 14459  002A64  501D               	movf	USBCtrlTrfRxService@i,w,c
 14460  002A66  0D01               	mullw	1
 14461  002A68  0104               	movlb	4	; () banked
 14462  002A6A  0E28               	movlw	40	;volatile
 14463  002A6C  24F3               	addwf	prodl,w,c
 14464  002A6E  6ED9               	movwf	fsr2l,c
 14465  002A70  0104               	movlb	4	; () banked
 14466  002A72  0E04               	movlw	4	;volatile
 14467  002A74  20F4               	addwfc	prodh,w,c
 14468  002A76  6EDA               	movwf	fsr2h,c
 14469  002A78  C0A3  FFE1         	movff	_outPipes,fsr1l	;volatile
 14470  002A7C  C0A4  FFE2         	movff	_outPipes+1,fsr1h	;volatile
 14471  002A80  CFDF FFE7          	movff	indf2,indf1
 14472                           
 14473                           ; BSR set to: 4
 14474  002A84  0100               	movlb	0	; () banked
 14475  002A86  4BA3               	infsnz	_outPipes& (0+255),f,b	;volatile
 14476  002A88  2BA4               	incf	(_outPipes+1)& (0+255),f,b	;volatile
 14477                           
 14478                           ; BSR set to: 0
 14479  002A8A  2A1D               	incf	USBCtrlTrfRxService@i,f,c
 14480  002A8C                     i2l6883:
 14481                           
 14482                           ; BSR set to: 0
 14483  002A8C  501E               	movf	USBCtrlTrfRxService@byteToRead,w,c
 14484  002A8E  5C1D               	subwf	USBCtrlTrfRxService@i,w,c
 14485  002A90  A0D8               	btfss	status,0,c
 14486  002A92  D7E8               	goto	i2l6877
 14487                           
 14488                           ; BSR set to: 0
 14489                           ;usb_device.c: 1891: }
 14490                           ;usb_device.c: 1895: if(outPipes[0].wCount.Val > 0)
 14491                           
 14492                           ; BSR set to: 0
 14493  002A94  0100               	movlb	0	; () banked
 14494  002A96  51A8               	movf	(_outPipes+5)& (0+255),w,b	;volatile
 14495  002A98  11A7               	iorwf	(_outPipes+4)& (0+255),w,b	;volatile
 14496  002A9A  B4D8               	btfsc	status,2,c
 14497  002A9C  D02B               	goto	i2l6899
 14498                           
 14499                           ; BSR set to: 0
 14500                           ;usb_device.c: 1896: {
 14501                           ;usb_device.c: 1897: pBDTEntryEP0OutNext->CNT = 8;
 14502  002A9E  EE20 F001          	lfsr	2,1
 14503  002AA2  502F               	movf	_pBDTEntryEP0OutNext,w,c
 14504  002AA4  26D9               	addwf	fsr2l,f,c
 14505  002AA6  5030               	movf	_pBDTEntryEP0OutNext+1,w,c
 14506  002AA8  22DA               	addwfc	fsr2h,f,c
 14507  002AAA  0E08               	movlw	8
 14508  002AAC  6EDF               	movwf	indf2,c
 14509                           
 14510                           ;usb_device.c: 1898: pBDTEntryEP0OutNext->ADR = ((uint16_t)(&CtrlTrfData));
 14511  002AAE  EE20 F002          	lfsr	2,2
 14512  002AB2  502F               	movf	_pBDTEntryEP0OutNext,w,c
 14513  002AB4  26D9               	addwf	fsr2l,f,c
 14514  002AB6  5030               	movf	_pBDTEntryEP0OutNext+1,w,c
 14515  002AB8  22DA               	addwfc	fsr2h,f,c
 14516  002ABA  0E28               	movlw	40
 14517  002ABC  6EDE               	movwf	postinc2,c
 14518  002ABE  0E04               	movlw	4
 14519  002AC0  6EDD               	movwf	postdec2,c
 14520                           
 14521                           ; BSR set to: 0
 14522                           ;usb_device.c: 1899: if(pBDTEntryEP0OutCurrent->STAT.DTS == 0)
 14523  002AC2  C02D  FFD9         	movff	_pBDTEntryEP0OutCurrent,fsr2l
 14524  002AC6  C02E  FFDA         	movff	_pBDTEntryEP0OutCurrent+1,fsr2h
 14525  002ACA  BCDF               	btfsc	indf2,6,c
 14526  002ACC  D006               	goto	i2l6895
 14527                           
 14528                           ; BSR set to: 0
 14529                           ;usb_device.c: 1900: {
 14530                           ;usb_device.c: 1901: pBDTEntryEP0OutNext->STAT.Val = 0x40|(0x08 & 0x08);
 14531  002ACE  C02F  FFD9         	movff	_pBDTEntryEP0OutNext,fsr2l
 14532  002AD2  C030  FFDA         	movff	_pBDTEntryEP0OutNext+1,fsr2h
 14533  002AD6  0E48               	movlw	72
 14534  002AD8  D005               	goto	L74
 14535  002ADA                     i2l6895:
 14536                           
 14537                           ; BSR set to: 0
 14538                           ;usb_device.c: 1904: else
 14539                           ;usb_device.c: 1905: {
 14540                           ;usb_device.c: 1906: pBDTEntryEP0OutNext->STAT.Val = 0x00|(0x08 & 0x08);
 14541  002ADA  C02F  FFD9         	movff	_pBDTEntryEP0OutNext,fsr2l
 14542  002ADE  C030  FFDA         	movff	_pBDTEntryEP0OutNext+1,fsr2h
 14543  002AE2  0E08               	movlw	8
 14544  002AE4                     L74:
 14545  002AE4  6EDF               	movwf	indf2,c
 14546                           
 14547                           ; BSR set to: 0
 14548                           ;usb_device.c: 1907: pBDTEntryEP0OutNext->STAT.Val |= 0x80;
 14549  002AE6  C02F  FFD9         	movff	_pBDTEntryEP0OutNext,fsr2l
 14550  002AEA  C030  FFDA         	movff	_pBDTEntryEP0OutNext+1,fsr2h
 14551  002AEE  0E00               	movlw	0
 14552  002AF0  8EDB               	bsf	plusw2,7,c
 14553  002AF2  D024               	goto	i2l261
 14554  002AF4                     i2l6899:
 14555                           
 14556                           ; BSR set to: 0
 14557                           ;usb_device.c: 1910: else
 14558                           ;usb_device.c: 1911: {
 14559                           ;usb_device.c: 1915: pBDTEntryEP0OutNext->CNT = 8;
 14560  002AF4  EE20 F001          	lfsr	2,1
 14561  002AF8  502F               	movf	_pBDTEntryEP0OutNext,w,c
 14562  002AFA  26D9               	addwf	fsr2l,f,c
 14563  002AFC  5030               	movf	_pBDTEntryEP0OutNext+1,w,c
 14564  002AFE  22DA               	addwfc	fsr2h,f,c
 14565  002B00  0E08               	movlw	8
 14566  002B02  6EDF               	movwf	indf2,c
 14567                           
 14568                           ;usb_device.c: 1916: pBDTEntryEP0OutNext->ADR = ((uint16_t)(&SetupPkt));
 14569  002B04  EE20 F002          	lfsr	2,2
 14570  002B08  502F               	movf	_pBDTEntryEP0OutNext,w,c
 14571  002B0A  26D9               	addwf	fsr2l,f,c
 14572  002B0C  5030               	movf	_pBDTEntryEP0OutNext+1,w,c
 14573  002B0E  22DA               	addwfc	fsr2h,f,c
 14574  002B10  0E20               	movlw	32
 14575  002B12  6EDE               	movwf	postinc2,c
 14576  002B14  0E04               	movlw	4
 14577  002B16  6EDD               	movwf	postdec2,c
 14578                           
 14579                           ; BSR set to: 0
 14580                           ;usb_device.c: 1920: pBDTEntryEP0OutNext->STAT.Val = 0x04;
 14581  002B18  C02F  FFD9         	movff	_pBDTEntryEP0OutNext,fsr2l
 14582  002B1C  C030  FFDA         	movff	_pBDTEntryEP0OutNext+1,fsr2h
 14583  002B20  0E04               	movlw	4
 14584  002B22  6EDF               	movwf	indf2,c
 14585                           
 14586                           ; BSR set to: 0
 14587                           ;usb_device.c: 1921: pBDTEntryEP0OutNext->STAT.Val |= 0x80;
 14588  002B24  C02F  FFD9         	movff	_pBDTEntryEP0OutNext,fsr2l
 14589  002B28  C030  FFDA         	movff	_pBDTEntryEP0OutNext+1,fsr2h
 14590  002B2C  0E00               	movlw	0
 14591  002B2E  8EDB               	bsf	plusw2,7,c
 14592                           
 14593                           ; BSR set to: 0
 14594                           ;usb_device.c: 1940: }
 14595                           ;usb_device.c: 1941: outPipes[0].info.bits.busy = 0;
 14596                           
 14597                           ; BSR set to: 0
 14598                           ;usb_device.c: 1929: {
 14599                           ;usb_device.c: 1935: outPipes[0].pFunc();
 14600  002B30  0100               	movlb	0	; () banked
 14601  002B32  9FA6               	bcf	(_outPipes+3)& (0+255),7,b	;volatile
 14602                           
 14603                           ;usb_device.c: 1955: if(USBDeferStatusStagePacket == 0)
 14604  002B34  6636               	tstfsz	_USBDeferStatusStagePacket,c	;volatile
 14605  002B36  D002               	goto	i2l261
 14606                           
 14607                           ; BSR set to: 0
 14608                           ;usb_device.c: 1956: {
 14609                           ;usb_device.c: 1957: USBCtrlEPAllowStatusStage();
 14610  002B38  ECE2  F01B         	call	_USBCtrlEPAllowStatusStage	;wreg free
 14611  002B3C                     i2l261:
 14612  002B3C  0012               	return	
 14613  002B3E                     __end_of_USBCtrlTrfRxService:
 14614                           	opt stack 0
 14615                           pclatu	equ	0xFFB
 14616                           pclath	equ	0xFFA
 14617                           tblptru	equ	0xFF8
 14618                           tblptrh	equ	0xFF7
 14619                           tblptrl	equ	0xFF6
 14620                           tablat	equ	0xFF5
 14621                           prodh	equ	0xFF4
 14622                           prodl	equ	0xFF3
 14623                           intcon	equ	0xFF2
 14624                           indf0	equ	0xFEF
 14625                           postinc0	equ	0xFEE
 14626                           fsr0h	equ	0xFEA
 14627                           fsr0l	equ	0xFE9
 14628                           wreg	equ	0xFE8
 14629                           indf1	equ	0xFE7
 14630                           fsr1h	equ	0xFE2
 14631                           fsr1l	equ	0xFE1
 14632                           bsr	equ	0xFE0
 14633                           indf2	equ	0xFDF
 14634                           postinc2	equ	0xFDE
 14635                           postdec2	equ	0xFDD
 14636                           plusw2	equ	0xFDB
 14637                           fsr2h	equ	0xFDA
 14638                           fsr2l	equ	0xFD9
 14639                           status	equ	0xFD8
 14640                           
 14641 ;; *************** function _USBCtrlEPAllowStatusStage *****************
 14642 ;; Defined at:
 14643 ;;		line 1430 in file "usb_device.c"
 14644 ;; Parameters:    Size  Location     Type
 14645 ;;		None
 14646 ;; Auto vars:     Size  Location     Type
 14647 ;;		None
 14648 ;; Return value:  Size  Location     Type
 14649 ;;		None               void
 14650 ;; Registers used:
 14651 ;;		wreg, fsr2l, fsr2h, status,2, status,0
 14652 ;; Tracked objects:
 14653 ;;		On entry : 0/0
 14654 ;;		On exit  : 0/0
 14655 ;;		Unchanged: 0/0
 14656 ;; Data sizes:     COMRAM   BANK0   BANK1   BANK2   BANK3   BANK4  BANK5h   BANK6   BANK7
 14657 ;;      Params:         0       0       0       0       0       0       0       0       0
 14658 ;;      Locals:         0       0       0       0       0       0       0       0       0
 14659 ;;      Temps:          0       0       0       0       0       0       0       0       0
 14660 ;;      Totals:         0       0       0       0       0       0       0       0       0
 14661 ;;Total ram usage:        0 bytes
 14662 ;; Hardware stack levels used:    1
 14663 ;; This function calls:
 14664 ;;		Nothing
 14665 ;; This function is called by:
 14666 ;;		_USBDeviceTasks
 14667 ;;		_USBCtrlEPServiceComplete
 14668 ;;		_USBCtrlTrfRxService
 14669 ;; This function uses a non-reentrant model
 14670 ;;
 14671                           
 14672                           	psect	text52
 14673  0037C4                     __ptext52:
 14674                           	opt stack 0
 14675  0037C4                     _USBCtrlEPAllowStatusStage:
 14676                           	opt stack 20
 14677                           
 14678                           ;usb_device.c: 1437: if(USBStatusStageEnabledFlag1 == 0)
 14679                           
 14680                           ;incstack = 0
 14681  0037C4  6638               	tstfsz	_USBStatusStageEnabledFlag1,c	;volatile
 14682  0037C6  D05F               	goto	i2l209
 14683                           
 14684                           ;usb_device.c: 1438: {
 14685                           ;usb_device.c: 1439: USBStatusStageEnabledFlag1 = 1;
 14686  0037C8  0E01               	movlw	1
 14687  0037CA  6E38               	movwf	_USBStatusStageEnabledFlag1,c	;volatile
 14688                           
 14689                           ;usb_device.c: 1440: if(USBStatusStageEnabledFlag2 == 0)
 14690  0037CC  6639               	tstfsz	_USBStatusStageEnabledFlag2,c	;volatile
 14691  0037CE  D05B               	goto	i2l209
 14692                           
 14693                           ;usb_device.c: 1441: {
 14694                           ;usb_device.c: 1442: USBStatusStageEnabledFlag2 = 1;
 14695  0037D0  0E01               	movlw	1
 14696  0037D2  6E39               	movwf	_USBStatusStageEnabledFlag2,c	;volatile
 14697                           
 14698                           ;usb_device.c: 1446: if(controlTransferState == 2)
 14699  0037D4  503C               	movf	_controlTransferState,w,c	;volatile
 14700  0037D6  0A02               	xorlw	2
 14701  0037D8  A4D8               	btfss	status,2,c
 14702  0037DA  D018               	goto	i2l6589
 14703                           
 14704                           ;usb_device.c: 1447: {
 14705                           ;usb_device.c: 1448: pBDTEntryIn[0]->CNT = 0;
 14706  0037DC  0100               	movlb	0	; () banked
 14707  0037DE  EE20 F001          	lfsr	2,1
 14708  0037E2  0100               	movlb	0	; () banked
 14709  0037E4  51AB               	movf	_pBDTEntryIn& (0+255),w,b
 14710  0037E6  26D9               	addwf	fsr2l,f,c
 14711  0037E8  0100               	movlb	0	; () banked
 14712  0037EA  51AC               	movf	(_pBDTEntryIn+1)& (0+255),w,b
 14713  0037EC  22DA               	addwfc	fsr2h,f,c
 14714  0037EE  0E00               	movlw	0
 14715  0037F0  6EDF               	movwf	indf2,c
 14716                           
 14717                           ; BSR set to: 0
 14718                           ;usb_device.c: 1449: pBDTEntryIn[0]->STAT.Val = 0x40|(0x08 & 0x08);
 14719  0037F2  C0AB  FFD9         	movff	_pBDTEntryIn,fsr2l
 14720  0037F6  C0AC  FFDA         	movff	_pBDTEntryIn+1,fsr2h
 14721  0037FA  0E48               	movlw	72
 14722  0037FC  6EDF               	movwf	indf2,c
 14723                           
 14724                           ; BSR set to: 0
 14725                           ;usb_device.c: 1450: pBDTEntryIn[0]->STAT.Val |= 0x80;
 14726  0037FE  C0AB  FFD9         	movff	_pBDTEntryIn,fsr2l
 14727  003802  C0AC  FFDA         	movff	_pBDTEntryIn+1,fsr2h
 14728  003806  0E00               	movlw	0
 14729  003808  8EDB               	bsf	plusw2,7,c
 14730                           
 14731                           ;usb_device.c: 1451: }
 14732  00380A  D03D               	goto	i2l209
 14733  00380C                     i2l6589:
 14734                           
 14735                           ;usb_device.c: 1452: else if(controlTransferState == 1)
 14736  00380C  043C               	decf	_controlTransferState,w,c	;volatile
 14737  00380E  A4D8               	btfss	status,2,c
 14738  003810  D03A               	goto	i2l209
 14739                           
 14740                           ;usb_device.c: 1453: {
 14741                           ;usb_device.c: 1454: BothEP0OutUOWNsSet = 0;
 14742  003812  0E00               	movlw	0
 14743  003814  6E31               	movwf	_BothEP0OutUOWNsSet,c	;volatile
 14744                           
 14745                           ;usb_device.c: 1459: pBDTEntryEP0OutCurrent->CNT = 8;
 14746  003816  EE20 F001          	lfsr	2,1
 14747  00381A  502D               	movf	_pBDTEntryEP0OutCurrent,w,c
 14748  00381C  26D9               	addwf	fsr2l,f,c
 14749  00381E  502E               	movf	_pBDTEntryEP0OutCurrent+1,w,c
 14750  003820  22DA               	addwfc	fsr2h,f,c
 14751  003822  0E08               	movlw	8
 14752  003824  6EDF               	movwf	indf2,c
 14753                           
 14754                           ;usb_device.c: 1460: pBDTEntryEP0OutCurrent->ADR = ((uint16_t)(&SetupPkt));
 14755  003826  EE20 F002          	lfsr	2,2
 14756  00382A  502D               	movf	_pBDTEntryEP0OutCurrent,w,c
 14757  00382C  26D9               	addwf	fsr2l,f,c
 14758  00382E  502E               	movf	_pBDTEntryEP0OutCurrent+1,w,c
 14759  003830  22DA               	addwfc	fsr2h,f,c
 14760  003832  0E20               	movlw	32
 14761  003834  6EDE               	movwf	postinc2,c
 14762  003836  0E04               	movlw	4
 14763  003838  6EDD               	movwf	postdec2,c
 14764                           
 14765                           ;usb_device.c: 1461: pBDTEntryEP0OutCurrent->STAT.Val = 0x04;
 14766  00383A  C02D  FFD9         	movff	_pBDTEntryEP0OutCurrent,fsr2l
 14767  00383E  C02E  FFDA         	movff	_pBDTEntryEP0OutCurrent+1,fsr2h
 14768  003842  0E04               	movlw	4
 14769  003844  6EDF               	movwf	indf2,c
 14770                           
 14771                           ;usb_device.c: 1462: pBDTEntryEP0OutCurrent->STAT.Val |= 0x80;
 14772  003846  C02D  FFD9         	movff	_pBDTEntryEP0OutCurrent,fsr2l
 14773  00384A  C02E  FFDA         	movff	_pBDTEntryEP0OutCurrent+1,fsr2h
 14774  00384E  0E00               	movlw	0
 14775  003850  8EDB               	bsf	plusw2,7,c
 14776                           
 14777                           ;usb_device.c: 1463: BothEP0OutUOWNsSet = 1;
 14778  003852  0E01               	movlw	1
 14779  003854  6E31               	movwf	_BothEP0OutUOWNsSet,c	;volatile
 14780                           
 14781                           ;usb_device.c: 1467: pBDTEntryEP0OutNext->CNT = 8;
 14782  003856  EE20 F001          	lfsr	2,1
 14783  00385A  502F               	movf	_pBDTEntryEP0OutNext,w,c
 14784  00385C  26D9               	addwf	fsr2l,f,c
 14785  00385E  5030               	movf	_pBDTEntryEP0OutNext+1,w,c
 14786  003860  22DA               	addwfc	fsr2h,f,c
 14787  003862  0E08               	movlw	8
 14788  003864  6EDF               	movwf	indf2,c
 14789                           
 14790                           ;usb_device.c: 1468: pBDTEntryEP0OutNext->ADR = ((uint16_t)(&SetupPkt));
 14791  003866  EE20 F002          	lfsr	2,2
 14792  00386A  502F               	movf	_pBDTEntryEP0OutNext,w,c
 14793  00386C  26D9               	addwf	fsr2l,f,c
 14794  00386E  5030               	movf	_pBDTEntryEP0OutNext+1,w,c
 14795  003870  22DA               	addwfc	fsr2h,f,c
 14796  003872  0E20               	movlw	32
 14797  003874  6EDE               	movwf	postinc2,c
 14798  003876  0E04               	movlw	4
 14799  003878  6EDD               	movwf	postdec2,c
 14800                           
 14801                           ;usb_device.c: 1469: pBDTEntryEP0OutNext->STAT.Val = 0x80;
 14802  00387A  C02F  FFD9         	movff	_pBDTEntryEP0OutNext,fsr2l
 14803  00387E  C030  FFDA         	movff	_pBDTEntryEP0OutNext+1,fsr2h
 14804  003882  0E80               	movlw	128
 14805  003884  6EDF               	movwf	indf2,c
 14806  003886                     i2l209:
 14807  003886  0012               	return	
 14808  003888                     __end_of_USBCtrlEPAllowStatusStage:
 14809                           	opt stack 0
 14810                           pclatu	equ	0xFFB
 14811                           pclath	equ	0xFFA
 14812                           tblptru	equ	0xFF8
 14813                           tblptrh	equ	0xFF7
 14814                           tblptrl	equ	0xFF6
 14815                           tablat	equ	0xFF5
 14816                           prodh	equ	0xFF4
 14817                           prodl	equ	0xFF3
 14818                           intcon	equ	0xFF2
 14819                           indf0	equ	0xFEF
 14820                           postinc0	equ	0xFEE
 14821                           fsr0h	equ	0xFEA
 14822                           fsr0l	equ	0xFE9
 14823                           wreg	equ	0xFE8
 14824                           indf1	equ	0xFE7
 14825                           fsr1h	equ	0xFE2
 14826                           fsr1l	equ	0xFE1
 14827                           bsr	equ	0xFE0
 14828                           indf2	equ	0xFDF
 14829                           postinc2	equ	0xFDE
 14830                           postdec2	equ	0xFDD
 14831                           plusw2	equ	0xFDB
 14832                           fsr2h	equ	0xFDA
 14833                           fsr2l	equ	0xFD9
 14834                           status	equ	0xFD8
 14835                           
 14836 ;; *************** function _USBCtrlTrfInHandler *****************
 14837 ;; Defined at:
 14838 ;;		line 2612 in file "usb_device.c"
 14839 ;; Parameters:    Size  Location     Type
 14840 ;;		None
 14841 ;; Auto vars:     Size  Location     Type
 14842 ;;  lastDTS         1   29[COMRAM] unsigned char 
 14843 ;; Return value:  Size  Location     Type
 14844 ;;		None               void
 14845 ;; Registers used:
 14846 ;;		wreg, fsr1l, fsr1h, fsr2l, fsr2h, status,2, status,0, tblptrl, tblptrh, tblptru, cstack
 14847 ;; Tracked objects:
 14848 ;;		On entry : 0/0
 14849 ;;		On exit  : 0/0
 14850 ;;		Unchanged: 0/0
 14851 ;; Data sizes:     COMRAM   BANK0   BANK1   BANK2   BANK3   BANK4  BANK5h   BANK6   BANK7
 14852 ;;      Params:         0       0       0       0       0       0       0       0       0
 14853 ;;      Locals:         1       0       0       0       0       0       0       0       0
 14854 ;;      Temps:          0       0       0       0       0       0       0       0       0
 14855 ;;      Totals:         1       0       0       0       0       0       0       0       0
 14856 ;;Total ram usage:        1 bytes
 14857 ;; Hardware stack levels used:    1
 14858 ;; Hardware stack levels required when called:    1
 14859 ;; This function calls:
 14860 ;;		_USBCtrlTrfTxService
 14861 ;; This function is called by:
 14862 ;;		_USBCtrlEPService
 14863 ;; This function uses a non-reentrant model
 14864 ;;
 14865                           
 14866                           	psect	text53
 14867  003888                     __ptext53:
 14868                           	opt stack 0
 14869  003888                     _USBCtrlTrfInHandler:
 14870                           	opt stack 21
 14871                           
 14872                           ;usb_device.c: 2614: uint8_t lastDTS;
 14873                           ;usb_device.c: 2616: lastDTS = pBDTEntryIn[0]->STAT.DTS;
 14874                           
 14875                           ;incstack = 0
 14876  003888  C0AB  FFD9         	movff	_pBDTEntryIn,fsr2l
 14877  00388C  C0AC  FFDA         	movff	_pBDTEntryIn+1,fsr2h
 14878  003890  0E00               	movlw	0
 14879  003892  BCDF               	btfsc	indf2,6,c
 14880  003894  0E01               	movlw	1
 14881  003896  6E1E               	movwf	USBCtrlTrfInHandler@lastDTS,c
 14882                           
 14883                           ;usb_device.c: 2619: ((uint8_t_VAL*)&pBDTEntryIn[0])->Val ^= 0x0004;
 14884  003898  0E04               	movlw	4
 14885  00389A  0100               	movlb	0	; () banked
 14886  00389C  1BAB               	xorwf	_pBDTEntryIn& (0+255),f,b
 14887                           
 14888                           ; BSR set to: 0
 14889                           ;usb_device.c: 2624: if(USBDeviceState == ADR_PENDING_STATE)
 14890  00389E  5037               	movf	_USBDeviceState,w,c	;volatile
 14891  0038A0  0A08               	xorlw	8
 14892  0038A2  A4D8               	btfss	status,2,c
 14893  0038A4  D00B               	goto	i2l7033
 14894                           
 14895                           ; BSR set to: 0
 14896                           ;usb_device.c: 2625: {
 14897                           ;usb_device.c: 2626: UADDR = (SetupPkt.bDevADR & 0x7F);
 14898  0038A6  0104               	movlb	4	; () banked
 14899  0038A8  5122               	movf	34,w,b	;volatile
 14900  0038AA  0B7F               	andlw	127
 14901  0038AC  6E6E               	movwf	3950,c	;volatile
 14902                           
 14903                           ; BSR set to: 4
 14904                           ;usb_device.c: 2627: if(UADDR != 0u)
 14905  0038AE  506E               	movf	3950,w,c	;volatile
 14906  0038B0  B4D8               	btfsc	status,2,c
 14907  0038B2  D002               	goto	i2l7031
 14908                           
 14909                           ; BSR set to: 4
 14910                           ;usb_device.c: 2628: {
 14911                           ;usb_device.c: 2629: USBDeviceState=ADDRESS_STATE;
 14912  0038B4  0E10               	movlw	16
 14913  0038B6  D001               	goto	L75
 14914  0038B8                     i2l7031:
 14915                           
 14916                           ; BSR set to: 4
 14917                           ;usb_device.c: 2631: else
 14918                           ;usb_device.c: 2632: {
 14919                           ;usb_device.c: 2633: USBDeviceState=DEFAULT_STATE;
 14920  0038B8  0E04               	movlw	4
 14921  0038BA                     L75:
 14922  0038BA  6E37               	movwf	_USBDeviceState,c	;volatile
 14923  0038BC                     i2l7033:
 14924                           
 14925                           ;usb_device.c: 2634: }
 14926                           ;usb_device.c: 2635: }
 14927                           ;usb_device.c: 2638: if(controlTransferState == 1)
 14928  0038BC  043C               	decf	_controlTransferState,w,c	;volatile
 14929  0038BE  A4D8               	btfss	status,2,c
 14930  0038C0  D02E               	goto	i2l336
 14931                           
 14932                           ;usb_device.c: 2639: {
 14933                           ;usb_device.c: 2640: pBDTEntryIn[0]->ADR = ((uint16_t)(CtrlTrfData));
 14934  0038C2  0100               	movlb	0	; () banked
 14935  0038C4  EE20 F002          	lfsr	2,2
 14936  0038C8  0100               	movlb	0	; () banked
 14937  0038CA  51AB               	movf	_pBDTEntryIn& (0+255),w,b
 14938  0038CC  26D9               	addwf	fsr2l,f,c
 14939  0038CE  0100               	movlb	0	; () banked
 14940  0038D0  51AC               	movf	(_pBDTEntryIn+1)& (0+255),w,b
 14941  0038D2  22DA               	addwfc	fsr2h,f,c
 14942  0038D4  0E28               	movlw	40
 14943  0038D6  6EDE               	movwf	postinc2,c
 14944  0038D8  0E04               	movlw	4
 14945  0038DA  6EDD               	movwf	postdec2,c
 14946                           
 14947                           ; BSR set to: 0
 14948                           ;usb_device.c: 2641: USBCtrlTrfTxService();
 14949  0038DC  EC0C  F019         	call	_USBCtrlTrfTxService	;wreg free
 14950                           
 14951                           ;usb_device.c: 2647: if(shortPacketStatus == 2)
 14952  0038E0  503E               	movf	_shortPacketStatus,w,c	;volatile
 14953  0038E2  0A02               	xorlw	2
 14954  0038E4  A4D8               	btfss	status,2,c
 14955  0038E6  D006               	goto	i2l337
 14956                           
 14957                           ;usb_device.c: 2648: {
 14958                           ;usb_device.c: 2651: pBDTEntryIn[0]->STAT.Val = 0x04;
 14959  0038E8  C0AB  FFD9         	movff	_pBDTEntryIn,fsr2l
 14960  0038EC  C0AC  FFDA         	movff	_pBDTEntryIn+1,fsr2h
 14961  0038F0  0E04               	movlw	4
 14962  0038F2  D00D               	goto	L77
 14963  0038F4                     i2l337:
 14964                           
 14965                           ;usb_device.c: 2654: else
 14966                           ;usb_device.c: 2655: {
 14967                           ;usb_device.c: 2656: if(lastDTS == 0)
 14968  0038F4  661E               	tstfsz	USBCtrlTrfInHandler@lastDTS,c
 14969  0038F6  D006               	goto	i2l7049
 14970                           
 14971                           ;usb_device.c: 2657: {
 14972                           ;usb_device.c: 2658: pBDTEntryIn[0]->STAT.Val = 0x40|(0x08 & 0x08);
 14973  0038F8  C0AB  FFD9         	movff	_pBDTEntryIn,fsr2l
 14974  0038FC  C0AC  FFDA         	movff	_pBDTEntryIn+1,fsr2h
 14975  003900  0E48               	movlw	72
 14976  003902  D005               	goto	L77
 14977  003904                     i2l7049:
 14978                           
 14979                           ;usb_device.c: 2661: else
 14980                           ;usb_device.c: 2662: {
 14981                           ;usb_device.c: 2663: pBDTEntryIn[0]->STAT.Val = 0x00|(0x08 & 0x08);
 14982  003904  C0AB  FFD9         	movff	_pBDTEntryIn,fsr2l
 14983  003908  C0AC  FFDA         	movff	_pBDTEntryIn+1,fsr2h
 14984  00390C  0E08               	movlw	8
 14985  00390E                     L77:
 14986  00390E  6EDF               	movwf	indf2,c
 14987                           
 14988                           ;usb_device.c: 2664: pBDTEntryIn[0]->STAT.Val |= 0x80;
 14989  003910  C0AB  FFD9         	movff	_pBDTEntryIn,fsr2l
 14990  003914  C0AC  FFDA         	movff	_pBDTEntryIn+1,fsr2h
 14991  003918  0E00               	movlw	0
 14992  00391A  8EDB               	bsf	plusw2,7,c
 14993  00391C  D007               	goto	i2l344
 14994  00391E                     i2l336:
 14995                           
 14996                           ;usb_device.c: 2668: else
 14997                           ;usb_device.c: 2669: {
 14998                           ;usb_device.c: 2673: if(outPipes[0].info.bits.busy == 1)
 14999  00391E  0100               	movlb	0	; () banked
 15000  003920  AFA6               	btfss	(_outPipes+3)& (0+255),7,b	;volatile
 15001  003922  D002               	goto	i2l7055
 15002                           
 15003                           ; BSR set to: 0
 15004                           ;usb_device.c: 2678: }
 15005                           ;usb_device.c: 2679: outPipes[0].info.bits.busy = 0;
 15006                           
 15007                           ; BSR set to: 0
 15008                           ;usb_device.c: 2676: {
 15009                           ;usb_device.c: 2677: outPipes[0].pFunc();
 15010  003924  0100               	movlb	0	; () banked
 15011  003926  9FA6               	bcf	(_outPipes+3)& (0+255),7,b	;volatile
 15012  003928                     i2l7055:
 15013                           
 15014                           ; BSR set to: 0
 15015                           ;usb_device.c: 2680: }
 15016                           ;usb_device.c: 2682: controlTransferState = 0;
 15017  003928  0E00               	movlw	0
 15018  00392A  6E3C               	movwf	_controlTransferState,c	;volatile
 15019  00392C                     i2l344:
 15020  00392C  0012               	return	
 15021  00392E                     __end_of_USBCtrlTrfInHandler:
 15022                           	opt stack 0
 15023                           pclatu	equ	0xFFB
 15024                           pclath	equ	0xFFA
 15025                           tblptru	equ	0xFF8
 15026                           tblptrh	equ	0xFF7
 15027                           tblptrl	equ	0xFF6
 15028                           tablat	equ	0xFF5
 15029                           prodh	equ	0xFF4
 15030                           prodl	equ	0xFF3
 15031                           intcon	equ	0xFF2
 15032                           indf0	equ	0xFEF
 15033                           postinc0	equ	0xFEE
 15034                           fsr0h	equ	0xFEA
 15035                           fsr0l	equ	0xFE9
 15036                           wreg	equ	0xFE8
 15037                           indf1	equ	0xFE7
 15038                           fsr1h	equ	0xFE2
 15039                           fsr1l	equ	0xFE1
 15040                           bsr	equ	0xFE0
 15041                           indf2	equ	0xFDF
 15042                           postinc2	equ	0xFDE
 15043                           postdec2	equ	0xFDD
 15044                           plusw2	equ	0xFDB
 15045                           fsr2h	equ	0xFDA
 15046                           fsr2l	equ	0xFD9
 15047                           status	equ	0xFD8
 15048                           
 15049 ;; *************** function _USBCtrlTrfTxService *****************
 15050 ;; Defined at:
 15051 ;;		line 1785 in file "usb_device.c"
 15052 ;; Parameters:    Size  Location     Type
 15053 ;;		None
 15054 ;; Auto vars:     Size  Location     Type
 15055 ;;  byteToSend      1   28[COMRAM] unsigned char 
 15056 ;; Return value:  Size  Location     Type
 15057 ;;		None               void
 15058 ;; Registers used:
 15059 ;;		wreg, fsr1l, fsr1h, fsr2l, fsr2h, status,2, status,0, tblptrl, tblptrh, tblptru
 15060 ;; Tracked objects:
 15061 ;;		On entry : 0/0
 15062 ;;		On exit  : 0/0
 15063 ;;		Unchanged: 0/0
 15064 ;; Data sizes:     COMRAM   BANK0   BANK1   BANK2   BANK3   BANK4  BANK5h   BANK6   BANK7
 15065 ;;      Params:         0       0       0       0       0       0       0       0       0
 15066 ;;      Locals:         1       0       0       0       0       0       0       0       0
 15067 ;;      Temps:          0       0       0       0       0       0       0       0       0
 15068 ;;      Totals:         1       0       0       0       0       0       0       0       0
 15069 ;;Total ram usage:        1 bytes
 15070 ;; Hardware stack levels used:    1
 15071 ;; This function calls:
 15072 ;;		Nothing
 15073 ;; This function is called by:
 15074 ;;		_USBCtrlEPAllowDataStage
 15075 ;;		_USBCtrlTrfInHandler
 15076 ;; This function uses a non-reentrant model
 15077 ;;
 15078                           
 15079                           	psect	text54
 15080  003218                     __ptext54:
 15081                           	opt stack 0
 15082  003218                     _USBCtrlTrfTxService:
 15083                           	opt stack 19
 15084                           
 15085                           ;usb_device.c: 1787: uint8_t byteToSend;
 15086                           ;usb_device.c: 1791: byteToSend = 8;
 15087                           
 15088                           ;incstack = 0
 15089  003218  0E08               	movlw	8
 15090  00321A  6E1D               	movwf	USBCtrlTrfTxService@byteToSend,c
 15091                           
 15092                           ;usb_device.c: 1792: if(inPipes[0].wCount.Val < (uint8_t)8)
 15093  00321C  0E08               	movlw	8
 15094  00321E  0100               	movlb	0	; () banked
 15095  003220  5DC9               	subwf	(_inPipes+4)& (0+255),w,b	;volatile
 15096  003222  0E00               	movlw	0
 15097  003224  0100               	movlb	0	; () banked
 15098  003226  59CA               	subwfb	(_inPipes+5)& (0+255),w,b	;volatile
 15099  003228  B0D8               	btfsc	status,0,c
 15100  00322A  D00B               	goto	i2l6535
 15101                           
 15102                           ; BSR set to: 0
 15103                           ;usb_device.c: 1793: {
 15104                           ;usb_device.c: 1794: byteToSend = inPipes[0].wCount.Val;
 15105  00322C  C0C9  F01D         	movff	_inPipes+4,USBCtrlTrfTxService@byteToSend	;volatile
 15106                           
 15107                           ;usb_device.c: 1801: if(shortPacketStatus == 0)
 15108  003230  663E               	tstfsz	_shortPacketStatus,c	;volatile
 15109  003232  D002               	goto	i2l6531
 15110                           
 15111                           ; BSR set to: 0
 15112                           ;usb_device.c: 1802: {
 15113                           ;usb_device.c: 1803: shortPacketStatus = 1;
 15114  003234  0E01               	movlw	1
 15115  003236  D004               	goto	L78
 15116  003238                     i2l6531:
 15117                           
 15118                           ; BSR set to: 0
 15119                           ;usb_device.c: 1805: else if(shortPacketStatus == 1)
 15120  003238  043E               	decf	_shortPacketStatus,w,c	;volatile
 15121  00323A  A4D8               	btfss	status,2,c
 15122  00323C  D002               	goto	i2l6535
 15123                           
 15124                           ; BSR set to: 0
 15125                           ;usb_device.c: 1806: {
 15126                           ;usb_device.c: 1807: shortPacketStatus = 2;
 15127  00323E  0E02               	movlw	2
 15128  003240                     L78:
 15129  003240  6E3E               	movwf	_shortPacketStatus,c	;volatile
 15130  003242                     i2l6535:
 15131                           
 15132                           ; BSR set to: 0
 15133                           ;usb_device.c: 1808: }
 15134                           ;usb_device.c: 1809: }
 15135                           ;usb_device.c: 1813: inPipes[0].wCount.Val -= byteToSend;
 15136  003242  501D               	movf	USBCtrlTrfTxService@byteToSend,w,c
 15137  003244  0100               	movlb	0	; () banked
 15138  003246  5FC9               	subwf	(_inPipes+4)& (0+255),f,b	;volatile
 15139  003248  0E00               	movlw	0
 15140  00324A  0100               	movlb	0	; () banked
 15141  00324C  5BCA               	subwfb	(_inPipes+5)& (0+255),f,b	;volatile
 15142                           
 15143                           ; BSR set to: 0
 15144                           ;usb_device.c: 1818: pBDTEntryIn[0]->CNT = byteToSend;
 15145  00324E  0100               	movlb	0	; () banked
 15146  003250  EE20 F001          	lfsr	2,1
 15147  003254  0100               	movlb	0	; () banked
 15148  003256  51AB               	movf	_pBDTEntryIn& (0+255),w,b
 15149  003258  26D9               	addwf	fsr2l,f,c
 15150  00325A  0100               	movlb	0	; () banked
 15151  00325C  51AC               	movf	(_pBDTEntryIn+1)& (0+255),w,b
 15152  00325E  22DA               	addwfc	fsr2h,f,c
 15153  003260  C01D  FFDF         	movff	USBCtrlTrfTxService@byteToSend,indf2
 15154                           
 15155                           ; BSR set to: 0
 15156                           ;usb_device.c: 1822: pDst = (volatile uint8_t*)CtrlTrfData;
 15157  003264  0104               	movlb	4	; () banked
 15158  003266  0E04               	movlw	4	;volatile
 15159  003268  0100               	movlb	0	; () banked
 15160  00326A  6FC4               	movwf	(_pDst+1)& (0+255),b
 15161  00326C  0104               	movlb	4	; () banked
 15162  00326E  0E28               	movlw	40	;volatile
 15163  003270  0100               	movlb	0	; () banked
 15164  003272  6FC3               	movwf	_pDst& (0+255),b
 15165                           
 15166                           ; BSR set to: 0
 15167                           ;usb_device.c: 1823: if(inPipes[0].info.bits.ctrl_trf_mem == 0x00)
 15168  003274  0100               	movlb	0	; () banked
 15169  003276  A1C8               	btfss	(_inPipes+3)& (0+255),0,b	;volatile
 15170  003278  D01F               	goto	i2l6553
 15171  00327A  D03F               	goto	i2l6563
 15172  00327C                     i2l6545:
 15173                           
 15174                           ; BSR set to: 0
 15175                           ;usb_device.c: 1826: {
 15176                           ;usb_device.c: 1827: *pDst++ = *inPipes[0].pSrc.bRom++;
 15177  00327C  0100               	movlb	0	; () banked
 15178  00327E  C0C5  FFF6         	movff	_inPipes,tblptrl	;volatile
 15179  003282  0100               	movlb	0	; () banked
 15180  003284  C0C6  FFF7         	movff	_inPipes+1,tblptrh	;volatile
 15181  003288  6AF8               	clrf	tblptru,c
 15182  00328A  C0C3  FFD9         	movff	_pDst,fsr2l
 15183  00328E  C0C4  FFDA         	movff	_pDst+1,fsr2h
 15184  003292  0E07               	movlw	(high __ramtop+-1)
 15185  003294  64F7               	cpfsgt	tblptrh,c
 15186  003296  D003               	bra	i2u727_47
 15187  003298  0008               	tblrd		*
 15188  00329A  50F5               	movf	tablat,w,c
 15189  00329C  D005               	bra	i2u727_40
 15190  00329E                     i2u727_47:
 15191  00329E  CFF6 FFE1          	movff	tblptrl,fsr1l
 15192  0032A2  CFF7 FFE2          	movff	tblptrh,fsr1h
 15193  0032A6  50E7               	movf	indf1,w,c
 15194  0032A8                     i2u727_40:
 15195  0032A8  6EDF               	movwf	indf2,c
 15196  0032AA  0100               	movlb	0	; () banked
 15197  0032AC  4BC5               	infsnz	_inPipes& (0+255),f,b	;volatile
 15198  0032AE  2BC6               	incf	(_inPipes+1)& (0+255),f,b	;volatile
 15199                           
 15200                           ; BSR set to: 0
 15201  0032B0  0100               	movlb	0	; () banked
 15202  0032B2  4BC3               	infsnz	_pDst& (0+255),f,b
 15203  0032B4  2BC4               	incf	(_pDst+1)& (0+255),f,b
 15204                           
 15205                           ; BSR set to: 0
 15206                           ;usb_device.c: 1828: byteToSend--;
 15207  0032B6  061D               	decf	USBCtrlTrfTxService@byteToSend,f,c
 15208  0032B8                     i2l6553:
 15209                           
 15210                           ; BSR set to: 0
 15211  0032B8  661D               	tstfsz	USBCtrlTrfTxService@byteToSend,c
 15212  0032BA  D7E0               	goto	i2l6545
 15213  0032BC  D020               	goto	i2l248
 15214  0032BE                     i2l6555:
 15215                           
 15216                           ; BSR set to: 0
 15217                           ;usb_device.c: 1834: {
 15218                           ;usb_device.c: 1835: *pDst++ = *inPipes[0].pSrc.bRam++;
 15219  0032BE  0100               	movlb	0	; () banked
 15220  0032C0  C0C5  FFF6         	movff	_inPipes,tblptrl	;volatile
 15221  0032C4  0100               	movlb	0	; () banked
 15222  0032C6  C0C6  FFF7         	movff	_inPipes+1,tblptrh	;volatile
 15223  0032CA  6AF8               	clrf	tblptru,c
 15224  0032CC  C0C3  FFD9         	movff	_pDst,fsr2l
 15225  0032D0  C0C4  FFDA         	movff	_pDst+1,fsr2h
 15226  0032D4  0E07               	movlw	(high __ramtop+-1)
 15227  0032D6  64F7               	cpfsgt	tblptrh,c
 15228  0032D8  D003               	bra	i2u729_47
 15229  0032DA  0008               	tblrd		*
 15230  0032DC  50F5               	movf	tablat,w,c
 15231  0032DE  D005               	bra	i2u729_40
 15232  0032E0                     i2u729_47:
 15233  0032E0  CFF6 FFE1          	movff	tblptrl,fsr1l
 15234  0032E4  CFF7 FFE2          	movff	tblptrh,fsr1h
 15235  0032E8  50E7               	movf	indf1,w,c
 15236  0032EA                     i2u729_40:
 15237  0032EA  6EDF               	movwf	indf2,c
 15238  0032EC  0100               	movlb	0	; () banked
 15239  0032EE  4BC5               	infsnz	_inPipes& (0+255),f,b	;volatile
 15240  0032F0  2BC6               	incf	(_inPipes+1)& (0+255),f,b	;volatile
 15241                           
 15242                           ; BSR set to: 0
 15243  0032F2  0100               	movlb	0	; () banked
 15244  0032F4  4BC3               	infsnz	_pDst& (0+255),f,b
 15245  0032F6  2BC4               	incf	(_pDst+1)& (0+255),f,b
 15246                           
 15247                           ; BSR set to: 0
 15248                           ;usb_device.c: 1836: byteToSend--;
 15249  0032F8  061D               	decf	USBCtrlTrfTxService@byteToSend,f,c
 15250  0032FA                     i2l6563:
 15251                           
 15252                           ; BSR set to: 0
 15253  0032FA  661D               	tstfsz	USBCtrlTrfTxService@byteToSend,c
 15254  0032FC  D7E0               	goto	i2l6555
 15255  0032FE                     i2l248:
 15256                           
 15257                           ; BSR set to: 0
 15258  0032FE  0012               	return	
 15259  003300                     __end_of_USBCtrlTrfTxService:
 15260                           	opt stack 0
 15261                           pclatu	equ	0xFFB
 15262                           pclath	equ	0xFFA
 15263                           tblptru	equ	0xFF8
 15264                           tblptrh	equ	0xFF7
 15265                           tblptrl	equ	0xFF6
 15266                           tablat	equ	0xFF5
 15267                           prodh	equ	0xFF4
 15268                           prodl	equ	0xFF3
 15269                           intcon	equ	0xFF2
 15270                           indf0	equ	0xFEF
 15271                           postinc0	equ	0xFEE
 15272                           fsr0h	equ	0xFEA
 15273                           fsr0l	equ	0xFE9
 15274                           wreg	equ	0xFE8
 15275                           indf1	equ	0xFE7
 15276                           fsr1h	equ	0xFE2
 15277                           fsr1l	equ	0xFE1
 15278                           bsr	equ	0xFE0
 15279                           indf2	equ	0xFDF
 15280                           postinc2	equ	0xFDE
 15281                           postdec2	equ	0xFDD
 15282                           plusw2	equ	0xFDB
 15283                           fsr2h	equ	0xFDA
 15284                           fsr2l	equ	0xFD9
 15285                           status	equ	0xFD8
 15286                           pclatu	equ	0xFFB
 15287                           pclath	equ	0xFFA
 15288                           tblptru	equ	0xFF8
 15289                           tblptrh	equ	0xFF7
 15290                           tblptrl	equ	0xFF6
 15291                           tablat	equ	0xFF5
 15292                           prodh	equ	0xFF4
 15293                           prodl	equ	0xFF3
 15294                           intcon	equ	0xFF2
 15295                           indf0	equ	0xFEF
 15296                           postinc0	equ	0xFEE
 15297                           fsr0h	equ	0xFEA
 15298                           fsr0l	equ	0xFE9
 15299                           wreg	equ	0xFE8
 15300                           indf1	equ	0xFE7
 15301                           fsr1h	equ	0xFE2
 15302                           fsr1l	equ	0xFE1
 15303                           bsr	equ	0xFE0
 15304                           indf2	equ	0xFDF
 15305                           postinc2	equ	0xFDE
 15306                           postdec2	equ	0xFDD
 15307                           plusw2	equ	0xFDB
 15308                           fsr2h	equ	0xFDA
 15309                           fsr2l	equ	0xFD9
 15310                           status	equ	0xFD8
 15311                           
 15312                           	psect	rparam
 15313  0000                     pclatu	equ	0xFFB
 15314                           pclath	equ	0xFFA
 15315                           tblptru	equ	0xFF8
 15316                           tblptrh	equ	0xFF7
 15317                           tblptrl	equ	0xFF6
 15318                           tablat	equ	0xFF5
 15319                           prodh	equ	0xFF4
 15320                           prodl	equ	0xFF3
 15321                           intcon	equ	0xFF2
 15322                           indf0	equ	0xFEF
 15323                           postinc0	equ	0xFEE
 15324                           fsr0h	equ	0xFEA
 15325                           fsr0l	equ	0xFE9
 15326                           wreg	equ	0xFE8
 15327                           indf1	equ	0xFE7
 15328                           fsr1h	equ	0xFE2
 15329                           fsr1l	equ	0xFE1
 15330                           bsr	equ	0xFE0
 15331                           indf2	equ	0xFDF
 15332                           postinc2	equ	0xFDE
 15333                           postdec2	equ	0xFDD
 15334                           plusw2	equ	0xFDB
 15335                           fsr2h	equ	0xFDA
 15336                           fsr2l	equ	0xFD9
 15337                           status	equ	0xFD8


Data Sizes:
    Strings     0
    Constant    198
    Data        0
    BSS         71
    Persistent  0
    Stack       0

Auto Spaces:
    Space          Size  Autos    Used
    COMRAM           95     36      67
    BANK0           160     67     107
    BANK1           256     38      38
    BANK2           256      0       0
    BANK3           256      0       0
    BANK4           208      0       0
    BANK5h          128      0       0
    BANK6           256      0       0
    BANK7           256      0       0

Pointer List with Targets:

    USER_USB_CALLBACK_EVENT_HANDLER@pdata	PTR void  size(2) Largest target is 32
		 -> USTATcopy(COMRAM[1]), USBActiveConfiguration(COMRAM[1]), NULL(NULL[0]), BDT(BIGRAMl[32]), 

    memset@p1	PTR void  size(2) Largest target is 32
		 -> USBAlternateInterface(COMRAM[1]), BDT(BIGRAMl[32]), UEP1(ABS[1]), 

    memset@p	PTR unsigned char  size(2) Largest target is 32
		 -> USBAlternateInterface(COMRAM[1]), BDT(BIGRAMl[32]), UEP1(ABS[1]), 

    USBOutHandle	PTR volatile void  size(2) Largest target is 32
		 -> NULL(NULL[0]), BDT(BIGRAMl[32]), 

    USBInHandle	PTR volatile void  size(2) Largest target is 32
		 -> NULL(NULL[0]), BDT(BIGRAMl[32]), 

    USBStdFeatureReqHandler@pUEP	PTR unsigned char  size(2) Largest target is 1
		 -> UEP0(ABS[1]), 

    USBStdFeatureReqHandler@p	PTR struct __BDT size(2) Largest target is 32
		 -> NULL(NULL[0]), BDT(BIGRAMl[32]), 

    USBStdGetStatusHandler@p	PTR struct __BDT size(2) Largest target is 32
		 -> NULL(NULL[0]), BDT(BIGRAMl[32]), 

    USB_SD_Ptr	const PTR const unsigned char [3] size(2) Largest target is 52
		 -> sd002(CODE[46]), sd001(CODE[52]), sd000(CODE[4]), 

    USB_CD_Ptr	const PTR const unsigned char [1] size(2) Largest target is 41
		 -> configDescriptor1(CODE[41]), 

    pDst	PTR volatile unsigned char  size(2) Largest target is 8
		 -> CtrlTrfData(BIGRAMhl[8]), NULL(NULL[0]), 

    USBConfigureEndpoint@handle	PTR volatile struct __BDT size(2) Largest target is 32
		 -> BDT(BIGRAMl[32]), 

    pBDTEntryEP0OutCurrent	PTR volatile struct __BDT size(2) Largest target is 32
		 -> NULL(NULL[0]), BDT(BIGRAMl[32]), 

    pBDTEntryEP0OutNext	PTR volatile struct __BDT size(2) Largest target is 32
		 -> NULL(NULL[0]), BDT(BIGRAMl[32]), 

    USBTransferOnePacket@data	PTR unsigned char  size(2) Largest target is 64
		 -> ReceivedDataBuffer(BIGRAMhl[64]), ToSendDataBuffer(BIGRAMhl[64]), 

    sp__USBTransferOnePacket	PTR void  size(2) Largest target is 32
		 -> NULL(NULL[0]), BDT(BIGRAMl[32]), 

    USBTransferOnePacket@handle	PTR volatile struct __BDT size(2) Largest target is 32
		 -> NULL(NULL[0]), BDT(BIGRAMl[32]), 

    USBEnableEndpoint@p	PTR unsigned char  size(2) Largest target is 1
		 -> UEP0(ABS[1]), 

    pBDTEntryOut	PTR volatile struct __BDT[2] size(2) Largest target is 32
		 -> NULL(NULL[0]), BDT(BIGRAMl[32]), 

    pBDTEntryIn	PTR volatile struct __BDT[2] size(2) Largest target is 32
		 -> NULL(NULL[0]), BDT(BIGRAMl[32]), 

    S102$pFunc	PTR FTN()void  size(2) Largest target is 0

    outPipes.pFunc	PTR FTN()void  size(2) Largest target is 0

    S92$wRam	PTR unsigned int  size(2) Largest target is 0

    outPipes.pDst.wRam	PTR unsigned int  size(2) Largest target is 0

    S92$bRam	PTR unsigned char  size(2) Largest target is 0

    outPipes.pDst.bRam	PTR unsigned char  size(2) Largest target is 0

    S68$wRom	PTR const unsigned int  size(2) Largest target is 0

    inPipes.pSrc.wRom	PTR const unsigned int  size(2) Largest target is 0

    S68$wRam	PTR unsigned int  size(2) Largest target is 0

    inPipes.pSrc.wRam	PTR unsigned int  size(2) Largest target is 0

    S68$bRom	PTR const unsigned char  size(2) Largest target is 0

    inPipes.pSrc.bRom	PTR const unsigned char  size(2) Largest target is 0

    S68$bRam	PTR unsigned char  size(2) Largest target is 0

    inPipes.pSrc.bRam	PTR unsigned char  size(2) Largest target is 0

    sp__memset	PTR void  size(2) Largest target is 32
		 -> USBAlternateInterface(COMRAM[1]), BDT(BIGRAMl[32]), UEP1(ABS[1]), 


Critical Paths under _main in COMRAM

    None.

Critical Paths under _SYS_InterruptHigh in COMRAM

    i2_USBDeviceInit->i2_memset
    _USBCtrlEPAllowDataStage->_USBCtrlTrfTxService
    _USBStdSetCfgHandler->i2_memset
    _USBEnableEndpoint->_USBConfigureEndpoint
    _USBCtrlTrfOutHandler->_USBCtrlTrfRxService
    _USBCtrlTrfInHandler->_USBCtrlTrfTxService

Critical Paths under _ISRLowPriority in COMRAM

    _ISRLowPriority->i1_USBTransferOnePacket

Critical Paths under _main in BANK0

    _main->_APP_DeviceCustomHIDTasks
    _USBDeviceInit->_memset
    _APP_DeviceCustomHIDTasks->_I2cTransference
    _WriteSfr->_USBTransferOnePacket
    _Test->_USBTransferOnePacket
    _SpiTransference->_USBTransferOnePacket
    _SfrReadBitValue->_USBTransferOnePacket
    _ReadSfr->_USBTransferOnePacket
    _I2cTransference->_USBTransferOnePacket
    _AdcValue->_USBTransferOnePacket

Critical Paths under _SYS_InterruptHigh in BANK0

    _SYS_InterruptHigh->_USBDeviceTasks
    _USBDeviceTasks->_USBCtrlEPService
    _USBWakeFromSuspend->_USER_USB_CALLBACK_EVENT_HANDLER
    _USBSuspend->_USER_USB_CALLBACK_EVENT_HANDLER
    _USBCtrlTrfSetupHandler->_USBCheckStdRequest
    _USBCheckStdRequest->_USBStdFeatureReqHandler
    _USBStdSetCfgHandler->_USER_USB_CALLBACK_EVENT_HANDLER
    _USBStdFeatureReqHandler->_USER_USB_CALLBACK_EVENT_HANDLER
    _APP_DeviceCustomHIDInitialize->_USBEnableEndpoint

Critical Paths under _ISRLowPriority in BANK0

    None.

Critical Paths under _main in BANK1

    _APP_DeviceCustomHIDTasks->_Test

Critical Paths under _SYS_InterruptHigh in BANK1

    None.

Critical Paths under _ISRLowPriority in BANK1

    None.

Critical Paths under _main in BANK2

    None.

Critical Paths under _SYS_InterruptHigh in BANK2

    None.

Critical Paths under _ISRLowPriority in BANK2

    None.

Critical Paths under _main in BANK3

    None.

Critical Paths under _SYS_InterruptHigh in BANK3

    None.

Critical Paths under _ISRLowPriority in BANK3

    None.

Critical Paths under _main in BANK4

    None.

Critical Paths under _SYS_InterruptHigh in BANK4

    None.

Critical Paths under _ISRLowPriority in BANK4

    None.

Critical Paths under _main in BANK5h

    None.

Critical Paths under _SYS_InterruptHigh in BANK5h

    None.

Critical Paths under _ISRLowPriority in BANK5h

    None.

Critical Paths under _main in BANK6

    None.

Critical Paths under _SYS_InterruptHigh in BANK6

    None.

Critical Paths under _ISRLowPriority in BANK6

    None.

Critical Paths under _main in BANK7

    None.

Critical Paths under _SYS_InterruptHigh in BANK7

    None.

Critical Paths under _ISRLowPriority in BANK7

    None.

Call Graph Tables:

 ---------------------------------------------------------------------------------
 (Depth) Function   	        Calls       Base Space   Used Autos Params    Refs
 ---------------------------------------------------------------------------------
 (0) _main                                                 0     0      0  107321
           _APP_DeviceCustomHIDTasks
                  _SYSTEM_Initialize
                    _USBDeviceAttach
                      _USBDeviceInit
 ---------------------------------------------------------------------------------
 (1) _USBDeviceInit                                        1     1      0    1132
                                             50 BANK0      1     1      0
                             _memset
 ---------------------------------------------------------------------------------
 (2) _memset                                               8     2      6     930
                                             42 BANK0      8     2      6
 ---------------------------------------------------------------------------------
 (1) _USBDeviceAttach                                      0     0      0       0
 ---------------------------------------------------------------------------------
 (1) _SYSTEM_Initialize                                    1     1      0      22
                                             42 BANK0      1     1      0
 ---------------------------------------------------------------------------------
 (1) _APP_DeviceCustomHIDTasks                             3     3      0  106167
                                             64 BANK0      3     3      0
                    _AdcBufferedRead
                             _AdcCfg
                           _AdcValue
                       _AnalogCmpCfg
                             _CcpCfg
                           _EusartRx
                           _EusartTx
                             _I2cCfg
                    _I2cTransference
                              _PwmDc
                            _PwmFpwm
                            _ReadSfr
                  _SfrChangeBitValue
                    _SfrReadBitValue
                             _SpiCfg
                    _SpiTransference
                               _Test
               _USBTransferOnePacket
                           _WriteSfr
 ---------------------------------------------------------------------------------
 (2) _WriteSfr                                             7     7      0   13158
                                             49 BANK0      7     7      0
               _USBTransferOnePacket
 ---------------------------------------------------------------------------------
 (2) _Test                                                39    39      0   13756
                                             49 BANK0      1     1      0
                                              0 BANK1     38    38      0
               _USBTransferOnePacket
 ---------------------------------------------------------------------------------
 (2) _SpiTransference                                     13    13      0   13365
                                             49 BANK0     13    13      0
               _USBTransferOnePacket
 ---------------------------------------------------------------------------------
 (2) _SpiCfg                                               2     2      0       0
                                             42 BANK0      2     2      0
 ---------------------------------------------------------------------------------
 (2) _SfrReadBitValue                                      0     0      0   13053
               _USBTransferOnePacket
 ---------------------------------------------------------------------------------
 (2) _SfrChangeBitValue                                    0     0      0       0
 ---------------------------------------------------------------------------------
 (2) _ReadSfr                                              7     7      0   13158
                                             49 BANK0      7     7      0
               _USBTransferOnePacket
 ---------------------------------------------------------------------------------
 (2) _PwmFpwm                                              0     0      0       0
 ---------------------------------------------------------------------------------
 (2) _PwmDc                                                0     0      0       0
 ---------------------------------------------------------------------------------
 (2) _I2cTransference                                     15    15      0   13331
                                             49 BANK0     15    15      0
               _USBTransferOnePacket
 ---------------------------------------------------------------------------------
 (2) _I2cCfg                                               0     0      0       0
 ---------------------------------------------------------------------------------
 (2) _EusartTx                                             5     5      0      46
                                             42 BANK0      5     5      0
 ---------------------------------------------------------------------------------
 (2) _EusartRx                                             5     5      0      46
                                             42 BANK0      5     5      0
 ---------------------------------------------------------------------------------
 (2) _CcpCfg                                               0     0      0       0
 ---------------------------------------------------------------------------------
 (2) _AnalogCmpCfg                                         2     2      0       0
                                             42 BANK0      2     2      0
 ---------------------------------------------------------------------------------
 (2) _AdcValue                                             7     7      0   13164
                                             49 BANK0      7     7      0
               _USBTransferOnePacket
 ---------------------------------------------------------------------------------
 (3) _USBTransferOnePacket                                 7     3      4   13053
                                             42 BANK0      7     3      4
 ---------------------------------------------------------------------------------
 (2) _AdcCfg                                               2     2      0       0
                                             42 BANK0      2     2      0
 ---------------------------------------------------------------------------------
 (2) _AdcBufferedRead                                      0     0      0       0
 ---------------------------------------------------------------------------------
 Estimated maximum stack depth 3
 ---------------------------------------------------------------------------------
 (Depth) Function   	        Calls       Base Space   Used Autos Params    Refs
 ---------------------------------------------------------------------------------
 (4) _ISRLowPriority                                      21    21      0     434
                                              7 COMRAM    21    21      0
             i1_USBTransferOnePacket
 ---------------------------------------------------------------------------------
 (5) i1_USBTransferOnePacket                               7     3      4     410
                                              0 COMRAM     7     3      4
 ---------------------------------------------------------------------------------
 Estimated maximum stack depth 5
 ---------------------------------------------------------------------------------
 (Depth) Function   	        Calls       Base Space   Used Autos Params    Refs
 ---------------------------------------------------------------------------------
 (6) _SYS_InterruptHigh                                   14    14      0   34822
                                             28 BANK0     14    14      0
                     _USBDeviceTasks
 ---------------------------------------------------------------------------------
 (7) _USBDeviceTasks                                       1     1      0   34822
                                             27 BANK0      1     1      0
          _USBCtrlEPAllowStatusStage
                   _USBCtrlEPService
      _USBIncrement1msInternalTimers
                    _USBStallHandler
                         _USBSuspend
                 _USBWakeFromSuspend
    _USER_USB_CALLBACK_EVENT_HANDLER
                    i2_USBDeviceInit
 ---------------------------------------------------------------------------------
 (8) i2_USBDeviceInit                                      1     1      0     848
                                              0 BANK0      1     1      0
                           i2_memset
 ---------------------------------------------------------------------------------
 (8) _USBWakeFromSuspend                                   0     0      0    4575
    _USER_USB_CALLBACK_EVENT_HANDLER
 ---------------------------------------------------------------------------------
 (8) _USBSuspend                                           0     0      0    4575
    _USER_USB_CALLBACK_EVENT_HANDLER
 ---------------------------------------------------------------------------------
 (8) _USBStallHandler                                      0     0      0       0
 ---------------------------------------------------------------------------------
 (8) _USBIncrement1msInternalTimers                        0     0      0       0
 ---------------------------------------------------------------------------------
 (8) _USBCtrlEPService                                     3     3      0   20181
                                             24 BANK0      3     3      0
                _USBCtrlTrfInHandler
               _USBCtrlTrfOutHandler
             _USBCtrlTrfSetupHandler
 ---------------------------------------------------------------------------------
 (9) _USBCtrlTrfSetupHandler                               0     0      0   19745
                 _USBCheckStdRequest
           _USBCtrlEPServiceComplete
    _USER_USB_CALLBACK_EVENT_HANDLER
 ---------------------------------------------------------------------------------
 (10) _USBCtrlEPServiceComplete                            0     0      0     136
            _USBCtrlEPAllowDataStage
          _USBCtrlEPAllowStatusStage
 ---------------------------------------------------------------------------------
 (11) _USBCtrlEPAllowDataStage                             0     0      0     136
                _USBCtrlTrfTxService
 ---------------------------------------------------------------------------------
 (10) _USBCheckStdRequest                                  2     2      0   15034
                                             22 BANK0      2     2      0
            _USBStdFeatureReqHandler
                _USBStdGetDscHandler
             _USBStdGetStatusHandler
                _USBStdSetCfgHandler
    _USER_USB_CALLBACK_EVENT_HANDLER
 ---------------------------------------------------------------------------------
 (11) _USBStdSetCfgHandler                                 1     1      0    5262
                                             14 BANK0      1     1      0
    _USER_USB_CALLBACK_EVENT_HANDLER
                           i2_memset
 ---------------------------------------------------------------------------------
 (9) i2_memset                                             8     2      6     557
                                             28 COMRAM     8     2      6
 ---------------------------------------------------------------------------------
 (11) _USBStdGetStatusHandler                              3     3      0      68
                                             28 COMRAM     3     3      0
 ---------------------------------------------------------------------------------
 (11) _USBStdGetDscHandler                                 2     2      0       0
                                             28 COMRAM     2     2      0
 ---------------------------------------------------------------------------------
 (11) _USBStdFeatureReqHandler                             8     8      0    5129
                                             14 BANK0      8     8      0
    _USER_USB_CALLBACK_EVENT_HANDLER
 ---------------------------------------------------------------------------------
 (8) _USER_USB_CALLBACK_EVENT_HANDLER                      8     2      6    4575
                                              6 BANK0      8     2      6
      _APP_DeviceCustomHIDInitialize
                 _USBCheckHIDRequest
 ---------------------------------------------------------------------------------
 (9) _USBCheckHIDRequest                                   1     1      0       0
                                             28 COMRAM     1     1      0
 ---------------------------------------------------------------------------------
 (9) _APP_DeviceCustomHIDInitialize                        0     0      0    1424
                  _USBEnableEndpoint
             i2_USBTransferOnePacket
 ---------------------------------------------------------------------------------
 (10) i2_USBTransferOnePacket                              7     3      4     576
                                             28 COMRAM     7     3      4
 ---------------------------------------------------------------------------------
 (10) _USBEnableEndpoint                                   6     5      1     848
                                              0 BANK0      6     5      1
               _USBConfigureEndpoint
 ---------------------------------------------------------------------------------
 (11) _USBConfigureEndpoint                                8     7      1     524
                                             28 COMRAM     8     7      1
 ---------------------------------------------------------------------------------
 (9) _USBCtrlTrfOutHandler                                 0     0      0     167
                _USBCtrlTrfRxService
 ---------------------------------------------------------------------------------
 (10) _USBCtrlTrfRxService                                 2     2      0     167
                                             28 COMRAM     2     2      0
          _USBCtrlEPAllowStatusStage
 ---------------------------------------------------------------------------------
 (11) _USBCtrlEPAllowStatusStage                           0     0      0       0
 ---------------------------------------------------------------------------------
 (9) _USBCtrlTrfInHandler                                  1     1      0     170
                                             29 COMRAM     1     1      0
                _USBCtrlTrfTxService
 ---------------------------------------------------------------------------------
 (12) _USBCtrlTrfTxService                                 1     1      0     136
                                             28 COMRAM     1     1      0
 ---------------------------------------------------------------------------------
 Estimated maximum stack depth 12
 ---------------------------------------------------------------------------------

 Call Graph Graphs:

 _main (ROOT)
   _APP_DeviceCustomHIDTasks
     _AdcBufferedRead
     _AdcCfg
     _AdcValue
       _USBTransferOnePacket
     _AnalogCmpCfg
     _CcpCfg
     _EusartRx
     _EusartTx
     _I2cCfg
     _I2cTransference
       _USBTransferOnePacket
     _PwmDc
     _PwmFpwm
     _ReadSfr
       _USBTransferOnePacket
     _SfrChangeBitValue
     _SfrReadBitValue
       _USBTransferOnePacket
     _SpiCfg
     _SpiTransference
       _USBTransferOnePacket
     _Test
       _USBTransferOnePacket
     _USBTransferOnePacket
     _WriteSfr
       _USBTransferOnePacket
   _SYSTEM_Initialize
   _USBDeviceAttach
   _USBDeviceInit
     _memset

 _ISRLowPriority (ROOT)
   i1_USBTransferOnePacket

 _SYS_InterruptHigh (ROOT)
   _USBDeviceTasks
     _USBCtrlEPAllowStatusStage
     _USBCtrlEPService
       _USBCtrlTrfInHandler
         _USBCtrlTrfTxService
       _USBCtrlTrfOutHandler
         _USBCtrlTrfRxService
           _USBCtrlEPAllowStatusStage
       _USBCtrlTrfSetupHandler
         _USBCheckStdRequest
           _USBStdFeatureReqHandler
             _USER_USB_CALLBACK_EVENT_HANDLER
               _APP_DeviceCustomHIDInitialize
                 _USBEnableEndpoint
                   _USBConfigureEndpoint
                 i2_USBTransferOnePacket
               _USBCheckHIDRequest
           _USBStdGetDscHandler
           _USBStdGetStatusHandler
           _USBStdSetCfgHandler
             _USER_USB_CALLBACK_EVENT_HANDLER
               _APP_DeviceCustomHIDInitialize
                 _USBEnableEndpoint
                   _USBConfigureEndpoint
                 i2_USBTransferOnePacket
               _USBCheckHIDRequest
             i2_memset
           _USER_USB_CALLBACK_EVENT_HANDLER
             _APP_DeviceCustomHIDInitialize
               _USBEnableEndpoint
                 _USBConfigureEndpoint
               i2_USBTransferOnePacket
             _USBCheckHIDRequest
         _USBCtrlEPServiceComplete
           _USBCtrlEPAllowDataStage
             _USBCtrlTrfTxService
           _USBCtrlEPAllowStatusStage
         _USER_USB_CALLBACK_EVENT_HANDLER
           _APP_DeviceCustomHIDInitialize
             _USBEnableEndpoint
               _USBConfigureEndpoint
             i2_USBTransferOnePacket
           _USBCheckHIDRequest
     _USBIncrement1msInternalTimers
     _USBStallHandler
     _USBSuspend
       _USER_USB_CALLBACK_EVENT_HANDLER
         _APP_DeviceCustomHIDInitialize
           _USBEnableEndpoint
             _USBConfigureEndpoint
           i2_USBTransferOnePacket
         _USBCheckHIDRequest
     _USBWakeFromSuspend
       _USER_USB_CALLBACK_EVENT_HANDLER
         _APP_DeviceCustomHIDInitialize
           _USBEnableEndpoint
             _USBConfigureEndpoint
           i2_USBTransferOnePacket
         _USBCheckHIDRequest
     _USER_USB_CALLBACK_EVENT_HANDLER
       _APP_DeviceCustomHIDInitialize
         _USBEnableEndpoint
           _USBConfigureEndpoint
         i2_USBTransferOnePacket
       _USBCheckHIDRequest
     i2_USBDeviceInit
       i2_memset

 Address spaces:
Name               Size   Autos  Total    Cost      Usage
BIGRAMl            3FF      0       0      23        0.0%
BIGRAMhh           280      0       0      21        0.0%
EEDATA             100      0       0       0        0.0%
BITBANK7           100      0       0      19        0.0%
BANK7              100      0       0      20        0.0%
BITBANK6           100      0       0      17        0.0%
BANK6              100      0       0      18        0.0%
BITBANK3           100      0       0      10        0.0%
BANK3              100      0       0      11        0.0%
BITBANK2           100      0       0       8        0.0%
BANK2              100      0       0       9        0.0%
BITBANK1           100      0       0       6        0.0%
BANK1              100     26      26       7       14.8%
BIGRAMhl            D0      0       0      22        0.0%
BITBANK4            D0      0       0      12        0.0%
BANK4               D0      0       0      13        0.0%
BITBANK0            A0      0       0       4        0.0%
BANK0               A0     43      6B       5       66.9%
BANK5h              80      0       0      15        0.0%
BITBANK5h           80      0       0      14        0.0%
BITCOMRAM           5F      0       0       0        0.0%
COMRAM              5F     24      43       1       70.5%
BITSFR               0      0       0      40        0.0%
SFR                  0      0       0      40        0.0%
STACK                0      0       0       2        0.0%
NULL                 0      0       0       0        0.0%
ABS                  0      0      D4      16        0.0%
DATA                 0      0      D4       3        0.0%
CODE                 0      0       0       0        0.0%


Microchip Technology PIC18 Macro Assembler V1.32 build 58300 
Symbol Table                                                                                   Wed Jul 08 15:46:28 2015

                              _USB_SD_Ptr 0801                               _SSPSTATbits 000FC7  
                             __CFG_BOR$ON 000000                                        bsr 000FE0  
                       ??_AdcBufferedRead 008A                             _USBDeviceInit 1F26  
                             __CFG_BORV$3 000000                        __CFG_FOSC$XTPLL_XT 000000  
                      _USBCheckHIDRequest 2E44                              __CFG_CP0$OFF 000000  
                            __CFG_CP1$OFF 000000      USER_USB_CALLBACK_EVENT_HANDLER@event 0066  
    USER_USB_CALLBACK_EVENT_HANDLER@pdata 0068                                       l201 3FE8  
             __end_of_USBStdGetDscHandler 2A30                                       l179 303A  
                                     l622 279C                                       l198 3FE0  
                                     l199 3FDE                                       l730 22DA  
                                     l802 3E2E                                       l459 4094  
                                     l732 2386                                       l900 2C82  
                                     l804 3E34                                       l901 2C88  
                                     l805 3E60                                       l910 2CE8  
                                     l902 2C8E                                       l830 184A  
                                     l742 2444                                       l911 2CEE  
                                     l903 2C94                                       l912 2CF4  
                                     l904 2D3A                                       l744 24EA  
                                     l913 2CFA                                       l841 18E0  
                                     l833 1868                                       l825 1830  
                                     l762 34A0                                       l914 2D00  
                                     l906 2CD6                                       l851 1976  
                                     l843 18FE                                       l835 1886  
                                     l908 2CDC                                       _BDT 000400  
                                     l909 2CE2                                       l861 1A0C  
                                     l853 1994                                       l845 191C  
                                     l837 18A4                                       l782 2608  
                                     l942 1302                                       l855 19B2  
                                     l847 193A                                       l839 18C2  
                                     l952 134C                                       l880 1B28  
                                     l872 1B0C                                       l864 1AE4  
                                     l785 2648                                       l881 1B2C  
                                     l857 19D0                                       l849 1958  
                                     l946 130E                                       l938 12EE  
                                     l882 1B30                                       l874 1B10  
                                     l890 1C04                                       l963 1398  
                                     l955 1388                                       l883 1B34  
                                     l875 1B14                                       l859 19EE  
                                     l972 140E                                       l956 1358  
                                     l884 1B38                                       l876 1B18  
                                     l868 1AEE                                       l949 1708  
                                     l893 2CCE                                       l885 1B3C  
                                     l877 1B1C                                       l798 3D1A  
                                     l886 1B40                                       l878 1B20  
                                     l959 138C                                       l895 2C6A  
                                     l887 1B44                                       l879 1B24  
                                     l968 1402                                       l888 1B48  
                                     l985 14B4                                       l897 2C70  
                                     l978 1482                                       l898 2C76  
                                     l899 2C7C                                       l997 151C  
                                     l989 14C0                              __CFG_CPB$OFF 000000  
                                     _PR2 000FCB                                       _UIE 000F69  
                                     _UIR 000F68                                _USBSuspend 3F16  
                    USBStdSetCfgHandler@i 006E                                       prod 000FF3  
                                     wreg 000FE8                            _USBDeviceTasks 279E  
                     ?_USBCheckHIDRequest 0001                            _USBDeviceState 0037  
                   ??_USBCtrlTrfRxService 001D                  __size_ofi2_USBDeviceInit 0176  
                USBEnableEndpoint@options 0060                                      INDF0 000FEF  
                            __CFG_LVP$OFF 000000                              __CFG_WDT$OFF 000000  
                                    l1000 1558                                      l1001 1528  
                                    l1011 16CC                                      l1020 1694  
                                    l1004 155C                                      l1021 1696  
                                    l1022 1698                                      l1040 3E1C  
                                    l1032 3DF6                                      l1008 1568  
                                    l1017 1624                                      l1106 3326  
                                    l1042 3E22                                      l1034 3DF2  
                                    l1026 16CE                                      l1107 33BA  
                                    l1051 4016                                      l1038 3E20  
                                    l1062 3660                                      l1119 33D2  
                                    l1071 3674                                      l1055 3654  
                                    l1065 3668                                      l1074 367A  
                                    l1058 36C0                                      l1083 3B14  
                                    l1059 365A                                      l1068 366E  
                                    l1077 3680                                      l1088 3B2A  
                                    l1097 3BB4                USBConfigureEndpoint@handle 0023  
                                    l5021 3406                                      l5031 342C  
                                    l5023 340E                                      l5103 3CCA  
                                    l5033 3430                                      l5025 3416  
                                    l5041 343E                                      l5035 3434  
                                    l5027 341E                                      l5019 33FE  
                                    l5107 3CCE                                      l5037 3438  
                                    l5029 3428                                      l5109 3CD2  
                                    l5303 2D06                                      l5119 3E3C  
                                    l5093 3CC0                                      l5095 3CC4  
                                    l8101 26D4                                      l5551 3B1C  
                                    l5543 3BBE                                      l7311 1738  
                                    l7207 23B6                                      l8111 26F2  
                                    l8103 26DA                                      l7145 224C  
                                    l5297 2C9A                                      l7321 1786  
                                    l7313 1744                                      l7209 23C2  
                                    l8113 26F8                                      l8105 26E0  
                                    l5571 3348                                      l5467 3DFA  
                                    l5539 3B88                                      l7147 2258  
                                    l7403 1972                                      l8107 26E6  
                                    l5581 3370                                      l5573 3350  
                                    l5565 3330                                      l5557 3B4E  
                                    l5485 4000                                      l7421 19CC  
                                    l7333 17F8                                      l7325 17B4  
                                    l8109 26EC                                      l8117 26FE  
                                    l5575 3358                                      l5567 3338  
                                    l7271 2526                                      l7415 19AE  
                                    l7335 1804                                      l7327 17C0  
                                    l8119 276E                                      l5577 3360  
                                    l5569 3340                                      l5585 337A  
                                    l7601 15AE                                      l7433 1A08  
                                    l7409 1990                                      l7361 18A0  
                                    l7249 249A                                      l8081 2698  
                                    l8073 267A                                      l4793 3EEC  
                                    l5913 1F70                                      l5579 3368  
                                    l5587 33C0                                      l7291 25DA  
                                    l7283 2596                                      l7611 16A4  
                                    l7531 13D6                                      l7187 2330  
                                    l7451 1AEA                                      l7427 19EA  
                                    l7355 1882                                      l7443 1A2A  
                                    l8091 26B6                                      l8083 269E  
                                    l8075 2686                                      l8139 3FAC  
                                    l7293 25E6                                      l7285 25A2  
                                    l7269 251A                                      l7541 1422  
                                    l7509 133E                                      l7613 16D4  
                                    l7453 1AF2                                      l7373 18DC  
                                    l7445 1A8E                                      l7349 1864  
                                    l7461 1BB6                                      l8093 26BC  
                                    l8085 26A4                                      l4797 3F00  
                                    l5941 1FDE                                      l5925 1FA4  
                                    l7279 2568                                      l7471 1220  
                                    l7439 1A26                                      l7391 1936  
                                    l7367 18BE                                      l7463 1BD6  
                                    l7703 0A64                                      l8095 26C2  
                                    l8087 26AA                                      l8079 2692  
                                    l7529 13C8                                      l7457 1B4C  
                                    l7385 1918                                      l7721 0B16  
                                    l8097 26C8                                      l8089 26B0  
                                    l7571 14F0                                      l7539 141C  
                                    l7491 12D4                                      l7483 1290  
                                    l7459 1BB0                                      l7379 18FA  
                                    l7811 0E9C                                      l7803 0E52  
                                    l7731 0B82                                      l7715 0ADC  
                                    l7707 0A92                                      l8099 26CE  
                                    l7549 1478                                      l7493 12E0  
                                    l7485 129C                                      l7469 1214  
                                    l7653 3684                                      l7397 1954  
                                    l7805 0E5E                                      l7733 0B8E  
                                    l7709 0A9E                                      l6951 2F64  
                                    l7559 14A2                                      l7479 1262  
                                    l7823 0F14                                      l7815 0ECA  
                                    l7751 0C44                                      l7743 0BFA  
                                    l7727 0B54                                      l7719 0B0A  
                                    l7671 092A                                      l7577 150A  
                                    l7657 368C                                      l7841 0FC6  
                                    l7817 0ED6                                      l7745 0C06  
                                    l7673 0936                                      l6971 3014  
                                    l7851 1032                                      l7835 0F8C  
                                    l7827 0F42                                      l7763 0CBC  
                                    l7755 0C72                                      l7739 0BCC  
                                    l7691 09EC                                      l7683 09A2  
                                    l7667 08FC                                      l7597 1598  
                                    l7853 103E                                      l7829 0F4E  
                                    l7781 0D6E                                      l7757 0C7E  
                                    l7685 09AE                                      l6959 2F9E  
                                    l7871 10F4                                      l7863 10AA  
                                    l7847 1004                                      l7839 0FBA  
                                    l7791 0DDA                                      l7775 0D34  
                                    l7767 0CEA                                      l7695 0A1A  
                                    l7679 0974                                      l7865 10B6  
                                    l7793 0DE6                                      l7769 0CF6  
                                    l7697 0A26                                      l7883 116C  
                                    l7875 1122                                      l7859 107C  
                                    l7787 0DAC                                      l7779 0D62  
                                    l7877 112E                                      l7887 119A  
                                    l7799 0E24                                      l7889 11A6  
                                    _IPR1 000F9F                                      _IPR2 000FA2  
                                    u8210 23A4                                      u8060 223A  
                   ??_USBCtrlTrfTxService 001D                                      u9200 15CA  
                                    u9210 15DA                                      u8218 23A8  
                                    u8420 25C8                                      u9220 15EA  
                                    u8068 223E                                      u9230 15FA  
                                    _UCFG 000F6F                                      u8360 2508  
                                    u9240 1606                                      u9208 15CE  
                                    u8520 17E6                                      u9400 0918  
                                    u9218 15DE                                      u8428 25CC  
                                    u9228 15EE                                      u8460 1726  
                                    _UEP0 000F70                                      _UEP1 000F71  
                                    u8390 2584                                      u9246 1608  
                                    u9238 15FE                                      u9190 15BA  
                                    u9430 0990                                      u8368 250C  
                                    u8528 17EA                                      u9520 0AF8  
                                    u9408 091C                                      u8490 17A2  
                                    u9610 0C60                                      u9275 168C  
                                    _UEIE 000F6B                                      u8820 12C2  
                                    u8468 172A                                      u9700 0DC8  
                                    u9460 0A08                                      u8398 2588  
                                    u9198 15BE                                      u9550 0B70  
                                    u9438 0994                                      u8760 1202  
                                    u9640 0CD8                                      u9528 0AFC  
                                    u8498 17A6                                      u9730 0E40  
                                    u9618 0C64                                      u9490 0A80  
                                    u8828 12C6                                      u9820 0FA8  
                                    u9708 0DCC                                      u9580 0BE8  
                                    u9468 0A0C                                      u8790 127E  
                                    u9910 1110                                      u9670 0D50  
                                    u9558 0B74                                      u8768 1206  
                                    u9760 0EB8                                      u9648 0CDC  
                                    _UEIR 000F6A                                      _UCON 000F6D  
                                    u9850 1020                                      u9738 0E44  
                                    u9498 0A84                                      u9940 1188  
                                    u9828 0FAC                                      u9588 0BEC  
                                    u8798 1282                                      u9918 1114  
                                    u9790 0F30                                      u9678 0D54  
                                    u9880 1098                                      u9768 0EBC  
                                    u9858 1024                                      u9948 118C  
                                    u9798 0F34                                      u9888 109C  
                                    _Test 08C8    USBStdFeatureReqHandler@current_ep_data 0073  
                                    _pDst 00C3                                      _main 3F86  
                ??i2_USBTransferOnePacket 0021                                      fsr0h 000FEA  
                                    fsr1h 000FE2                                      fsr0l 000FE9  
                                    fsr2h 000FDA                                      indf1 000FE7  
                                    fsr1l 000FE1                                      indf2 000FDF  
                                    fsr2l 000FD9                           _USBDeviceAttach 3FBC  
                                    pclat 000FFA                                      prodh 000FF4  
                                    prodl 000FF3                                      start 019A  
                           __CFG_IESO$OFF 000000                      ??_USBCheckHIDRequest 001D  
              __end_of_USBCheckStdRequest 2E44                    ??_USBCtrlTrfOutHandler 001F  
               ??_USBStdFeatureReqHandler 006E                              _USBOutHandle 00BD  
                        I2cTransference@i 009C                           __end_of_ReadSfr 2388  
                ??_USBStdGetStatusHandler 001D                            ?_USBDeviceInit 0001  
                           __CFG_PLLDIV$1 000000                           __end_of_PwmFpwm 40AA  
                                   ?_Test 0001                                     ?_main 0001  
       __size_of_USBCtrlEPServiceComplete 00F0                                     _CMCON 000FB4  
                                   u10307 185A                                     u10260 2668  
                                   u10317 1878                                     u10407 1986  
                                   u10327 1896                                     u10417 19A4  
                                   u10337 18B4                                     u10427 19C2  
                                   u10347 18D2                                     u10268 266C  
                                   u10437 19E0                                     u10357 18F0  
                                   u10447 19FE                                     u10367 190E  
                                   u10457 1A1C                                     u10377 192C  
                  __end_of_USBDeviceTasks 28F2                                     u10387 194A  
                                   u10397 1968                                     _INDF0 000FEF  
               ?_USBCtrlEPServiceComplete 0001                                     _FSR0H 000FEA  
                                   _FSR0L 000FE9                                     i1l179 356A  
                                   i2l223 30B6                                     i2l320 3216  
                                   i2l160 28EE                                     i2l209 3886  
                                   i2l233 312A                                     i2l161 286E  
                                   i2l330 3DD0                                     i1l476 0154  
                                   i2l261 2B3C                                     i2l350 2D54  
                                   i2l248 32FE                                     i2l344 392C  
                                   i2l336 391E                                     i2l416 2F42  
                                   i2l337 38F4                                     i2l282 2A2E  
                                   i2l290 371C                                     i2l179 3634  
                                   i2l275 291E                                     i2l291 3722  
                                   i2l348 2E42                                     i2l286 370C  
                                   i2l527 3CB8                                     i2l359 2DB8  
                                   i2l384 1E60                                     i2l296 37C2  
                                   i2l289 37A2                                     i2l393 407E  
                                   i2l299 3EDA                                     i2l388 1F24  
                                   _UADDR 000F6E                                     _RCREG 000FAE  
                           __CFG_USBDIV$2 000000                                     _TRISA 000F92  
                                   _TRISB 000F93                                     _USTAT 000F6C  
                                   _TXREG 000FAD                             __CFG_PWRT$OFF 000000  
                           __CFG_WRT0$OFF 000000        __size_of_USBCtrlEPAllowStatusStage 00C4  
                           __CFG_WRT1$OFF 000000                            __CFG_EBTR0$OFF 000000  
                          __CFG_FCMEN$OFF 000000                            __CFG_EBTR1$OFF 000000  
                                   _PwmDc 3FEA           __end_of_USBCtrlEPAllowDataStage 3A6A  
                                   _sd000 08C3                                     _sd001 0809  
                                   _sd002 083D                             __CFG_WRTB$OFF 000000  
          ?_USBIncrement1msInternalTimers 0001                             __CFG_WRTC$OFF 000000  
                          __CFG_EBTRB$OFF 000000                                i2memset@p1 001D  
                        __end_of_AdcValue 264A                          SpiTransference@i 009C  
                                   tablat 000FF5                                     plusw2 000FDB  
                                   status 000FD8                          __end_ofi2_memset 4044  
            __size_of_USBStdSetCfgHandler 0106                            __CFG_MCLRE$OFF 000000  
                         __initialization 4044                              __end_of_Test 11E6  
                            __end_of_main 3FBC                            _ISRLowPriority 0018  
                        __end_of_EusartRx 3B7A                          __end_of_EusartTx 3BE8  
                                  ??_Test 0091                 __size_of_USBCtrlEPService 00EC  
                                  ??_main 00A3                             __activetblptr 000002  
                         ?_USBDeviceTasks 0001                         WriteSfr@FSR0Htemp 0094  
                   __size_of_AnalogCmpCfg 0062                         WriteSfr@FSR0Ltemp 0092  
                             ?_USBSuspend 0001                                    ?_PwmDc 0001  
                __size_of_SfrReadBitValue 00C8                             _WriteSfr$3339 0096  
                 __end_of_USBDeviceAttach 3FEA                                    _ADCON0 000FC2  
                                  _ADCON1 000FC1                                    _ADCON2 000FC0  
                                  _ADRESH 000FC4                                    _ADRESL 000FC3  
                                  _CCPR1L 000FBE                                    _CCPR2L 000FBB  
                                  _I2cCfg 40AA                    SYSTEM_Initialize@state 008A  
                        __end_of_WriteSfr 24EC                                    i1l6211 00A4  
                                  i1l6153 34EA                                    i1l6145 34BC  
                                  i1l6209 009C                                    i1l6165 354A  
                                  i1l6229 0110                                    i2l7031 38B8  
                                  i2l7007 3D86                                    i2l7103 3ED8  
                                  i2l7033 38BC                                    i2l7017 3DCC  
                                  i2l6403 3D32                                    i2l7123 318C  
                                  i2l8011 280E                                    i2l8005 27DE  
                                  i2l7055 3928                                    i2l6407 3D44  
                                  i2l6423 35B4                                    i2l6415 3586  
                                  i2l7135 31FA                                    i2l8023 2822  
                                  i2l7049 3904                                    i2l6513 3C62  
                                  i2l7137 3200                                    i2l7065 3E94  
                                  i2l6531 3238                                    i2l6435 3614  
                                  i2l6507 3C56                                    i2l7067 3E96  
                                  i2l6461 2E82                                    i2l6453 2E66  
                                  i2l6509 3C5C                                    i2l8037 285C  
                                  i2l8029 282C                                    i2l6535 3242  
                                  i2l6471 2EB4                                    i2l6623 3A32  
                                  i2l8063 28BA                                    i2l6545 327C  
                                  i2l6553 32B8                                    i2l6393 3AD2  
                                  i2l6481 2EE2                                    i2l6801 1E84  
                                  i2l8065 28E2                                    i2l8057 2898  
                                  i2l6555 32BE                                    i2l6563 32FA  
                                  i2l6491 2F0E                                    i2l6475 2EC6  
                                  i2l6571 4032                                    i2l6643 2B88  
                                  i2l6619 3A16                                    i2l6485 2EEE  
                                  i2l6469 2EA2                                    i2l6709 3746  
                                  i2l6807 1EDE                                    i2l6719 378A  
                                  i2l6567 4022                                    i2l6823 3056  
                                  i2l6497 2F1A                                    i2l8273 3C80  
                                  i2l6809 1EEA                                    i2l6761 1D20  
                                  i2l6753 1CBE                                    i2l6737 1C2C  
                                  i2l6673 2904                                    i2l6665 2C16  
                                  i2l6841 30C8                                    i2l8275 3CB2  
                                  i2l6739 1C30                                    i2l6931 2D84  
                                  i2l6915 2D5E                                    i2l6827 3060  
                                  i2l6589 380C                                    i2l6781 1DE8  
                                  i2l6765 1D44                                    i2l6693 2A0E  
                                  i2l6685 29B0                                    i2l6941 2DD6  
                                  i2l6917 2D64                                    i2l6791 1E3C  
                                  i2l6775 1DAA                                    i2l6759 1D1C  
                                  i2l6927 2D78                                    i2l6919 2D6A  
                                  i2l6793 1E48                                    i2l6777 1DCE  
                                  i2l6697 2A16                                    i2l6929 2D7E  
                                  i2l6945 2E00                                    i2l6849 30DA  
                                  i2l7913 20E6                                    i2l6883 2A8C  
                                  i2l6877 2A64                                    i2l7941 2154  
                                  i2l7925 211A                                    i2l6895 2ADA  
                                  i2l6899 2AF4                                    i2l7985 27BE  
                                  i2l7977 27B2                                    i2l7999 27D4  
         ??_APP_DeviceCustomHIDInitialize 0025                                    _AdcCfg 33D4  
                                  _SSPADD 000FC8                                    _SSPBUF 000FC9  
            i1USBTransferOnePacket@handle 0006                                    _CcpCfg 3DD2  
                i2USBTransferOnePacket@ep 0021                         ??i2_USBDeviceInit 0025  
         __size_ofi2_USBTransferOnePacket 00CA                            __CFG_VREGEN$ON 000000  
                               ??_ReadSfr 0091                         _shortPacketStatus 003E  
                          __CFG_XINST$OFF 000000                                    _SpiCfg 3E24  
                         USBDeviceTasks@i 007B                                 ??_PwmFpwm 008A  
             USBStdFeatureReqHandler@pUEP 0071                  USBTransferOnePacket@data 008B  
              USBCtrlTrfInHandler@lastDTS 001E                           ??_USBDeviceInit 0092  
                  __end_of_ISRLowPriority 019A                            __CFG_STVREN$ON 000000  
                            _AnalogCmpCfg 3CBA                         _USBEnableEndpoint 3D1C  
         __size_of_USBStdGetStatusHandler 00C6                                    _memset 3EDE  
                                  clear_0 404A                                    clear_1 4056  
                      ?_USBEnableEndpoint 0060             __size_of_USBTransferOnePacket 00F8  
                         _I2cTransference 11E6                              __mediumconst 0000  
                                  tblptrh 000FF7                                    tblptrl 000FF6  
                                  tblptru 000FF8                       ??_USBEnableEndpoint 0061  
                   I2cTransference@i_3432 009E                               _CtrlTrfData 000428  
                    _controlTransferState 003C                ??_APP_DeviceCustomHIDTasks 00A0  
                       _SYSTEM_Initialize 4080                                __accesstop 0060  
                 __end_of__initialization 405C                i1USBTransferOnePacket@data 0002  
                         __CFG_PBADEN$OFF 000000                        ?_SYSTEM_Initialize 0001  
                         _AdcBufferedRead 3300                      _I2cTransference$3420 0096  
                    _I2cTransference$3421 0098                      _I2cTransference$3422 009A  
                __size_of_USBStallHandler 003E                       __size_of_USBSuspend 0038  
                  SpiTransference@counter 009A                            __pcstackCOMRAM 0001  
               __end_of_USBEnableEndpoint 3D78                             __end_of_PwmDc 4018  
                           __end_of_sd000 08C7                             __end_of_sd001 083D  
                           __end_of_sd002 086B                           ?_ISRLowPriority 0001  
                     ??_SYSTEM_Initialize 008A          __size_of_USBCtrlEPAllowDataStage 009E  
                         _active_protocol 0042             __size_of_USBConfigureEndpoint 009E  
             __end_of_USBCtrlTrfInHandler 392E                                 ?_AdcValue 0001  
                  i2_USBTransferOnePacket 356C                                 ?i2_memset 001D  
                                 ??_PwmDc 008A                  ??_USBCtrlTrfSetupHandler 0025  
                 _USBTicksSinceSuspendEnd 003B                          ?_USBDeviceAttach 0001  
               __end_of_SYSTEM_Initialize 4096                    _USBStdGetStatusHandler 36FE  
                                 ?_I2cCfg 0001                                __pbssBANK0 00A3  
                                 ?_AdcCfg 0001                         ??_SfrReadBitValue 0091  
                               ?_EusartRx 0001                                 ?_EusartTx 0001  
                                 ?_CcpCfg 0001               __size_of_USBWakeFromSuspend 003E  
                             _pBDTEntryIn 00AB          __end_of_USBCtrlEPServiceComplete 312C  
   __end_of_APP_DeviceCustomHIDInitialize 3F86    __size_of_APP_DeviceCustomHIDInitialize 0038  
           _APP_DeviceCustomHIDInitialize 3F4E                                   ?_SpiCfg 0001  
                    USBCtrlTrfRxService@i 001D                  __size_of_SpiTransference 04FC  
                 __end_of_I2cTransference 170A                                   _CCP1CON 000FBD  
                                 _CCP2CON 000FBA                                   ?_memset 008A  
                              ??_AdcValue 0091                                _device_dsc 08B1  
                        _USBCtrlEPService 312C                                _ep_data_in 00BF  
                               ?_WriteSfr 0001             _APP_DeviceCustomHIDTasks$2368 00A1  
             __end_of_USBCtrlTrfRxService 2B3E                        _USBCheckStdRequest 2D44  
                       _configDescriptor1 086B                                ??i2_memset 0023  
             __end_of_USBCtrlTrfTxService 3300                       _USBStdSetCfgHandler 2B3E  
                                 _SSPCON1 000FC6                       ?_USBCheckStdRequest 0001  
            __size_of_USBStdGetDscHandler 013E                                   _UIEbits 000F69  
                 __end_of_AdcBufferedRead 33D4                                 _ADCON0Tmp 00B3  
                               _ADCON2Tmp 00B5                                   _SSPSTAT 000FC7  
                                 _UIRbits 000F68                           __size_of_I2cCfg 0012  
                ??i1_USBTransferOnePacket 0005                                ??_EusartRx 008A  
                              ??_EusartTx 008A                           __size_of_AdcCfg 00CE  
                         __size_of_CcpCfg 0052                                   _ReadSfr 221E  
                                 __Hparam 0000           ??_USBIncrement1msInternalTimers 001D  
                    ?_USBStdSetCfgHandler 0001               __size_of_USBCheckHIDRequest 0100  
                                 __Lparam 0000                         __end_of_hid_rpt01 08B1  
                         __size_of_SpiCfg 003E                                   _PwmFpwm 4096  
              __size_of_USBEnableEndpoint 005C                      ??_USBCheckStdRequest 0076  
           __size_of_USBCtrlTrfOutHandler 005A                          _ToSendDataBuffer 000540  
                        ??_USBDeviceTasks 0025                         ??_USBStallHandler 001D  
                               _CMCONbits 000FB4                              __psmallconst 0800  
                                 __pcinit 4044                           __size_of_memset 0038  
               __end_of_configDescriptor1 0894                                   __ramtop 0800  
                              ??_WriteSfr 0091                                   __ptext0 3F86  
                                 __ptext1 1F26                                   __ptext2 3EDE  
                                 __ptext3 3FBC                                   __ptext4 4080  
                                 __ptext5 264A                                   __ptext6 2388  
                                 __ptext7 08C8                                   __ptext8 170A  
                                 __ptext9 3E24                                   _inPipes 00C5  
             _USBDeferOUTDataStagePackets 0035                              ??_USBSuspend 0025  
                               _T2CONbits 000FCA                           i2_USBDeviceInit 20A8  
                        i2USBDeviceInit@i 0060                                 _FSR0Htemp 00B9  
                               _FSR0Ltemp 00BB                        __end_of_USB_CD_Ptr 0809  
              __size_of_SYSTEM_Initialize 0016           __size_of_USBCtrlTrfSetupHandler 009E  
                          __pintcode_body 3BE8                      end_of_initialization 405C  
                      __end_of_USB_SD_Ptr 0807                       _pBDTEntryEP0OutNext 002F  
                                 memset@c 008C                                   memset@n 008E  
                                 memset@p 0090                             __Lmediumconst 0000  
                                 int_func 3BE8                           _USB1msTickCount 0025  
                ?_USBStdFeatureReqHandler 0001                     ??_USBStdSetCfgHandler 0025  
                      __end_of_USBSuspend 3F4E                   _USBCtrlEPAllowDataStage 39CC  
                               _RCSTAbits 000FAB                                   postdec2 000FDD  
                                 postinc0 000FEE                                   postinc2 000FDE  
                _USBCtrlEPServiceComplete 303C                          ?_I2cTransference 0001  
              _USBStatusStageEnabledFlag1 0038                _USBStatusStageEnabledFlag2 0039  
                      USBEnableEndpoint@p 0063                         ??_SpiTransference 0091  
                          _BufferPingPong 00B7                                 _TRISAbits 000F92  
                               _TRISBbits 000F93                                 _TRISCbits 000F94  
                      _ReceivedDataBuffer 000500                        _BothEP0OutUOWNsSet 0031  
               USBConfigureEndpoint@EPNum 0022                ?_USBCtrlEPAllowStatusStage 0001  
                        ?_AdcBufferedRead 0001       USER_USB_CALLBACK_EVENT_HANDLER@size 006A  
                               _USTATcopy 0041                            __end_of_I2cCfg 40BC  
                i1USBTransferOnePacket@ep 0005              __end_of_USBTransferOnePacket 303C  
         __size_ofi1_USBTransferOnePacket 00CA                                 _TXSTAbits 000FAC  
                        ??_ISRLowPriority 0008                            __end_of_AdcCfg 34A2  
                          __end_of_CcpCfg 3E24                              _ReadSfr$3335 0096  
                        ReadSfr@FSR0Htemp 0094                          ReadSfr@FSR0Ltemp 0092  
                  _USBCtrlTrfSetupHandler 392E                            __end_of_SpiCfg 3E62  
                               EusartRx@n 008D                                 EusartTx@n 008D  
                 ?i2_USBTransferOnePacket 001D                     __end_of_USBDeviceInit 20A8  
   __end_of_USBIncrement1msInternalTimers 4080    __size_of_USBIncrement1msInternalTimers 001A  
           _USBIncrement1msInternalTimers 4066                   __end_ofi2_USBDeviceInit 221E  
                               i2memset@c 001F                                 i2memset@n 0021  
                               i2memset@p 0023                            __end_of_memset 3F16  
                       __size_of_AdcValue 015E                         _USBBusIsSuspended 0033  
                     start_initialization 4044                           _SfrReadBitValue 3636  
                 ?_USBStdGetStatusHandler 0001             USBCtrlTrfRxService@byteToRead 001E  
                       __size_ofi2_memset 002C              __end_of_USBConfigureEndpoint 3B08  
                                ??_I2cCfg 008A           __end_of_USBStdFeatureReqHandler 1F26  
                               _Test$3480 0110                                 _Test$3472 0100  
                               _Test$3481 0112                                 _Test$3473 0102  
                               _Test$3490 0124                                 _Test$3482 0114  
                               _Test$3474 0104                                 _Test$3483 0116  
                               _Test$3475 0106                                 _Test$3484 0118  
                               _Test$3476 0108                                 _Test$3485 011A  
                               _Test$3477 010A         __end_of_USBCtrlEPAllowStatusStage 3888  
                               _Test$3486 011C                                 _Test$3478 010C  
                               _Test$3487 011E                                 _Test$3479 010E  
                               _Test$3488 0120                                 _Test$3489 0122  
                __end_of_USBCtrlEPService 3218                                  ??_AdcCfg 008A  
                                ??_CcpCfg 008A                 ??_USBCtrlEPAllowDataStage 001E  
                          USBDeviceInit@i 0092                         __size_of_EusartRx 0072  
                       __size_of_EusartTx 006E                                  ??_SpiCfg 008A  
                  _pBDTEntryEP0OutCurrent 002D                   USBTransferOnePacket@dir 008A  
                 USBTransferOnePacket@len 008D                      _SpiTransference$3367 0094  
                    _SpiTransference$3368 0096                      _SpiTransference$3369 0098  
          __end_ofi2_USBTransferOnePacket 3636                       _USBStdGetDscHandler 28F2  
       __size_of_APP_DeviceCustomHIDTasks 0154                 ?_APP_DeviceCustomHIDTasks 0001  
                        __CFG_LPT1OSC$OFF 000000                                  ??_memset 0090  
                  i1_USBTransferOnePacket 34A2                    _USBActiveConfiguration 003F  
          __end_of_USBStdGetStatusHandler 37C4                 i1USBTransferOnePacket@dir 0001  
               i1USBTransferOnePacket@len 0004                         __size_of_WriteSfr 0164  
                             __pbssCOMRAM 0025                       _ISRLowPriority$1906 001B  
                           __pcstackBANK0 0060                             __pcstackBANK1 0100  
            __size_of_USBCtrlTrfInHandler 00A6                      ?_USBStdGetDscHandler 0001  
              __end_of_USBWakeFromSuspend 3EA0                           _USBStallHandler 3EA0  
                            _pBDTEntryOut 00AF                                  ?_ReadSfr 0001  
                __size_of_USBDeviceAttach 002E                                  ?_PwmFpwm 0001  
                               __pintcode 0008                                 _hid_rpt01 0894  
                 __end_of_SfrReadBitValue 36FE                               __pintcodelo 0018  
                               _idle_rate 0043                          ?i2_USBDeviceInit 0001  
                    _USBTransferOnePacket 2F44                               __smallconst 0800  
                          __size_of_PwmDc 002E              __end_of_USBCtrlTrfOutHandler 3DD2  
                   ??_USBStdGetDscHandler 001D                               _ep_data_out 00C1  
            __size_of_USBCtrlTrfRxService 010E             USBConfigureEndpoint@direction 001D  
            __size_of_USBCtrlTrfTxService 00E8                                  _LATAbits 000F89  
                                _LATBbits 000F8A                                  _LATCbits 000F8B  
              __end_of_USBCheckHIDRequest 2F44                ??_USBCtrlEPServiceComplete 001E  
                                _IPR2bits 000FA2                                  _PIE1bits 000F9D  
                                _PIE2bits 000FA0                                  i1u708_20 0092  
                                i1u708_28 0094                                  _PIR1bits 000F9E  
                                _PIR2bits 000FA1                                  i2u727_40 32A8  
                                i2u743_40 2976                                  i2u727_47 329E  
                                i2u743_47 296C                                  i2u744_40 29AA  
               USBCtrlEPService@setup_cnt 007A                                  i2u744_47 29A0  
                                i2u729_40 32EA                                  i2u729_47 32E0  
                                i2u746_40 2A00                                  i2u746_47 29F6  
                                _RCONbits 000FD0                          __CFG_WDTPS$32768 000000  
                                _UEP0bits 000F70                           _SpiTransference 170A  
                           ?_AnalogCmpCfg 0001                _USBDeferINDataStagePackets 0034  
                                _POSTINC0 000FEE               __size_of_USBCheckStdRequest 0100  
                                _UCONbits 000F6D                             _BufferCounter 0029  
                    _USBConfigureEndpoint 3A6A                                  _AdcValue 24EC  
        __size_of_USBStdFeatureReqHandler 0320                                _ADCON0bits 000FC2  
                              _ADCON1bits 000FC1                     ?_USBTransferOnePacket 008A  
                       _SYS_InterruptHigh 0008                              _RemoteWakeup 0032  
                                i2_memset 4018                        ?_SYS_InterruptHigh 0001  
                 __end_of_USBStallHandler 3EDE               ??_USBCtrlEPAllowStatusStage 001D  
             __end_of_USBStdSetCfgHandler 2C44                       ??_SYS_InterruptHigh 007C  
                                _EusartRx 3B08                                  _EusartTx 3B7A  
                      __end_of_device_dsc 08C3                   ?_USBCtrlTrfSetupHandler 0001  
                 USBStdGetStatusHandler@p 001E                                  __Hrparam 0000  
                        __size_of_ReadSfr 016A                                  __Lrparam 0000  
                  USBTransferOnePacket@ep 008E                            ??_AnalogCmpCfg 008A  
                                _SetupPkt 000420                          __size_of_PwmFpwm 0014  
                       _SfrChangeBitValue 2C44                     ?_USBConfigureEndpoint 001D  
                       ??_USBDeviceAttach 008A                          ?_SfrReadBitValue 0001  
                      ?_SfrChangeBitValue 0001                 __end_of_SYS_InterruptHigh 3C54  
                                _WriteSfr 2388                       ??_SfrChangeBitValue 008A  
                __size_of_I2cTransference 0524                   __size_of_USBDeviceTasks 0154  
                                __ptext10 3636                                  __ptext11 2C44  
                                __ptext20 3CBA                                  __ptext12 221E  
                                __ptext21 24EC                                  __ptext13 4096  
                                __ptext30 3E62                                  __ptext22 2F44  
                                __ptext14 3FEA                                  __ptext31 3F16  
                                __ptext23 33D4                                  __ptext15 11E6  
                                __ptext40 4018                                  __ptext32 3EA0  
                                __ptext24 3300                                  __ptext16 40AA  
                                __ptext41 36FE                                  __ptext33 4066  
                                __ptext17 3B7A                                  __ptext50 3D78  
                                __ptext42 28F2                                  __ptext34 312C  
                                __ptext26 34A2                                  __ptext18 3B08  
                                __ptext51 2A30                                  __ptext43 1C06  
                                __ptext35 392E                                  __ptext19 3DD2  
                                __ptext52 37C4                                  __ptext44 3C54  
                                __ptext36 303C                                  __ptext28 279E  
                                __ptext53 3888                                  __ptext45 2E44  
                                __ptext37 39CC                                  __ptext29 20A8  
                                __ptext54 3218                                  __ptext46 3F4E  
                                __ptext38 2D44                                  __ptext47 356C  
                                __ptext39 2B3E                                  __ptext48 3D1C  
                                __ptext49 3A6A                             __size_of_Test 091E  
        __end_of_APP_DeviceCustomHIDTasks 279E            __end_of_USBCtrlTrfSetupHandler 39CC  
                           __size_of_main 0036                         ?_USBCtrlEPService 0001  
                 __end_of_SpiTransference 1C06                        ??_USBCtrlEPService 0078  
                __size_of_AdcBufferedRead 00D4                       _USBCtrlTrfInHandler 3888  
               __end_of_SfrChangeBitValue 2D44                                  _outPipes 00A3  
                    _USBCtrlTrfOutHandler 3D78                   ?i1_USBTransferOnePacket 0001  
               _USBCtrlEPAllowStatusStage 37C4                    ??_USBTransferOnePacket 008E  
          ?_APP_DeviceCustomHIDInitialize 0001                     __CFG_CPUDIV$OSC1_PLL2 000000  
               _USBDeferStatusStagePacket 0036                                _INTCONbits 000FF2  
                           _AdcValue$3344 0092                             _AdcValue$3345 0094  
                           _AdcValue$3346 0096                      ?_USBCtrlTrfInHandler 0001  
           USBCtrlTrfTxService@byteToSend 001D                                  memset@p1 008A  
                        ?_USBStallHandler 0001                  USBStdFeatureReqHandler@p 0074  
                                intlevel1 0000                                  intlevel2 0000  
                  __size_of_USBDeviceInit 0182   __end_of_USER_USB_CALLBACK_EVENT_HANDLER 3CBA  
__size_of_USER_USB_CALLBACK_EVENT_HANDLER 0066         ??_USER_USB_CALLBACK_EVENT_HANDLER 006C  
        ?_USER_USB_CALLBACK_EVENT_HANDLER 0066           _USER_USB_CALLBACK_EVENT_HANDLER 3C54  
            i2USBTransferOnePacket@handle 0022                i2USBTransferOnePacket@data 001E  
          __end_ofi1_USBTransferOnePacket 356C                    ??_USBConfigureEndpoint 001E  
                   ?_USBCtrlTrfOutHandler 0001                       _USBCtrlTrfRxService 2A30  
                      _USBWakeFromSuspend 3E62                   _USBStdFeatureReqHandler 1C06  
                 __size_of_ISRLowPriority 0182                       _USBCtrlTrfTxService 3218  
              __size_of_SYS_InterruptHigh 3C4C                       ?_USBWakeFromSuspend 0001  
                   ??_USBCtrlTrfInHandler 001E                     _USBAlternateInterface 0040  
               i2USBTransferOnePacket@dir 001D                 i2USBTransferOnePacket@len 0020  
                             _SSPCON2bits 000FC5                       USBEnableEndpoint@ep 0065  
                         _endpoint_number 003D                      __end_of_AnalogCmpCfg 3D1C  
                    ?_USBCtrlTrfRxService 0001                  ?_USBCtrlEPAllowDataStage 0001  
                    ?_USBCtrlTrfTxService 0001                         ??_I2cTransference 0091  
            _USBStatusStageTimeoutCounter 003A                          ?_SpiTransference 0001  
                    ??_USBWakeFromSuspend 0025                USBTransferOnePacket@handle 008F  
                              _USB_CD_Ptr 0807                               _USBInHandle 002B  
                _APP_DeviceCustomHIDTasks 264A                __size_of_SfrChangeBitValue 0100  
